

Microchip Technology PIC LITE Macro Assembler V2.00 build -1524193055 
                                                                                               Tue Aug 16 09:09:55 2022

Microchip Technology Omniscient Code Generator v2.00 (Free mode) build 20180527130849
     1  0000                     
      + 0000                     
     2                           ; Version 2.00
     3                           ; Generated 27/05/2018 GMT
     4                           
     5                           ; 
     6                           ; Copyright © 2018, Microchip Technology Inc. and its subsidiaries ("Microchip")
     7                           ; All rights reserved.
     8                           ; 
     9                           ; This software is developed by Microchip Technology Inc. and its subsidiaries ("Microch
                                 ip").
    10                           ; 
    11                           ; Redistribution and use in source and binary forms, with or without modification, are
    12                           ; permitted provided that the following conditions are met:
    13                           ; 
    14                           ;     1. Redistributions of source code must retain the above copyright notice, this lis
                                 t of
    15                           ;        conditions and the following disclaimer.
    16                           ; 
    17                           ;     2. Redistributions in binary form must reproduce the above copyright notice, this 
                                 list
    18                           ;        of conditions and the following disclaimer in the documentation and/or other
    19                           ;        materials provided with the distribution.
    20                           ; 
    21                           ;     3. Microchip's name may not be used to endorse or promote products derived from th
                                 is
    22                           ;        software without specific prior written permission.
    23                           ; 
    24                           ; THIS SOFTWARE IS PROVIDED BY MICROCHIP "AS IS" AND ANY EXPRESS OR IMPLIED WARRANTIES,

    25                           ; INCLUDING, BUT NOT LIMITED TO, THE IMPLIED WARRANTIES OF MERCHANTABILITY AND FITNESS F
                                 OR
    26                           ; PURPOSE ARE DISCLAIMED.  IN NO EVENT SHALL MICROCHIP BE LIABLE FOR ANY DIRECT, INDIREC
                                 T,
    27                           ; INCIDENTAL, SPECIAL, EXEMPLARY, OR CONSEQUENTIAL DAMAGES (INCLUDING BUT NOT LIMITED TO
                                 
    28                           ; PROCUREMENT OF SUBSTITUTE GOODS OR SERVICES; LOSS OF USE, DATA OR PROFITS; OR BUSINESS
                                 
    29                           ; INTERRUPTION) HOWSOEVER CAUSED AND ON ANY THEORY OF LIABILITY, WHETHER IN CONTRACT, ST
                                 RICT
    30                           ; LIABILITY, OR TORT (INCLUDING NEGLIGENCE OR OTHERWISE) ARISING IN ANY WAY OUT OF THE U
                                 SE OF
    31                           ; THIS SOFTWARE, EVEN IF ADVISED OF THE POSSIBILITY OF SUCH DAMAGE.
    32                           ; 
    33                           
    34                           
    35                           ; 
    36                           ; Code-generator required, PIC16F877A Definitions
    37                           ; 
    38  0004                     fsr0 equ 04h
    39  0004                     indf equ 00h
    40  0000                     indf0 equ 00h
    41  0000                     pc equ 02h
    42  0002                     pcl equ 02h
    43  0002                     pclath equ 0Ah
    44  000A                     status equ 03h
    45  0003                     
     2                           opt pagewidth 120
     3  0000                     byte0	macro	val
     4                           	(getbyte(val,0))
     5                           endm
     6  0000                     byte1	macro	val
     7                           	(getbyte(val,1))
     8                           endm
     9  0000                     byte2	macro	val
    10                           	(getbyte(val,2))
    11                           endm
    12  0000                     byte3	macro	val
    13                           	(getbyte(val,3))
    14                           endm
    15  0000                     byte4	macro	val
    16                           	(getbyte(val,4))
    17                           endm
    18  0000                     byte5	macro	val
    19                           	(getbyte(val,5))
    20                           endm
    21  0000                     byte6	macro	val
    22                           	(getbyte(val,6))
    23                           endm
    24  0000                     byte7	macro	val
    25                           	(getbyte(val,7))
    26                           endm
    27  0000                     getword	macro	val,pos
    28                           	(((val) >> (8 * pos)) and 0xffff)
    29                           endm
    30  0000                     word0	macro	val
    31                           	(getword(val,0))
    32                           endm
    33  0000                     word1	macro	val
    34                           	(getword(val,2))
    35                           endm
    36  0000                     word2	macro	val
    37                           	(getword(val,4))
    38                           endm
    39  0000                     word3	macro	val
    40                           	(getword(val,6))
    41                           endm
    42  0000                     gettword	macro	val,pos
    43                           	(((val) >> (8 * pos)) and 0xffffff)
    44                           endm
    45  0000                     tword0	macro	val
    46                           	(gettword(val,0))
    47                           endm
    48  0000                     tword1	macro	val
    49                           	(gettword(val,3))
    50                           endm
    51  0000                     tword2	macro	val
    52                           	(gettword(val,6))
    53                           endm
    54  0000                     getdword	macro	val,pos
    55                           	(((val) >> (8 * pos)) and 0xffffffff)
    56                           endm
    57  0000                     dword0	macro	val
    58                           	(getdword(val,0))
    59                           endm
    60  0000                     dword1	macro	val
    61                           	(getdword(val,4))
    62                           endm
    63  0000                     clrc	macro
    64                           	bcf	3,0
    65                           	endm
    66  0000                     clrz	macro
    67                           	bcf	3,2
    68                           	endm
    69  0000                     setc	macro
    70                           	bsf	3,0
    71                           	endm
    72  0000                     setz	macro
    73                           	bsf	3,2
    74                           	endm
    75  0000                     skipc	macro
    76                           	btfss	3,0
    77                           	endm
    78  0000                     skipz	macro
    79                           	btfss	3,2
    80                           	endm
    81  0000                     skipnc	macro
    82                           	btfsc	3,0
    83                           	endm
    84  0000                     skipnz	macro
    85                           	btfsc	3,2
    86                           	endm
    87  0000                     # 54 "C:\Program Files (x86)\Microchip\xc8\v2.00\pic\include\pic16f877a.h"
    88                           INDF equ 00h ;# 
    89  0000                     # 61 "C:\Program Files (x86)\Microchip\xc8\v2.00\pic\include\pic16f877a.h"
    90                           TMR0 equ 01h ;# 
    91  0001                     # 68 "C:\Program Files (x86)\Microchip\xc8\v2.00\pic\include\pic16f877a.h"
    92                           PCL equ 02h ;# 
    93  0002                     # 75 "C:\Program Files (x86)\Microchip\xc8\v2.00\pic\include\pic16f877a.h"
    94                           STATUS equ 03h ;# 
    95  0003                     # 161 "C:\Program Files (x86)\Microchip\xc8\v2.00\pic\include\pic16f877a.h"
    96                           FSR equ 04h ;# 
    97  0004                     # 168 "C:\Program Files (x86)\Microchip\xc8\v2.00\pic\include\pic16f877a.h"
    98                           PORTA equ 05h ;# 
    99  0005                     # 218 "C:\Program Files (x86)\Microchip\xc8\v2.00\pic\include\pic16f877a.h"
   100                           PORTB equ 06h ;# 
   101  0006                     # 280 "C:\Program Files (x86)\Microchip\xc8\v2.00\pic\include\pic16f877a.h"
   102                           PORTC equ 07h ;# 
   103  0007                     # 342 "C:\Program Files (x86)\Microchip\xc8\v2.00\pic\include\pic16f877a.h"
   104                           PORTD equ 08h ;# 
   105  0008                     # 404 "C:\Program Files (x86)\Microchip\xc8\v2.00\pic\include\pic16f877a.h"
   106                           PORTE equ 09h ;# 
   107  0009                     # 436 "C:\Program Files (x86)\Microchip\xc8\v2.00\pic\include\pic16f877a.h"
   108                           PCLATH equ 0Ah ;# 
   109  000A                     # 456 "C:\Program Files (x86)\Microchip\xc8\v2.00\pic\include\pic16f877a.h"
   110                           INTCON equ 0Bh ;# 
   111  000B                     # 534 "C:\Program Files (x86)\Microchip\xc8\v2.00\pic\include\pic16f877a.h"
   112                           PIR1 equ 0Ch ;# 
   113  000C                     # 596 "C:\Program Files (x86)\Microchip\xc8\v2.00\pic\include\pic16f877a.h"
   114                           PIR2 equ 0Dh ;# 
   115  000D                     # 636 "C:\Program Files (x86)\Microchip\xc8\v2.00\pic\include\pic16f877a.h"
   116                           TMR1 equ 0Eh ;# 
   117  000E                     # 643 "C:\Program Files (x86)\Microchip\xc8\v2.00\pic\include\pic16f877a.h"
   118                           TMR1L equ 0Eh ;# 
   119  000E                     # 650 "C:\Program Files (x86)\Microchip\xc8\v2.00\pic\include\pic16f877a.h"
   120                           TMR1H equ 0Fh ;# 
   121  000F                     # 657 "C:\Program Files (x86)\Microchip\xc8\v2.00\pic\include\pic16f877a.h"
   122                           T1CON equ 010h ;# 
   123  0010                     # 732 "C:\Program Files (x86)\Microchip\xc8\v2.00\pic\include\pic16f877a.h"
   124                           TMR2 equ 011h ;# 
   125  0011                     # 739 "C:\Program Files (x86)\Microchip\xc8\v2.00\pic\include\pic16f877a.h"
   126                           T2CON equ 012h ;# 
   127  0012                     # 810 "C:\Program Files (x86)\Microchip\xc8\v2.00\pic\include\pic16f877a.h"
   128                           SSPBUF equ 013h ;# 
   129  0013                     # 817 "C:\Program Files (x86)\Microchip\xc8\v2.00\pic\include\pic16f877a.h"
   130                           SSPCON equ 014h ;# 
   131  0014                     # 887 "C:\Program Files (x86)\Microchip\xc8\v2.00\pic\include\pic16f877a.h"
   132                           CCPR1 equ 015h ;# 
   133  0015                     # 894 "C:\Program Files (x86)\Microchip\xc8\v2.00\pic\include\pic16f877a.h"
   134                           CCPR1L equ 015h ;# 
   135  0015                     # 901 "C:\Program Files (x86)\Microchip\xc8\v2.00\pic\include\pic16f877a.h"
   136                           CCPR1H equ 016h ;# 
   137  0016                     # 908 "C:\Program Files (x86)\Microchip\xc8\v2.00\pic\include\pic16f877a.h"
   138                           CCP1CON equ 017h ;# 
   139  0017                     # 966 "C:\Program Files (x86)\Microchip\xc8\v2.00\pic\include\pic16f877a.h"
   140                           RCSTA equ 018h ;# 
   141  0018                     # 1061 "C:\Program Files (x86)\Microchip\xc8\v2.00\pic\include\pic16f877a.h"
   142                           TXREG equ 019h ;# 
   143  0019                     # 1068 "C:\Program Files (x86)\Microchip\xc8\v2.00\pic\include\pic16f877a.h"
   144                           RCREG equ 01Ah ;# 
   145  001A                     # 1075 "C:\Program Files (x86)\Microchip\xc8\v2.00\pic\include\pic16f877a.h"
   146                           CCPR2 equ 01Bh ;# 
   147  001B                     # 1082 "C:\Program Files (x86)\Microchip\xc8\v2.00\pic\include\pic16f877a.h"
   148                           CCPR2L equ 01Bh ;# 
   149  001B                     # 1089 "C:\Program Files (x86)\Microchip\xc8\v2.00\pic\include\pic16f877a.h"
   150                           CCPR2H equ 01Ch ;# 
   151  001C                     # 1096 "C:\Program Files (x86)\Microchip\xc8\v2.00\pic\include\pic16f877a.h"
   152                           CCP2CON equ 01Dh ;# 
   153  001D                     # 1154 "C:\Program Files (x86)\Microchip\xc8\v2.00\pic\include\pic16f877a.h"
   154                           ADRESH equ 01Eh ;# 
   155  001E                     # 1161 "C:\Program Files (x86)\Microchip\xc8\v2.00\pic\include\pic16f877a.h"
   156                           ADCON0 equ 01Fh ;# 
   157  001F                     # 1257 "C:\Program Files (x86)\Microchip\xc8\v2.00\pic\include\pic16f877a.h"
   158                           OPTION_REG equ 081h ;# 
   159  0081                     # 1327 "C:\Program Files (x86)\Microchip\xc8\v2.00\pic\include\pic16f877a.h"
   160                           TRISA equ 085h ;# 
   161  0085                     # 1377 "C:\Program Files (x86)\Microchip\xc8\v2.00\pic\include\pic16f877a.h"
   162                           TRISB equ 086h ;# 
   163  0086                     # 1439 "C:\Program Files (x86)\Microchip\xc8\v2.00\pic\include\pic16f877a.h"
   164                           TRISC equ 087h ;# 
   165  0087                     # 1501 "C:\Program Files (x86)\Microchip\xc8\v2.00\pic\include\pic16f877a.h"
   166                           TRISD equ 088h ;# 
   167  0088                     # 1563 "C:\Program Files (x86)\Microchip\xc8\v2.00\pic\include\pic16f877a.h"
   168                           TRISE equ 089h ;# 
   169  0089                     # 1620 "C:\Program Files (x86)\Microchip\xc8\v2.00\pic\include\pic16f877a.h"
   170                           PIE1 equ 08Ch ;# 
   171  008C                     # 1682 "C:\Program Files (x86)\Microchip\xc8\v2.00\pic\include\pic16f877a.h"
   172                           PIE2 equ 08Dh ;# 
   173  008D                     # 1722 "C:\Program Files (x86)\Microchip\xc8\v2.00\pic\include\pic16f877a.h"
   174                           PCON equ 08Eh ;# 
   175  008E                     # 1756 "C:\Program Files (x86)\Microchip\xc8\v2.00\pic\include\pic16f877a.h"
   176                           SSPCON2 equ 091h ;# 
   177  0091                     # 1818 "C:\Program Files (x86)\Microchip\xc8\v2.00\pic\include\pic16f877a.h"
   178                           PR2 equ 092h ;# 
   179  0092                     # 1825 "C:\Program Files (x86)\Microchip\xc8\v2.00\pic\include\pic16f877a.h"
   180                           SSPADD equ 093h ;# 
   181  0093                     # 1832 "C:\Program Files (x86)\Microchip\xc8\v2.00\pic\include\pic16f877a.h"
   182                           SSPSTAT equ 094h ;# 
   183  0094                     # 2001 "C:\Program Files (x86)\Microchip\xc8\v2.00\pic\include\pic16f877a.h"
   184                           TXSTA equ 098h ;# 
   185  0098                     # 2082 "C:\Program Files (x86)\Microchip\xc8\v2.00\pic\include\pic16f877a.h"
   186                           SPBRG equ 099h ;# 
   187  0099                     # 2089 "C:\Program Files (x86)\Microchip\xc8\v2.00\pic\include\pic16f877a.h"
   188                           CMCON equ 09Ch ;# 
   189  009C                     # 2159 "C:\Program Files (x86)\Microchip\xc8\v2.00\pic\include\pic16f877a.h"
   190                           CVRCON equ 09Dh ;# 
   191  009D                     # 2224 "C:\Program Files (x86)\Microchip\xc8\v2.00\pic\include\pic16f877a.h"
   192                           ADRESL equ 09Eh ;# 
   193  009E                     # 2231 "C:\Program Files (x86)\Microchip\xc8\v2.00\pic\include\pic16f877a.h"
   194                           ADCON1 equ 09Fh ;# 
   195  009F                     # 2290 "C:\Program Files (x86)\Microchip\xc8\v2.00\pic\include\pic16f877a.h"
   196                           EEDATA equ 010Ch ;# 
   197  010C                     # 2297 "C:\Program Files (x86)\Microchip\xc8\v2.00\pic\include\pic16f877a.h"
   198                           EEADR equ 010Dh ;# 
   199  010D                     # 2304 "C:\Program Files (x86)\Microchip\xc8\v2.00\pic\include\pic16f877a.h"
   200                           EEDATH equ 010Eh ;# 
   201  010E                     # 2311 "C:\Program Files (x86)\Microchip\xc8\v2.00\pic\include\pic16f877a.h"
   202                           EEADRH equ 010Fh ;# 
   203  010F                     # 2318 "C:\Program Files (x86)\Microchip\xc8\v2.00\pic\include\pic16f877a.h"
   204                           EECON1 equ 018Ch ;# 
   205  018C                     # 2363 "C:\Program Files (x86)\Microchip\xc8\v2.00\pic\include\pic16f877a.h"
   206                           EECON2 equ 018Dh ;# 
   207  018D                     # 54 "C:\Program Files (x86)\Microchip\xc8\v2.00\pic\include\pic16f877a.h"
   208                           INDF equ 00h ;# 
   209  0000                     # 61 "C:\Program Files (x86)\Microchip\xc8\v2.00\pic\include\pic16f877a.h"
   210                           TMR0 equ 01h ;# 
   211  0001                     # 68 "C:\Program Files (x86)\Microchip\xc8\v2.00\pic\include\pic16f877a.h"
   212                           PCL equ 02h ;# 
   213  0002                     # 75 "C:\Program Files (x86)\Microchip\xc8\v2.00\pic\include\pic16f877a.h"
   214                           STATUS equ 03h ;# 
   215  0003                     # 161 "C:\Program Files (x86)\Microchip\xc8\v2.00\pic\include\pic16f877a.h"
   216                           FSR equ 04h ;# 
   217  0004                     # 168 "C:\Program Files (x86)\Microchip\xc8\v2.00\pic\include\pic16f877a.h"
   218                           PORTA equ 05h ;# 
   219  0005                     # 218 "C:\Program Files (x86)\Microchip\xc8\v2.00\pic\include\pic16f877a.h"
   220                           PORTB equ 06h ;# 
   221  0006                     # 280 "C:\Program Files (x86)\Microchip\xc8\v2.00\pic\include\pic16f877a.h"
   222                           PORTC equ 07h ;# 
   223  0007                     # 342 "C:\Program Files (x86)\Microchip\xc8\v2.00\pic\include\pic16f877a.h"
   224                           PORTD equ 08h ;# 
   225  0008                     # 404 "C:\Program Files (x86)\Microchip\xc8\v2.00\pic\include\pic16f877a.h"
   226                           PORTE equ 09h ;# 
   227  0009                     # 436 "C:\Program Files (x86)\Microchip\xc8\v2.00\pic\include\pic16f877a.h"
   228                           PCLATH equ 0Ah ;# 
   229  000A                     # 456 "C:\Program Files (x86)\Microchip\xc8\v2.00\pic\include\pic16f877a.h"
   230                           INTCON equ 0Bh ;# 
   231  000B                     # 534 "C:\Program Files (x86)\Microchip\xc8\v2.00\pic\include\pic16f877a.h"
   232                           PIR1 equ 0Ch ;# 
   233  000C                     # 596 "C:\Program Files (x86)\Microchip\xc8\v2.00\pic\include\pic16f877a.h"
   234                           PIR2 equ 0Dh ;# 
   235  000D                     # 636 "C:\Program Files (x86)\Microchip\xc8\v2.00\pic\include\pic16f877a.h"
   236                           TMR1 equ 0Eh ;# 
   237  000E                     # 643 "C:\Program Files (x86)\Microchip\xc8\v2.00\pic\include\pic16f877a.h"
   238                           TMR1L equ 0Eh ;# 
   239  000E                     # 650 "C:\Program Files (x86)\Microchip\xc8\v2.00\pic\include\pic16f877a.h"
   240                           TMR1H equ 0Fh ;# 
   241  000F                     # 657 "C:\Program Files (x86)\Microchip\xc8\v2.00\pic\include\pic16f877a.h"
   242                           T1CON equ 010h ;# 
   243  0010                     # 732 "C:\Program Files (x86)\Microchip\xc8\v2.00\pic\include\pic16f877a.h"
   244                           TMR2 equ 011h ;# 
   245  0011                     # 739 "C:\Program Files (x86)\Microchip\xc8\v2.00\pic\include\pic16f877a.h"
   246                           T2CON equ 012h ;# 
   247  0012                     # 810 "C:\Program Files (x86)\Microchip\xc8\v2.00\pic\include\pic16f877a.h"
   248                           SSPBUF equ 013h ;# 
   249  0013                     # 817 "C:\Program Files (x86)\Microchip\xc8\v2.00\pic\include\pic16f877a.h"
   250                           SSPCON equ 014h ;# 
   251  0014                     # 887 "C:\Program Files (x86)\Microchip\xc8\v2.00\pic\include\pic16f877a.h"
   252                           CCPR1 equ 015h ;# 
   253  0015                     # 894 "C:\Program Files (x86)\Microchip\xc8\v2.00\pic\include\pic16f877a.h"
   254                           CCPR1L equ 015h ;# 
   255  0015                     # 901 "C:\Program Files (x86)\Microchip\xc8\v2.00\pic\include\pic16f877a.h"
   256                           CCPR1H equ 016h ;# 
   257  0016                     # 908 "C:\Program Files (x86)\Microchip\xc8\v2.00\pic\include\pic16f877a.h"
   258                           CCP1CON equ 017h ;# 
   259  0017                     # 966 "C:\Program Files (x86)\Microchip\xc8\v2.00\pic\include\pic16f877a.h"
   260                           RCSTA equ 018h ;# 
   261  0018                     # 1061 "C:\Program Files (x86)\Microchip\xc8\v2.00\pic\include\pic16f877a.h"
   262                           TXREG equ 019h ;# 
   263  0019                     # 1068 "C:\Program Files (x86)\Microchip\xc8\v2.00\pic\include\pic16f877a.h"
   264                           RCREG equ 01Ah ;# 
   265  001A                     # 1075 "C:\Program Files (x86)\Microchip\xc8\v2.00\pic\include\pic16f877a.h"
   266                           CCPR2 equ 01Bh ;# 
   267  001B                     # 1082 "C:\Program Files (x86)\Microchip\xc8\v2.00\pic\include\pic16f877a.h"
   268                           CCPR2L equ 01Bh ;# 
   269  001B                     # 1089 "C:\Program Files (x86)\Microchip\xc8\v2.00\pic\include\pic16f877a.h"
   270                           CCPR2H equ 01Ch ;# 
   271  001C                     # 1096 "C:\Program Files (x86)\Microchip\xc8\v2.00\pic\include\pic16f877a.h"
   272                           CCP2CON equ 01Dh ;# 
   273  001D                     # 1154 "C:\Program Files (x86)\Microchip\xc8\v2.00\pic\include\pic16f877a.h"
   274                           ADRESH equ 01Eh ;# 
   275  001E                     # 1161 "C:\Program Files (x86)\Microchip\xc8\v2.00\pic\include\pic16f877a.h"
   276                           ADCON0 equ 01Fh ;# 
   277  001F                     # 1257 "C:\Program Files (x86)\Microchip\xc8\v2.00\pic\include\pic16f877a.h"
   278                           OPTION_REG equ 081h ;# 
   279  0081                     # 1327 "C:\Program Files (x86)\Microchip\xc8\v2.00\pic\include\pic16f877a.h"
   280                           TRISA equ 085h ;# 
   281  0085                     # 1377 "C:\Program Files (x86)\Microchip\xc8\v2.00\pic\include\pic16f877a.h"
   282                           TRISB equ 086h ;# 
   283  0086                     # 1439 "C:\Program Files (x86)\Microchip\xc8\v2.00\pic\include\pic16f877a.h"
   284                           TRISC equ 087h ;# 
   285  0087                     # 1501 "C:\Program Files (x86)\Microchip\xc8\v2.00\pic\include\pic16f877a.h"
   286                           TRISD equ 088h ;# 
   287  0088                     # 1563 "C:\Program Files (x86)\Microchip\xc8\v2.00\pic\include\pic16f877a.h"
   288                           TRISE equ 089h ;# 
   289  0089                     # 1620 "C:\Program Files (x86)\Microchip\xc8\v2.00\pic\include\pic16f877a.h"
   290                           PIE1 equ 08Ch ;# 
   291  008C                     # 1682 "C:\Program Files (x86)\Microchip\xc8\v2.00\pic\include\pic16f877a.h"
   292                           PIE2 equ 08Dh ;# 
   293  008D                     # 1722 "C:\Program Files (x86)\Microchip\xc8\v2.00\pic\include\pic16f877a.h"
   294                           PCON equ 08Eh ;# 
   295  008E                     # 1756 "C:\Program Files (x86)\Microchip\xc8\v2.00\pic\include\pic16f877a.h"
   296                           SSPCON2 equ 091h ;# 
   297  0091                     # 1818 "C:\Program Files (x86)\Microchip\xc8\v2.00\pic\include\pic16f877a.h"
   298                           PR2 equ 092h ;# 
   299  0092                     # 1825 "C:\Program Files (x86)\Microchip\xc8\v2.00\pic\include\pic16f877a.h"
   300                           SSPADD equ 093h ;# 
   301  0093                     # 1832 "C:\Program Files (x86)\Microchip\xc8\v2.00\pic\include\pic16f877a.h"
   302                           SSPSTAT equ 094h ;# 
   303  0094                     # 2001 "C:\Program Files (x86)\Microchip\xc8\v2.00\pic\include\pic16f877a.h"
   304                           TXSTA equ 098h ;# 
   305  0098                     # 2082 "C:\Program Files (x86)\Microchip\xc8\v2.00\pic\include\pic16f877a.h"
   306                           SPBRG equ 099h ;# 
   307  0099                     # 2089 "C:\Program Files (x86)\Microchip\xc8\v2.00\pic\include\pic16f877a.h"
   308                           CMCON equ 09Ch ;# 
   309  009C                     # 2159 "C:\Program Files (x86)\Microchip\xc8\v2.00\pic\include\pic16f877a.h"
   310                           CVRCON equ 09Dh ;# 
   311  009D                     # 2224 "C:\Program Files (x86)\Microchip\xc8\v2.00\pic\include\pic16f877a.h"
   312                           ADRESL equ 09Eh ;# 
   313  009E                     # 2231 "C:\Program Files (x86)\Microchip\xc8\v2.00\pic\include\pic16f877a.h"
   314                           ADCON1 equ 09Fh ;# 
   315  009F                     # 2290 "C:\Program Files (x86)\Microchip\xc8\v2.00\pic\include\pic16f877a.h"
   316                           EEDATA equ 010Ch ;# 
   317  010C                     # 2297 "C:\Program Files (x86)\Microchip\xc8\v2.00\pic\include\pic16f877a.h"
   318                           EEADR equ 010Dh ;# 
   319  010D                     # 2304 "C:\Program Files (x86)\Microchip\xc8\v2.00\pic\include\pic16f877a.h"
   320                           EEDATH equ 010Eh ;# 
   321  010E                     # 2311 "C:\Program Files (x86)\Microchip\xc8\v2.00\pic\include\pic16f877a.h"
   322                           EEADRH equ 010Fh ;# 
   323  010F                     # 2318 "C:\Program Files (x86)\Microchip\xc8\v2.00\pic\include\pic16f877a.h"
   324                           EECON1 equ 018Ch ;# 
   325  018C                     # 2363 "C:\Program Files (x86)\Microchip\xc8\v2.00\pic\include\pic16f877a.h"
   326                           EECON2 equ 018Dh ;# 
   327  018D                     # 54 "C:\Program Files (x86)\Microchip\xc8\v2.00\pic\include\pic16f877a.h"
   328                           INDF equ 00h ;# 
   329  0000                     # 61 "C:\Program Files (x86)\Microchip\xc8\v2.00\pic\include\pic16f877a.h"
   330                           TMR0 equ 01h ;# 
   331  0001                     # 68 "C:\Program Files (x86)\Microchip\xc8\v2.00\pic\include\pic16f877a.h"
   332                           PCL equ 02h ;# 
   333  0002                     # 75 "C:\Program Files (x86)\Microchip\xc8\v2.00\pic\include\pic16f877a.h"
   334                           STATUS equ 03h ;# 
   335  0003                     # 161 "C:\Program Files (x86)\Microchip\xc8\v2.00\pic\include\pic16f877a.h"
   336                           FSR equ 04h ;# 
   337  0004                     # 168 "C:\Program Files (x86)\Microchip\xc8\v2.00\pic\include\pic16f877a.h"
   338                           PORTA equ 05h ;# 
   339  0005                     # 218 "C:\Program Files (x86)\Microchip\xc8\v2.00\pic\include\pic16f877a.h"
   340                           PORTB equ 06h ;# 
   341  0006                     # 280 "C:\Program Files (x86)\Microchip\xc8\v2.00\pic\include\pic16f877a.h"
   342                           PORTC equ 07h ;# 
   343  0007                     # 342 "C:\Program Files (x86)\Microchip\xc8\v2.00\pic\include\pic16f877a.h"
   344                           PORTD equ 08h ;# 
   345  0008                     # 404 "C:\Program Files (x86)\Microchip\xc8\v2.00\pic\include\pic16f877a.h"
   346                           PORTE equ 09h ;# 
   347  0009                     # 436 "C:\Program Files (x86)\Microchip\xc8\v2.00\pic\include\pic16f877a.h"
   348                           PCLATH equ 0Ah ;# 
   349  000A                     # 456 "C:\Program Files (x86)\Microchip\xc8\v2.00\pic\include\pic16f877a.h"
   350                           INTCON equ 0Bh ;# 
   351  000B                     # 534 "C:\Program Files (x86)\Microchip\xc8\v2.00\pic\include\pic16f877a.h"
   352                           PIR1 equ 0Ch ;# 
   353  000C                     # 596 "C:\Program Files (x86)\Microchip\xc8\v2.00\pic\include\pic16f877a.h"
   354                           PIR2 equ 0Dh ;# 
   355  000D                     # 636 "C:\Program Files (x86)\Microchip\xc8\v2.00\pic\include\pic16f877a.h"
   356                           TMR1 equ 0Eh ;# 
   357  000E                     # 643 "C:\Program Files (x86)\Microchip\xc8\v2.00\pic\include\pic16f877a.h"
   358                           TMR1L equ 0Eh ;# 
   359  000E                     # 650 "C:\Program Files (x86)\Microchip\xc8\v2.00\pic\include\pic16f877a.h"
   360                           TMR1H equ 0Fh ;# 
   361  000F                     # 657 "C:\Program Files (x86)\Microchip\xc8\v2.00\pic\include\pic16f877a.h"
   362                           T1CON equ 010h ;# 
   363  0010                     # 732 "C:\Program Files (x86)\Microchip\xc8\v2.00\pic\include\pic16f877a.h"
   364                           TMR2 equ 011h ;# 
   365  0011                     # 739 "C:\Program Files (x86)\Microchip\xc8\v2.00\pic\include\pic16f877a.h"
   366                           T2CON equ 012h ;# 
   367  0012                     # 810 "C:\Program Files (x86)\Microchip\xc8\v2.00\pic\include\pic16f877a.h"
   368                           SSPBUF equ 013h ;# 
   369  0013                     # 817 "C:\Program Files (x86)\Microchip\xc8\v2.00\pic\include\pic16f877a.h"
   370                           SSPCON equ 014h ;# 
   371  0014                     # 887 "C:\Program Files (x86)\Microchip\xc8\v2.00\pic\include\pic16f877a.h"
   372                           CCPR1 equ 015h ;# 
   373  0015                     # 894 "C:\Program Files (x86)\Microchip\xc8\v2.00\pic\include\pic16f877a.h"
   374                           CCPR1L equ 015h ;# 
   375  0015                     # 901 "C:\Program Files (x86)\Microchip\xc8\v2.00\pic\include\pic16f877a.h"
   376                           CCPR1H equ 016h ;# 
   377  0016                     # 908 "C:\Program Files (x86)\Microchip\xc8\v2.00\pic\include\pic16f877a.h"
   378                           CCP1CON equ 017h ;# 
   379  0017                     # 966 "C:\Program Files (x86)\Microchip\xc8\v2.00\pic\include\pic16f877a.h"
   380                           RCSTA equ 018h ;# 
   381  0018                     # 1061 "C:\Program Files (x86)\Microchip\xc8\v2.00\pic\include\pic16f877a.h"
   382                           TXREG equ 019h ;# 
   383  0019                     # 1068 "C:\Program Files (x86)\Microchip\xc8\v2.00\pic\include\pic16f877a.h"
   384                           RCREG equ 01Ah ;# 
   385  001A                     # 1075 "C:\Program Files (x86)\Microchip\xc8\v2.00\pic\include\pic16f877a.h"
   386                           CCPR2 equ 01Bh ;# 
   387  001B                     # 1082 "C:\Program Files (x86)\Microchip\xc8\v2.00\pic\include\pic16f877a.h"
   388                           CCPR2L equ 01Bh ;# 
   389  001B                     # 1089 "C:\Program Files (x86)\Microchip\xc8\v2.00\pic\include\pic16f877a.h"
   390                           CCPR2H equ 01Ch ;# 
   391  001C                     # 1096 "C:\Program Files (x86)\Microchip\xc8\v2.00\pic\include\pic16f877a.h"
   392                           CCP2CON equ 01Dh ;# 
   393  001D                     # 1154 "C:\Program Files (x86)\Microchip\xc8\v2.00\pic\include\pic16f877a.h"
   394                           ADRESH equ 01Eh ;# 
   395  001E                     # 1161 "C:\Program Files (x86)\Microchip\xc8\v2.00\pic\include\pic16f877a.h"
   396                           ADCON0 equ 01Fh ;# 
   397  001F                     # 1257 "C:\Program Files (x86)\Microchip\xc8\v2.00\pic\include\pic16f877a.h"
   398                           OPTION_REG equ 081h ;# 
   399  0081                     # 1327 "C:\Program Files (x86)\Microchip\xc8\v2.00\pic\include\pic16f877a.h"
   400                           TRISA equ 085h ;# 
   401  0085                     # 1377 "C:\Program Files (x86)\Microchip\xc8\v2.00\pic\include\pic16f877a.h"
   402                           TRISB equ 086h ;# 
   403  0086                     # 1439 "C:\Program Files (x86)\Microchip\xc8\v2.00\pic\include\pic16f877a.h"
   404                           TRISC equ 087h ;# 
   405  0087                     # 1501 "C:\Program Files (x86)\Microchip\xc8\v2.00\pic\include\pic16f877a.h"
   406                           TRISD equ 088h ;# 
   407  0088                     # 1563 "C:\Program Files (x86)\Microchip\xc8\v2.00\pic\include\pic16f877a.h"
   408                           TRISE equ 089h ;# 
   409  0089                     # 1620 "C:\Program Files (x86)\Microchip\xc8\v2.00\pic\include\pic16f877a.h"
   410                           PIE1 equ 08Ch ;# 
   411  008C                     # 1682 "C:\Program Files (x86)\Microchip\xc8\v2.00\pic\include\pic16f877a.h"
   412                           PIE2 equ 08Dh ;# 
   413  008D                     # 1722 "C:\Program Files (x86)\Microchip\xc8\v2.00\pic\include\pic16f877a.h"
   414                           PCON equ 08Eh ;# 
   415  008E                     # 1756 "C:\Program Files (x86)\Microchip\xc8\v2.00\pic\include\pic16f877a.h"
   416                           SSPCON2 equ 091h ;# 
   417  0091                     # 1818 "C:\Program Files (x86)\Microchip\xc8\v2.00\pic\include\pic16f877a.h"
   418                           PR2 equ 092h ;# 
   419  0092                     # 1825 "C:\Program Files (x86)\Microchip\xc8\v2.00\pic\include\pic16f877a.h"
   420                           SSPADD equ 093h ;# 
   421  0093                     # 1832 "C:\Program Files (x86)\Microchip\xc8\v2.00\pic\include\pic16f877a.h"
   422                           SSPSTAT equ 094h ;# 
   423  0094                     # 2001 "C:\Program Files (x86)\Microchip\xc8\v2.00\pic\include\pic16f877a.h"
   424                           TXSTA equ 098h ;# 
   425  0098                     # 2082 "C:\Program Files (x86)\Microchip\xc8\v2.00\pic\include\pic16f877a.h"
   426                           SPBRG equ 099h ;# 
   427  0099                     # 2089 "C:\Program Files (x86)\Microchip\xc8\v2.00\pic\include\pic16f877a.h"
   428                           CMCON equ 09Ch ;# 
   429  009C                     # 2159 "C:\Program Files (x86)\Microchip\xc8\v2.00\pic\include\pic16f877a.h"
   430                           CVRCON equ 09Dh ;# 
   431  009D                     # 2224 "C:\Program Files (x86)\Microchip\xc8\v2.00\pic\include\pic16f877a.h"
   432                           ADRESL equ 09Eh ;# 
   433  009E                     # 2231 "C:\Program Files (x86)\Microchip\xc8\v2.00\pic\include\pic16f877a.h"
   434                           ADCON1 equ 09Fh ;# 
   435  009F                     # 2290 "C:\Program Files (x86)\Microchip\xc8\v2.00\pic\include\pic16f877a.h"
   436                           EEDATA equ 010Ch ;# 
   437  010C                     # 2297 "C:\Program Files (x86)\Microchip\xc8\v2.00\pic\include\pic16f877a.h"
   438                           EEADR equ 010Dh ;# 
   439  010D                     # 2304 "C:\Program Files (x86)\Microchip\xc8\v2.00\pic\include\pic16f877a.h"
   440                           EEDATH equ 010Eh ;# 
   441  010E                     # 2311 "C:\Program Files (x86)\Microchip\xc8\v2.00\pic\include\pic16f877a.h"
   442                           EEADRH equ 010Fh ;# 
   443  010F                     # 2318 "C:\Program Files (x86)\Microchip\xc8\v2.00\pic\include\pic16f877a.h"
   444                           EECON1 equ 018Ch ;# 
   445  018C                     # 2363 "C:\Program Files (x86)\Microchip\xc8\v2.00\pic\include\pic16f877a.h"
   446                           EECON2 equ 018Dh ;# 
   447  018D                     # 54 "C:\Program Files (x86)\Microchip\xc8\v2.00\pic\include\pic16f877a.h"
   448                           INDF equ 00h ;# 
   449  0000                     # 61 "C:\Program Files (x86)\Microchip\xc8\v2.00\pic\include\pic16f877a.h"
   450                           TMR0 equ 01h ;# 
   451  0001                     # 68 "C:\Program Files (x86)\Microchip\xc8\v2.00\pic\include\pic16f877a.h"
   452                           PCL equ 02h ;# 
   453  0002                     # 75 "C:\Program Files (x86)\Microchip\xc8\v2.00\pic\include\pic16f877a.h"
   454                           STATUS equ 03h ;# 
   455  0003                     # 161 "C:\Program Files (x86)\Microchip\xc8\v2.00\pic\include\pic16f877a.h"
   456                           FSR equ 04h ;# 
   457  0004                     # 168 "C:\Program Files (x86)\Microchip\xc8\v2.00\pic\include\pic16f877a.h"
   458                           PORTA equ 05h ;# 
   459  0005                     # 218 "C:\Program Files (x86)\Microchip\xc8\v2.00\pic\include\pic16f877a.h"
   460                           PORTB equ 06h ;# 
   461  0006                     # 280 "C:\Program Files (x86)\Microchip\xc8\v2.00\pic\include\pic16f877a.h"
   462                           PORTC equ 07h ;# 
   463  0007                     # 342 "C:\Program Files (x86)\Microchip\xc8\v2.00\pic\include\pic16f877a.h"
   464                           PORTD equ 08h ;# 
   465  0008                     # 404 "C:\Program Files (x86)\Microchip\xc8\v2.00\pic\include\pic16f877a.h"
   466                           PORTE equ 09h ;# 
   467  0009                     # 436 "C:\Program Files (x86)\Microchip\xc8\v2.00\pic\include\pic16f877a.h"
   468                           PCLATH equ 0Ah ;# 
   469  000A                     # 456 "C:\Program Files (x86)\Microchip\xc8\v2.00\pic\include\pic16f877a.h"
   470                           INTCON equ 0Bh ;# 
   471  000B                     # 534 "C:\Program Files (x86)\Microchip\xc8\v2.00\pic\include\pic16f877a.h"
   472                           PIR1 equ 0Ch ;# 
   473  000C                     # 596 "C:\Program Files (x86)\Microchip\xc8\v2.00\pic\include\pic16f877a.h"
   474                           PIR2 equ 0Dh ;# 
   475  000D                     # 636 "C:\Program Files (x86)\Microchip\xc8\v2.00\pic\include\pic16f877a.h"
   476                           TMR1 equ 0Eh ;# 
   477  000E                     # 643 "C:\Program Files (x86)\Microchip\xc8\v2.00\pic\include\pic16f877a.h"
   478                           TMR1L equ 0Eh ;# 
   479  000E                     # 650 "C:\Program Files (x86)\Microchip\xc8\v2.00\pic\include\pic16f877a.h"
   480                           TMR1H equ 0Fh ;# 
   481  000F                     # 657 "C:\Program Files (x86)\Microchip\xc8\v2.00\pic\include\pic16f877a.h"
   482                           T1CON equ 010h ;# 
   483  0010                     # 732 "C:\Program Files (x86)\Microchip\xc8\v2.00\pic\include\pic16f877a.h"
   484                           TMR2 equ 011h ;# 
   485  0011                     # 739 "C:\Program Files (x86)\Microchip\xc8\v2.00\pic\include\pic16f877a.h"
   486                           T2CON equ 012h ;# 
   487  0012                     # 810 "C:\Program Files (x86)\Microchip\xc8\v2.00\pic\include\pic16f877a.h"
   488                           SSPBUF equ 013h ;# 
   489  0013                     # 817 "C:\Program Files (x86)\Microchip\xc8\v2.00\pic\include\pic16f877a.h"
   490                           SSPCON equ 014h ;# 
   491  0014                     # 887 "C:\Program Files (x86)\Microchip\xc8\v2.00\pic\include\pic16f877a.h"
   492                           CCPR1 equ 015h ;# 
   493  0015                     # 894 "C:\Program Files (x86)\Microchip\xc8\v2.00\pic\include\pic16f877a.h"
   494                           CCPR1L equ 015h ;# 
   495  0015                     # 901 "C:\Program Files (x86)\Microchip\xc8\v2.00\pic\include\pic16f877a.h"
   496                           CCPR1H equ 016h ;# 
   497  0016                     # 908 "C:\Program Files (x86)\Microchip\xc8\v2.00\pic\include\pic16f877a.h"
   498                           CCP1CON equ 017h ;# 
   499  0017                     # 966 "C:\Program Files (x86)\Microchip\xc8\v2.00\pic\include\pic16f877a.h"
   500                           RCSTA equ 018h ;# 
   501  0018                     # 1061 "C:\Program Files (x86)\Microchip\xc8\v2.00\pic\include\pic16f877a.h"
   502                           TXREG equ 019h ;# 
   503  0019                     # 1068 "C:\Program Files (x86)\Microchip\xc8\v2.00\pic\include\pic16f877a.h"
   504                           RCREG equ 01Ah ;# 
   505  001A                     # 1075 "C:\Program Files (x86)\Microchip\xc8\v2.00\pic\include\pic16f877a.h"
   506                           CCPR2 equ 01Bh ;# 
   507  001B                     # 1082 "C:\Program Files (x86)\Microchip\xc8\v2.00\pic\include\pic16f877a.h"
   508                           CCPR2L equ 01Bh ;# 
   509  001B                     # 1089 "C:\Program Files (x86)\Microchip\xc8\v2.00\pic\include\pic16f877a.h"
   510                           CCPR2H equ 01Ch ;# 
   511  001C                     # 1096 "C:\Program Files (x86)\Microchip\xc8\v2.00\pic\include\pic16f877a.h"
   512                           CCP2CON equ 01Dh ;# 
   513  001D                     # 1154 "C:\Program Files (x86)\Microchip\xc8\v2.00\pic\include\pic16f877a.h"
   514                           ADRESH equ 01Eh ;# 
   515  001E                     # 1161 "C:\Program Files (x86)\Microchip\xc8\v2.00\pic\include\pic16f877a.h"
   516                           ADCON0 equ 01Fh ;# 
   517  001F                     # 1257 "C:\Program Files (x86)\Microchip\xc8\v2.00\pic\include\pic16f877a.h"
   518                           OPTION_REG equ 081h ;# 
   519  0081                     # 1327 "C:\Program Files (x86)\Microchip\xc8\v2.00\pic\include\pic16f877a.h"
   520                           TRISA equ 085h ;# 
   521  0085                     # 1377 "C:\Program Files (x86)\Microchip\xc8\v2.00\pic\include\pic16f877a.h"
   522                           TRISB equ 086h ;# 
   523  0086                     # 1439 "C:\Program Files (x86)\Microchip\xc8\v2.00\pic\include\pic16f877a.h"
   524                           TRISC equ 087h ;# 
   525  0087                     # 1501 "C:\Program Files (x86)\Microchip\xc8\v2.00\pic\include\pic16f877a.h"
   526                           TRISD equ 088h ;# 
   527  0088                     # 1563 "C:\Program Files (x86)\Microchip\xc8\v2.00\pic\include\pic16f877a.h"
   528                           TRISE equ 089h ;# 
   529  0089                     # 1620 "C:\Program Files (x86)\Microchip\xc8\v2.00\pic\include\pic16f877a.h"
   530                           PIE1 equ 08Ch ;# 
   531  008C                     # 1682 "C:\Program Files (x86)\Microchip\xc8\v2.00\pic\include\pic16f877a.h"
   532                           PIE2 equ 08Dh ;# 
   533  008D                     # 1722 "C:\Program Files (x86)\Microchip\xc8\v2.00\pic\include\pic16f877a.h"
   534                           PCON equ 08Eh ;# 
   535  008E                     # 1756 "C:\Program Files (x86)\Microchip\xc8\v2.00\pic\include\pic16f877a.h"
   536                           SSPCON2 equ 091h ;# 
   537  0091                     # 1818 "C:\Program Files (x86)\Microchip\xc8\v2.00\pic\include\pic16f877a.h"
   538                           PR2 equ 092h ;# 
   539  0092                     # 1825 "C:\Program Files (x86)\Microchip\xc8\v2.00\pic\include\pic16f877a.h"
   540                           SSPADD equ 093h ;# 
   541  0093                     # 1832 "C:\Program Files (x86)\Microchip\xc8\v2.00\pic\include\pic16f877a.h"
   542                           SSPSTAT equ 094h ;# 
   543  0094                     # 2001 "C:\Program Files (x86)\Microchip\xc8\v2.00\pic\include\pic16f877a.h"
   544                           TXSTA equ 098h ;# 
   545  0098                     # 2082 "C:\Program Files (x86)\Microchip\xc8\v2.00\pic\include\pic16f877a.h"
   546                           SPBRG equ 099h ;# 
   547  0099                     # 2089 "C:\Program Files (x86)\Microchip\xc8\v2.00\pic\include\pic16f877a.h"
   548                           CMCON equ 09Ch ;# 
   549  009C                     # 2159 "C:\Program Files (x86)\Microchip\xc8\v2.00\pic\include\pic16f877a.h"
   550                           CVRCON equ 09Dh ;# 
   551  009D                     # 2224 "C:\Program Files (x86)\Microchip\xc8\v2.00\pic\include\pic16f877a.h"
   552                           ADRESL equ 09Eh ;# 
   553  009E                     # 2231 "C:\Program Files (x86)\Microchip\xc8\v2.00\pic\include\pic16f877a.h"
   554                           ADCON1 equ 09Fh ;# 
   555  009F                     # 2290 "C:\Program Files (x86)\Microchip\xc8\v2.00\pic\include\pic16f877a.h"
   556                           EEDATA equ 010Ch ;# 
   557  010C                     # 2297 "C:\Program Files (x86)\Microchip\xc8\v2.00\pic\include\pic16f877a.h"
   558                           EEADR equ 010Dh ;# 
   559  010D                     # 2304 "C:\Program Files (x86)\Microchip\xc8\v2.00\pic\include\pic16f877a.h"
   560                           EEDATH equ 010Eh ;# 
   561  010E                     # 2311 "C:\Program Files (x86)\Microchip\xc8\v2.00\pic\include\pic16f877a.h"
   562                           EEADRH equ 010Fh ;# 
   563  010F                     # 2318 "C:\Program Files (x86)\Microchip\xc8\v2.00\pic\include\pic16f877a.h"
   564                           EECON1 equ 018Ch ;# 
   565  018C                     # 2363 "C:\Program Files (x86)\Microchip\xc8\v2.00\pic\include\pic16f877a.h"
   566                           EECON2 equ 018Dh ;# 
   567  018D                     	FNCALL	_main,_Initialization
   568                           	FNCALL	_main,_loop
   569                           	FNCALL	_main,_setup
   570                           	FNCALL	_setup,_SerialBegin
   571                           	FNCALL	_setup,_SerialRead
   572                           	FNCALL	_setup,_SerialWrite
   573                           	FNCALL	_setup,_USBegin
   574                           	FNCALL	_setup,_digitalWrite
   575                           	FNCALL	_setup,_pinMode
   576                           	FNCALL	_USBegin,_digitalWrite
   577                           	FNCALL	_USBegin,_pinMode
   578                           	FNCALL	_SerialBegin,___aldiv
   579                           	FNCALL	_loop,_ProcessCommand
   580                           	FNCALL	_loop,_SerialAvailable
   581                           	FNCALL	_loop,_SerialRead
   582                           	FNCALL	_loop,_SerialWrite
   583                           	FNCALL	_ProcessCommand,_PBRead
   584                           	FNCALL	_ProcessCommand,_USRead
   585                           	FNCALL	_ProcessCommand,_analogRead
   586                           	FNCALL	_ProcessCommand,_analogWrite
   587                           	FNCALL	_ProcessCommand,_digitalRead
   588                           	FNCALL	_ProcessCommand,_digitalWrite
   589                           	FNCALL	_ProcessCommand,_pinMode
   590                           	FNCALL	_USRead,___fldiv
   591                           	FNCALL	_USRead,___fltol
   592                           	FNCALL	_USRead,___xxtofl
   593                           	FNCALL	_USRead,_digitalRead
   594                           	FNCALL	_USRead,_digitalWrite
   595                           	FNCALL	_PBRead,_delay
   596                           	FNCALL	_Initialization,_PWMConfiguration
   597                           	FNROOT	_main
   598                           	global	_Echo
   599                           	global	_Trigger
   600                           	global	_LED
   601                           	global	_BufferLenght
   602                           psect	idataBANK0,class=CODE,space=0,delta=2,noexec
   603                           global __pidataBANK0
   604                           __pidataBANK0:
   605  0A79                     	file	"LIFPIC.c"
   606                           	line	32
   607                           
   608                           ;initializer for _Echo
   609                           	retlw	03h
   610  0A79  3403               	line	31
   611                           
   612                           ;initializer for _Trigger
   613                           	retlw	02h
   614  0A7A  3402               	line	26
   615                           
   616                           ;initializer for _LED
   617                           	retlw	0Eh
   618  0A7B  340E               	line	23
   619                           
   620                           ;initializer for _BufferLenght
   621                           	retlw	04h
   622  0A7C  3404               	global	_Informacion
   623                           	global	_Dato
   624                           	global	_DataEnviar
   625                           	global	_dada
   626                           	global	_Valor
   627                           	global	_Estado
   628                           	global	_RCREG
   629                           _RCREG	set	0x1A
   630  001A                     	global	_TXREG
   631                           _TXREG	set	0x19
   632  0019                     	global	_PORTEbits
   633                           _PORTEbits	set	0x9
   634  0009                     	global	_ADRESH
   635                           _ADRESH	set	0x1E
   636  001E                     	global	_ADCON0bits
   637                           _ADCON0bits	set	0x1F
   638  001F                     	global	_PORTAbits
   639                           _PORTAbits	set	0x5
   640  0005                     	global	_PORTDbits
   641                           _PORTDbits	set	0x8
   642  0008                     	global	_PORTBbits
   643                           _PORTBbits	set	0x6
   644  0006                     	global	_PORTCbits
   645                           _PORTCbits	set	0x7
   646  0007                     	global	_CCP2CON
   647                           _CCP2CON	set	0x1D
   648  001D                     	global	_CCP1CON
   649                           _CCP1CON	set	0x17
   650  0017                     	global	_CCPR1L
   651                           _CCPR1L	set	0x15
   652  0015                     	global	_CCPR2L
   653                           _CCPR2L	set	0x1B
   654  001B                     	global	_T2CON
   655                           _T2CON	set	0x12
   656  0012                     	global	_PORTE
   657                           _PORTE	set	0x9
   658  0009                     	global	_PORTC
   659                           _PORTC	set	0x7
   660  0007                     	global	_ADCON0
   661                           _ADCON0	set	0x1F
   662  001F                     	global	_TMR1L
   663                           _TMR1L	set	0xE
   664  000E                     	global	_TMR1H
   665                           _TMR1H	set	0xF
   666  000F                     	global	_T1CON
   667                           _T1CON	set	0x10
   668  0010                     	global	_PORTD
   669                           _PORTD	set	0x8
   670  0008                     	global	_PORTB
   671                           _PORTB	set	0x6
   672  0006                     	global	_RCIF
   673                           _RCIF	set	0x65
   674  0065                     	global	_TXIF
   675                           _TXIF	set	0x64
   676  0064                     	global	_OERR
   677                           _OERR	set	0xC1
   678  00C1                     	global	_FERR
   679                           _FERR	set	0xC2
   680  00C2                     	global	_CREN
   681                           _CREN	set	0xC4
   682  00C4                     	global	_SPEN
   683                           _SPEN	set	0xC7
   684  00C7                     	global	_CCP1Y
   685                           _CCP1Y	set	0xBC
   686  00BC                     	global	_CCP1X
   687                           _CCP1X	set	0xBD
   688  00BD                     	global	_CCP2Y
   689                           _CCP2Y	set	0xEC
   690  00EC                     	global	_CCP2X
   691                           _CCP2X	set	0xED
   692  00ED                     	global	_TMR1ON
   693                           _TMR1ON	set	0x80
   694  0080                     	global	_SPBRG
   695                           _SPBRG	set	0x99
   696  0099                     	global	_ADRESL
   697                           _ADRESL	set	0x9E
   698  009E                     	global	_TRISAbits
   699                           _TRISAbits	set	0x85
   700  0085                     	global	_TRISDbits
   701                           _TRISDbits	set	0x88
   702  0088                     	global	_TRISBbits
   703                           _TRISBbits	set	0x86
   704  0086                     	global	_TRISCbits
   705                           _TRISCbits	set	0x87
   706  0087                     	global	_PR2
   707                           _PR2	set	0x92
   708  0092                     	global	_TRISE
   709                           _TRISE	set	0x89
   710  0089                     	global	_TRISC
   711                           _TRISC	set	0x87
   712  0087                     	global	_ADCON1
   713                           _ADCON1	set	0x9F
   714  009F                     	global	_TRISD
   715                           _TRISD	set	0x88
   716  0088                     	global	_TRISB
   717                           _TRISB	set	0x86
   718  0086                     	global	_TRMT
   719                           _TRMT	set	0x4C1
   720  04C1                     	global	_TXEN
   721                           _TXEN	set	0x4C5
   722  04C5                     	global	_TRISC6
   723                           _TRISC6	set	0x43E
   724  043E                     	global	_TRISC7
   725                           _TRISC7	set	0x43F
   726  043F                     	global	_SYNC
   727                           _SYNC	set	0x4C4
   728  04C4                     	global	_BRGH
   729                           _BRGH	set	0x4C2
   730  04C2                     ; #config settings
   731                           global __CFG_FOSC$HS
   732                           __CFG_FOSC$HS equ 0x0
   733  0000                     global __CFG_WDTE$OFF
   734                           __CFG_WDTE$OFF equ 0x0
   735  0000                     global __CFG_PWRTE$OFF
   736                           __CFG_PWRTE$OFF equ 0x0
   737  0000                     global __CFG_BOREN$OFF
   738                           __CFG_BOREN$OFF equ 0x0
   739  0000                     global __CFG_LVP$ON
   740                           __CFG_LVP$ON equ 0x0
   741  0000                     global __CFG_CPD$OFF
   742                           __CFG_CPD$OFF equ 0x0
   743  0000                     global __CFG_WRT$OFF
   744                           __CFG_WRT$OFF equ 0x0
   745  0000                     global __CFG_CP$OFF
   746                           __CFG_CP$OFF equ 0x0
   747  0000                     	file	"C:\Users\TONCHE~1\AppData\Local\Temp\s69g."
   748                           	line	#
   749                           psect cinit,class=CODE,delta=2
   750                           global start_initialization
   751                           start_initialization:
   752  07D6                     
   753                           global __initialization
   754                           __initialization:
   755  07D6                     psect	bssBANK0,class=BANK0,space=1,noexec
   756                           global __pbssBANK0
   757                           __pbssBANK0:
   758  005B                     _Informacion:
   759  005B                            ds      4
   760  005B                     
   761                           _buffer:
   762  005F                            ds      2
   763  005F                     
   764                           _Dato:
   765  0061                            ds      2
   766  0061                     
   767                           _DataEnviar:
   768  0063                            ds      2
   769  0063                     
   770                           _dada:
   771  0065                            ds      1
   772  0065                     
   773                           _Valor:
   774  0066                            ds      1
   775  0066                     
   776                           _Val:
   777  0067                            ds      1
   778  0067                     
   779                           _Estado:
   780  0068                            ds      1
   781  0068                     
   782                           psect	dataBANK0,class=BANK0,space=1,noexec
   783                           global __pdataBANK0
   784                           __pdataBANK0:
   785  0069                     	file	"LIFPIC.c"
   786                           	line	32
   787                           _Echo:
   788  0069                            ds      1
   789  0069                     
   790                           psect	dataBANK0
   791                           	file	"LIFPIC.c"
   792                           	line	31
   793                           _Trigger:
   794  006A                            ds      1
   795  006A                     
   796                           psect	dataBANK0
   797                           	file	"LIFPIC.c"
   798                           	line	26
   799                           _LED:
   800  006B                            ds      1
   801  006B                     
   802                           psect	dataBANK0
   803                           	file	"LIFPIC.c"
   804                           	line	23
   805                           _BufferLenght:
   806  006C                            ds      1
   807  006C                     
   808                           	file	"C:\Users\TONCHE~1\AppData\Local\Temp\s69g."
   809                           	line	#
   810                           ; Initialize objects allocated to BANK0
   811                           	global __pidataBANK0
   812                           psect cinit,class=CODE,delta=2,merge=1
   813                           	fcall	__pidataBANK0+0		;fetch initializer
   814  07D6  120A  158A  2279  120A  118A  	movwf	__pdataBANK0+0&07fh		
   815  07DB  00E9               	fcall	__pidataBANK0+1		;fetch initializer
   816  07DC  120A  158A  227A  120A  118A  	movwf	__pdataBANK0+1&07fh		
   817  07E1  00EA               	fcall	__pidataBANK0+2		;fetch initializer
   818  07E2  120A  158A  227B  120A  118A  	movwf	__pdataBANK0+2&07fh		
   819  07E7  00EB               	fcall	__pidataBANK0+3		;fetch initializer
   820  07E8  120A  158A  227C  120A  118A  	movwf	__pdataBANK0+3&07fh		
   821  07ED  00EC               	line	#
   822                           ; Clear objects allocated to BANK0
   823                           psect cinit,class=CODE,delta=2,merge=1
   824                           	clrf	((__pbssBANK0)+0)&07Fh
   825  07EE  01DB               	clrf	((__pbssBANK0)+1)&07Fh
   826  07EF  01DC               	clrf	((__pbssBANK0)+2)&07Fh
   827  07F0  01DD               	clrf	((__pbssBANK0)+3)&07Fh
   828  07F1  01DE               	clrf	((__pbssBANK0)+4)&07Fh
   829  07F2  01DF               	clrf	((__pbssBANK0)+5)&07Fh
   830  07F3  01E0               	clrf	((__pbssBANK0)+6)&07Fh
   831  07F4  01E1               	clrf	((__pbssBANK0)+7)&07Fh
   832  07F5  01E2               	clrf	((__pbssBANK0)+8)&07Fh
   833  07F6  01E3               	clrf	((__pbssBANK0)+9)&07Fh
   834  07F7  01E4               	clrf	((__pbssBANK0)+10)&07Fh
   835  07F8  01E5               	clrf	((__pbssBANK0)+11)&07Fh
   836  07F9  01E6               	clrf	((__pbssBANK0)+12)&07Fh
   837  07FA  01E7               	clrf	((__pbssBANK0)+13)&07Fh
   838  07FB  01E8               psect cinit,class=CODE,delta=2,merge=1
   839                           global end_of_initialization,__end_of__initialization
   840                           
   841                           ;End of C runtime variable initialization code
   842                           
   843                           end_of_initialization:
   844  07FC                     __end_of__initialization:
   845  07FC                     clrf status
   846  07FC  0183               ljmp _main	;jump to C main() function
   847  07FD  120A  158A  2A94   psect	cstackCOMMON,class=COMMON,space=1,noexec
   848                           global __pcstackCOMMON
   849                           __pcstackCOMMON:
   850  0070                     ?_pinMode:	; 1 bytes @ 0x0
   851  0070                     ?_digitalWrite:	; 1 bytes @ 0x0
   852  0070                     ?_SerialRead:	; 1 bytes @ 0x0
   853  0070                     ??_SerialRead:	; 1 bytes @ 0x0
   854  0070                     ?_SerialWrite:	; 1 bytes @ 0x0
   855  0070                     ??_SerialWrite:	; 1 bytes @ 0x0
   856  0070                     ?_SerialAvailable:	; 1 bytes @ 0x0
   857  0070                     ??_SerialAvailable:	; 1 bytes @ 0x0
   858  0070                     ?_digitalRead:	; 1 bytes @ 0x0
   859  0070                     ??_digitalRead:	; 1 bytes @ 0x0
   860  0070                     ?_analogWrite:	; 1 bytes @ 0x0
   861  0070                     ?_PBRead:	; 1 bytes @ 0x0
   862  0070                     ?_Initialization:	; 1 bytes @ 0x0
   863  0070                     ??_Initialization:	; 1 bytes @ 0x0
   864  0070                     ?_PWMConfiguration:	; 1 bytes @ 0x0
   865  0070                     ??_PWMConfiguration:	; 1 bytes @ 0x0
   866  0070                     ?_delay:	; 1 bytes @ 0x0
   867  0070                     ?_setup:	; 1 bytes @ 0x0
   868  0070                     ?_loop:	; 1 bytes @ 0x0
   869  0070                     	global	?_analogRead
   870                           ?_analogRead:	; 2 bytes @ 0x0
   871  0070                     ?_main:	; 2 bytes @ 0x0
   872  0070                     	global	?___aldiv
   873                           ?___aldiv:	; 4 bytes @ 0x0
   874  0070                     	global	?___xxtofl
   875                           ?___xxtofl:	; 4 bytes @ 0x0
   876  0070                     	global	pinMode@mode
   877                           pinMode@mode:	; 1 bytes @ 0x0
   878  0070                     	global	digitalWrite@value
   879                           digitalWrite@value:	; 1 bytes @ 0x0
   880  0070                     	global	SerialWrite@dataWrite
   881                           SerialWrite@dataWrite:	; 1 bytes @ 0x0
   882  0070                     	global	_SerialAvailable$528
   883                           _SerialAvailable$528:	; 1 bytes @ 0x0
   884  0070                     	global	analogWrite@value
   885                           analogWrite@value:	; 2 bytes @ 0x0
   886  0070                     	global	delay@milis
   887                           delay@milis:	; 2 bytes @ 0x0
   888  0070                     	global	___aldiv@divisor
   889                           ___aldiv@divisor:	; 4 bytes @ 0x0
   890  0070                     	global	___xxtofl@val
   891                           ___xxtofl@val:	; 4 bytes @ 0x0
   892  0070                     	ds	1
   893  0070                     ??_pinMode:	; 1 bytes @ 0x1
   894  0071                     ??_digitalWrite:	; 1 bytes @ 0x1
   895  0071                     	ds	1
   896  0071                     ??_analogRead:	; 1 bytes @ 0x2
   897  0072                     ??_analogWrite:	; 1 bytes @ 0x2
   898  0072                     ??_delay:	; 1 bytes @ 0x2
   899  0072                     	global	digitalRead@pin
   900                           digitalRead@pin:	; 1 bytes @ 0x2
   901  0072                     	ds	1
   902  0072                     	global	pinMode@pin
   903                           pinMode@pin:	; 1 bytes @ 0x3
   904  0073                     	global	digitalWrite@pin
   905                           digitalWrite@pin:	; 1 bytes @ 0x3
   906  0073                     	global	delay@j
   907                           delay@j:	; 2 bytes @ 0x3
   908  0073                     	ds	1
   909  0073                     ?_USBegin:	; 1 bytes @ 0x4
   910  0074                     ??___xxtofl:	; 1 bytes @ 0x4
   911  0074                     	global	USBegin@echo
   912                           USBegin@echo:	; 1 bytes @ 0x4
   913  0074                     	global	analogRead@channel
   914                           analogRead@channel:	; 1 bytes @ 0x4
   915  0074                     	global	analogWrite@pin
   916                           analogWrite@pin:	; 1 bytes @ 0x4
   917  0074                     	global	___aldiv@dividend
   918                           ___aldiv@dividend:	; 4 bytes @ 0x4
   919  0074                     	ds	1
   920  0074                     ??_USBegin:	; 1 bytes @ 0x5
   921  0075                     	global	USBegin@trigger
   922                           USBegin@trigger:	; 1 bytes @ 0x5
   923  0075                     	global	delay@i
   924                           delay@i:	; 2 bytes @ 0x5
   925  0075                     	ds	2
   926  0075                     ??_PBRead:	; 1 bytes @ 0x7
   927  0077                     	ds	1
   928  0077                     ??___aldiv:	; 1 bytes @ 0x8
   929  0078                     	global	___xxtofl@sign
   930                           ___xxtofl@sign:	; 1 bytes @ 0x8
   931  0078                     	ds	1
   932  0078                     ??_SerialBegin:	; 1 bytes @ 0x9
   933  0079                     	global	PBRead@pin
   934                           PBRead@pin:	; 1 bytes @ 0x9
   935  0079                     	global	___xxtofl@exp
   936                           ___xxtofl@exp:	; 1 bytes @ 0x9
   937  0079                     	ds	1
   938  0079                     	global	___xxtofl@arg
   939                           ___xxtofl@arg:	; 4 bytes @ 0xA
   940  007A                     	ds	3
   941  007A                     ??_setup:	; 1 bytes @ 0xD
   942  007D                     	ds	1
   943  007D                     ??_main:	; 1 bytes @ 0xE
   944  007E                     psect	cstackBANK0,class=BANK0,space=1,noexec
   945                           global __pcstackBANK0
   946                           __pcstackBANK0:
   947  0020                     	global	?___fldiv
   948                           ?___fldiv:	; 4 bytes @ 0x0
   949  0020                     	global	___aldiv@counter
   950                           ___aldiv@counter:	; 1 bytes @ 0x0
   951  0020                     	global	___fldiv@a
   952                           ___fldiv@a:	; 4 bytes @ 0x0
   953  0020                     	ds	1
   954  0020                     	global	___aldiv@sign
   955                           ___aldiv@sign:	; 1 bytes @ 0x1
   956  0021                     	ds	1
   957  0021                     	global	___aldiv@quotient
   958                           ___aldiv@quotient:	; 4 bytes @ 0x2
   959  0022                     	ds	2
   960  0022                     	global	___fldiv@b
   961                           ___fldiv@b:	; 4 bytes @ 0x4
   962  0024                     	ds	2
   963  0024                     ?_SerialBegin:	; 1 bytes @ 0x6
   964  0026                     	global	SerialBegin@BaudRate
   965                           SerialBegin@BaudRate:	; 4 bytes @ 0x6
   966  0026                     	ds	2
   967  0026                     ??___fldiv:	; 1 bytes @ 0x8
   968  0028                     	ds	2
   969  0028                     	global	SerialBegin@x
   970                           SerialBegin@x:	; 2 bytes @ 0xA
   971  002A                     	ds	3
   972  002A                     	global	___fldiv@rem
   973                           ___fldiv@rem:	; 4 bytes @ 0xD
   974  002D                     	ds	4
   975  002D                     	global	___fldiv@sign
   976                           ___fldiv@sign:	; 1 bytes @ 0x11
   977  0031                     	ds	1
   978  0031                     	global	___fldiv@new_exp
   979                           ___fldiv@new_exp:	; 2 bytes @ 0x12
   980  0032                     	ds	2
   981  0032                     	global	___fldiv@grs
   982                           ___fldiv@grs:	; 4 bytes @ 0x14
   983  0034                     	ds	4
   984  0034                     	global	___fldiv@bexp
   985                           ___fldiv@bexp:	; 1 bytes @ 0x18
   986  0038                     	ds	1
   987  0038                     	global	___fldiv@aexp
   988                           ___fldiv@aexp:	; 1 bytes @ 0x19
   989  0039                     	ds	1
   990  0039                     	global	?___fltol
   991                           ?___fltol:	; 4 bytes @ 0x1A
   992  003A                     	global	___fltol@f1
   993                           ___fltol@f1:	; 4 bytes @ 0x1A
   994  003A                     	ds	4
   995  003A                     ??___fltol:	; 1 bytes @ 0x1E
   996  003E                     	ds	5
   997  003E                     	global	___fltol@sign1
   998                           ___fltol@sign1:	; 1 bytes @ 0x23
   999  0043                     	ds	1
  1000  0043                     	global	___fltol@exp1
  1001                           ___fltol@exp1:	; 1 bytes @ 0x24
  1002  0044                     	ds	1
  1003  0044                     	global	?_USRead
  1004                           ?_USRead:	; 2 bytes @ 0x25
  1005  0045                     	global	USRead@echo
  1006                           USRead@echo:	; 1 bytes @ 0x25
  1007  0045                     	ds	2
  1008  0045                     ??_USRead:	; 1 bytes @ 0x27
  1009  0047                     	ds	2
  1010  0047                     	global	USRead@buffer
  1011                           USRead@buffer:	; 2 bytes @ 0x29
  1012  0049                     	ds	2
  1013  0049                     	global	USRead@trigger
  1014                           USRead@trigger:	; 1 bytes @ 0x2B
  1015  004B                     	ds	1
  1016  004B                     	global	?_ProcessCommand
  1017                           ?_ProcessCommand:	; 2 bytes @ 0x2C
  1018  004C                     	global	ProcessCommand@port
  1019                           ProcessCommand@port:	; 1 bytes @ 0x2C
  1020  004C                     	ds	1
  1021  004C                     	global	ProcessCommand@MSBData
  1022                           ProcessCommand@MSBData:	; 1 bytes @ 0x2D
  1023  004D                     	ds	1
  1024  004D                     	global	ProcessCommand@LSBData
  1025                           ProcessCommand@LSBData:	; 1 bytes @ 0x2E
  1026  004E                     	ds	1
  1027  004E                     ??_ProcessCommand:	; 1 bytes @ 0x2F
  1028  004F                     	ds	2
  1029  004F                     	global	ProcessCommand@instruction
  1030                           ProcessCommand@instruction:	; 1 bytes @ 0x31
  1031  0051                     	ds	1
  1032  0051                     	global	ProcessCommand@data
  1033                           ProcessCommand@data:	; 2 bytes @ 0x32
  1034  0052                     	ds	2
  1035  0052                     ??_loop:	; 1 bytes @ 0x34
  1036  0054                     	ds	3
  1037  0054                     	global	loop@i
  1038                           loop@i:	; 2 bytes @ 0x37
  1039  0057                     	ds	2
  1040  0057                     	global	loop@j
  1041                           loop@j:	; 2 bytes @ 0x39
  1042  0059                     	ds	2
  1043  0059                     ;!
  1044                           ;!Data Sizes:
  1045                           ;!    Strings     0
  1046                           ;!    Constant    0
  1047                           ;!    Data        4
  1048                           ;!    BSS         14
  1049                           ;!    Persistent  0
  1050                           ;!    Stack       0
  1051                           ;!
  1052                           ;!Auto Spaces:
  1053                           ;!    Space          Size  Autos    Used
  1054                           ;!    COMMON           14     14      14
  1055                           ;!    BANK0            80     59      77
  1056                           ;!    BANK1            80      0       0
  1057                           ;!    BANK3            96      0       0
  1058                           ;!    BANK2            96      0       0
  1059                           
  1060                           ;!
  1061                           ;!Pointer List with Targets:
  1062                           ;!
  1063                           ;!    None.
  1064                           
  1065                           
  1066                           ;!
  1067                           ;!Critical Paths under _main in COMMON
  1068                           ;!
  1069                           ;!    _main->_setup
  1070                           ;!    _setup->_SerialBegin
  1071                           ;!    _USBegin->_digitalWrite
  1072                           ;!    _USBegin->_pinMode
  1073                           ;!    _SerialBegin->___aldiv
  1074                           ;!    _USRead->___xxtofl
  1075                           ;!    ___fltol->___xxtofl
  1076                           ;!    ___fldiv->___xxtofl
  1077                           ;!    _PBRead->_delay
  1078                           ;!
  1079                           ;!Critical Paths under _main in BANK0
  1080                           ;!
  1081                           ;!    _main->_loop
  1082                           ;!    _setup->_SerialBegin
  1083                           ;!    _SerialBegin->___aldiv
  1084                           ;!    _loop->_ProcessCommand
  1085                           ;!    _ProcessCommand->_USRead
  1086                           ;!    _USRead->___fltol
  1087                           ;!    ___fltol->___fldiv
  1088                           ;!
  1089                           ;!Critical Paths under _main in BANK1
  1090                           ;!
  1091                           ;!    None.
  1092                           ;!
  1093                           ;!Critical Paths under _main in BANK3
  1094                           ;!
  1095                           ;!    None.
  1096                           ;!
  1097                           ;!Critical Paths under _main in BANK2
  1098                           ;!
  1099                           ;!    None.
  1100                           
  1101 ;;
  1102 ;;Main: autosize = 0, tempsize = 0, incstack = 0, save=0
  1103 ;;
  1104                           
  1105                           ;!
  1106                           ;!Call Graph Tables:
  1107                           ;!
  1108                           ;! ---------------------------------------------------------------------------------
  1109                           ;! (Depth) Function   	        Calls       Base Space   Used Autos Params    Refs
  1110                           ;! ---------------------------------------------------------------------------------
  1111                           ;! (0) _main                                                 0     0      0   12101
  1112                           ;!                     _Initialization
  1113                           ;!                               _loop
  1114                           ;!                              _setup
  1115                           ;! ---------------------------------------------------------------------------------
  1116                           ;! (1) _setup                                                1     1      0    5068
  1117                           ;!                                             13 COMMON     1     1      0
  1118                           ;!                        _SerialBegin
  1119                           ;!                         _SerialRead
  1120                           ;!                        _SerialWrite
  1121                           ;!                            _USBegin
  1122                           ;!                       _digitalWrite
  1123                           ;!                            _pinMode
  1124                           ;! ---------------------------------------------------------------------------------
  1125                           ;! (2) _USBegin                                              2     1      1    2198
  1126                           ;!                                              4 COMMON     2     1      1
  1127                           ;!                       _digitalWrite
  1128                           ;!                            _pinMode
  1129                           ;! ---------------------------------------------------------------------------------
  1130                           ;! (2) _SerialBegin                                         10     6      4     792
  1131                           ;!                                              9 COMMON     4     4      0
  1132                           ;!                                              6 BANK0      6     2      4
  1133                           ;!                            ___aldiv
  1134                           ;! ---------------------------------------------------------------------------------
  1135                           ;! (3) ___aldiv                                             15     7      8     604
  1136                           ;!                                              0 COMMON     9     1      8
  1137                           ;!                                              0 BANK0      6     6      0
  1138                           ;! ---------------------------------------------------------------------------------
  1139                           ;! (1) _loop                                                 7     7      0    7033
  1140                           ;!                                             52 BANK0      7     7      0
  1141                           ;!                     _ProcessCommand
  1142                           ;!                    _SerialAvailable
  1143                           ;!                         _SerialRead
  1144                           ;!                        _SerialWrite
  1145                           ;! ---------------------------------------------------------------------------------
  1146                           ;! (2) _SerialWrite                                          1     1      0      22
  1147                           ;!                                              0 COMMON     1     1      0
  1148                           ;! ---------------------------------------------------------------------------------
  1149                           ;! (2) _SerialRead                                           0     0      0       0
  1150                           ;! ---------------------------------------------------------------------------------
  1151                           ;! (2) _SerialAvailable                                      1     1      0       8
  1152                           ;!                                              0 COMMON     1     1      0
  1153                           ;! ---------------------------------------------------------------------------------
  1154                           ;! (2) _ProcessCommand                                       8     5      3    6889
  1155                           ;!                                             44 BANK0      8     5      3
  1156                           ;!                             _PBRead
  1157                           ;!                             _USRead
  1158                           ;!                         _analogRead
  1159                           ;!                        _analogWrite
  1160                           ;!                        _digitalRead
  1161                           ;!                       _digitalWrite
  1162                           ;!                            _pinMode
  1163                           ;! ---------------------------------------------------------------------------------
  1164                           ;! (2) _pinMode                                              4     3      1     876
  1165                           ;!                                              0 COMMON     4     3      1
  1166                           ;! ---------------------------------------------------------------------------------
  1167                           ;! (3) _analogWrite                                          5     3      2     186
  1168                           ;!                                              0 COMMON     5     3      2
  1169                           ;! ---------------------------------------------------------------------------------
  1170                           ;! (3) _analogRead                                           5     3      2      22
  1171                           ;!                                              0 COMMON     5     3      2
  1172                           ;! ---------------------------------------------------------------------------------
  1173                           ;! (3) _USRead                                               7     5      2    3367
  1174                           ;!                                             37 BANK0      7     5      2
  1175                           ;!                            ___fldiv
  1176                           ;!                            ___fltol
  1177                           ;!                           ___xxtofl
  1178                           ;!                        _digitalRead
  1179                           ;!                       _digitalWrite
  1180                           ;! ---------------------------------------------------------------------------------
  1181                           ;! (2) _digitalWrite                                         4     3      1    1180
  1182                           ;!                                              0 COMMON     4     3      1
  1183                           ;! ---------------------------------------------------------------------------------
  1184                           ;! (3) _digitalRead                                          3     3      0      22
  1185                           ;!                                              0 COMMON     3     3      0
  1186                           ;! ---------------------------------------------------------------------------------
  1187                           ;! (4) ___xxtofl                                            14    10      4     398
  1188                           ;!                                              0 COMMON    14    10      4
  1189                           ;! ---------------------------------------------------------------------------------
  1190                           ;! (4) ___fltol                                             11     7      4     305
  1191                           ;!                                             26 BANK0     11     7      4
  1192                           ;!                            ___fldiv (ARG)
  1193                           ;!                           ___xxtofl (ARG)
  1194                           ;! ---------------------------------------------------------------------------------
  1195                           ;! (4) ___fldiv                                             26    18      8    1273
  1196                           ;!                                              0 BANK0     26    18      8
  1197                           ;!                           ___xxtofl (ARG)
  1198                           ;! ---------------------------------------------------------------------------------
  1199                           ;! (3) _PBRead                                               3     3      0     386
  1200                           ;!                                              7 COMMON     3     3      0
  1201                           ;!                              _delay
  1202                           ;! ---------------------------------------------------------------------------------
  1203                           ;! (4) _delay                                                7     5      2     364
  1204                           ;!                                              0 COMMON     7     5      2
  1205                           ;! ---------------------------------------------------------------------------------
  1206                           ;! (1) _Initialization                                       0     0      0       0
  1207                           ;!                   _PWMConfiguration
  1208                           ;! ---------------------------------------------------------------------------------
  1209                           ;! (2) _PWMConfiguration                                     0     0      0       0
  1210                           ;! ---------------------------------------------------------------------------------
  1211                           ;! Estimated maximum stack depth 4
  1212                           ;! ---------------------------------------------------------------------------------
  1213                           ;!
  1214                           ;! Call Graph Graphs:
  1215                           ;!
  1216                           ;! _main (ROOT)
  1217                           ;!   _Initialization
  1218                           ;!     _PWMConfiguration
  1219                           ;!   _loop
  1220                           ;!     _ProcessCommand
  1221                           ;!       _PBRead
  1222                           ;!         _delay
  1223                           ;!       _USRead
  1224                           ;!         ___fldiv
  1225                           ;!           ___xxtofl (ARG)
  1226                           ;!         ___fltol
  1227                           ;!           ___fldiv (ARG)
  1228                           ;!             ___xxtofl (ARG)
  1229                           ;!           ___xxtofl (ARG)
  1230                           ;!         ___xxtofl
  1231                           ;!         _digitalRead
  1232                           ;!         _digitalWrite
  1233                           ;!       _analogRead
  1234                           ;!       _analogWrite
  1235                           ;!       _digitalRead
  1236                           ;!       _digitalWrite
  1237                           ;!       _pinMode
  1238                           ;!     _SerialAvailable
  1239                           ;!     _SerialRead
  1240                           ;!     _SerialWrite
  1241                           ;!   _setup
  1242                           ;!     _SerialBegin
  1243                           ;!       ___aldiv
  1244                           ;!     _SerialRead
  1245                           ;!     _SerialWrite
  1246                           ;!     _USBegin
  1247                           ;!       _digitalWrite
  1248                           ;!       _pinMode
  1249                           ;!     _digitalWrite
  1250                           ;!     _pinMode
  1251                           ;!
  1252                           
  1253                           ;! Address spaces:
  1254                           
  1255                           ;!Name               Size   Autos  Total    Cost      Usage
  1256                           ;!BANK3               60      0       0       9        0.0%
  1257                           ;!BITBANK3            60      0       0       8        0.0%
  1258                           ;!SFR3                 0      0       0       4        0.0%
  1259                           ;!BITSFR3              0      0       0       4        0.0%
  1260                           ;!BANK2               60      0       0      11        0.0%
  1261                           ;!BITBANK2            60      0       0      10        0.0%
  1262                           ;!SFR2                 0      0       0       5        0.0%
  1263                           ;!BITSFR2              0      0       0       5        0.0%
  1264                           ;!BANK1               50      0       0       7        0.0%
  1265                           ;!BITBANK1            50      0       0       6        0.0%
  1266                           ;!SFR1                 0      0       0       2        0.0%
  1267                           ;!BITSFR1              0      0       0       2        0.0%
  1268                           ;!BANK0               50     3B      4D       5       96.3%
  1269                           ;!BITBANK0            50      0       0       4        0.0%
  1270                           ;!SFR0                 0      0       0       1        0.0%
  1271                           ;!BITSFR0              0      0       0       1        0.0%
  1272                           ;!COMMON               E      E       E       1      100.0%
  1273                           ;!BITCOMMON            E      0       0       0        0.0%
  1274                           ;!CODE                 0      0       0       0        0.0%
  1275                           ;!DATA                 0      0      5B      12        0.0%
  1276                           ;!ABS                  0      0      5B       3        0.0%
  1277                           ;!NULL                 0      0       0       0        0.0%
  1278                           ;!STACK                0      0       0       2        0.0%
  1279                           ;!EEDATA             100      0       0       0        0.0%
  1280                           
  1281                           	global	_main
  1282                           
  1283 ;; *************** function _main *****************
  1284 ;; Defined at:
  1285 ;;		line 3 in file "Hormiga877.c"
  1286 ;; Parameters:    Size  Location     Type
  1287 ;;		None
  1288 ;; Auto vars:     Size  Location     Type
  1289 ;;		None
  1290 ;; Return value:  Size  Location     Type
  1291 ;;                  2  258[None  ] int 
  1292 ;; Registers used:
  1293 ;;		wreg, fsr0l, fsr0h, status,2, status,0, btemp+1, pclath, cstack
  1294 ;; Tracked objects:
  1295 ;;		On entry : B00/0
  1296 ;;		On exit  : 0/0
  1297 ;;		Unchanged: 0/0
  1298 ;; Data sizes:     COMMON   BANK0   BANK1   BANK3   BANK2
  1299 ;;      Params:         0       0       0       0       0
  1300 ;;      Locals:         0       0       0       0       0
  1301 ;;      Temps:          0       0       0       0       0
  1302 ;;      Totals:         0       0       0       0       0
  1303 ;;Total ram usage:        0 bytes
  1304 ;; Hardware stack levels required when called:    4
  1305 ;; This function calls:
  1306 ;;		_Initialization
  1307 ;;		_loop
  1308 ;;		_setup
  1309 ;; This function is called by:
  1310 ;;		Startup code after reset
  1311 ;; This function uses a non-reentrant model
  1312 ;;
  1313                           psect	maintext,global,class=CODE,delta=2,split=1,group=0
  1314                           	file	"Hormiga877.c"
  1315                           	line	3
  1316                           global __pmaintext
  1317                           __pmaintext:	;psect for function _main
  1318  0A94                     psect	maintext
  1319                           	file	"Hormiga877.c"
  1320                           	line	3
  1321                           	global	__size_of_main
  1322                           	__size_of_main	equ	__end_of_main-_main
  1323  0014                     	
  1324                           _main:	
  1325  0A94                     ;incstack = 0
  1326                           	opt	stack 4
  1327                           ; Regs used in _main: [wreg-fsr0h+status,2+status,0+btemp+1+pclath+cstack]
  1328                           	line	5
  1329                           	
  1330                           l3323:	
  1331  0A94                     ;Hormiga877.c: 5:     Initialization();
  1332                           	fcall	_Initialization
  1333  0A94  120A  118A  2013  120A  158A  	line	6
  1334                           	
  1335                           l3325:	
  1336  0A99                     ;Hormiga877.c: 6:     setup();
  1337                           	fcall	_setup
  1338  0A99  120A  158A  2373  120A  158A  	goto	l3327
  1339  0A9E  2A9F               	line	7
  1340                           ;Hormiga877.c: 7:     for(;;)
  1341                           	
  1342                           l259:	
  1343  0A9F                     	line	9
  1344                           	
  1345                           l3327:	
  1346  0A9F                     ;Hormiga877.c: 8:     {;Hormiga877.c: 9:         loop();
  1347                           	fcall	_loop
  1348  0A9F  120A  118A  203F  120A  158A  	line	10
  1349                           ;Hormiga877.c: 10:     }
  1350                           	goto	l3327
  1351  0AA4  2A9F               	
  1352                           l260:	
  1353  0AA5                     	line	12
  1354                           ;Hormiga877.c: 11:     return 0;;	Return value of _main is never used
  1355                           	
  1356                           l261:	
  1357  0AA5                     	global	start
  1358                           	ljmp	start
  1359  0AA5  120A  118A  2800   	opt stack 0
  1360                           GLOBAL	__end_of_main
  1361                           	__end_of_main:
  1362  0AA8                     	signat	_main,90
  1363                           	global	_setup
  1364                           
  1365 ;; *************** function _setup *****************
  1366 ;; Defined at:
  1367 ;;		line 36 in file "LIFPIC.c"
  1368 ;; Parameters:    Size  Location     Type
  1369 ;;		None
  1370 ;; Auto vars:     Size  Location     Type
  1371 ;;		None
  1372 ;; Return value:  Size  Location     Type
  1373 ;;                  1    wreg      void 
  1374 ;; Registers used:
  1375 ;;		wreg, fsr0l, fsr0h, status,2, status,0, pclath, cstack
  1376 ;; Tracked objects:
  1377 ;;		On entry : 0/0
  1378 ;;		On exit  : 0/0
  1379 ;;		Unchanged: 0/0
  1380 ;; Data sizes:     COMMON   BANK0   BANK1   BANK3   BANK2
  1381 ;;      Params:         0       0       0       0       0
  1382 ;;      Locals:         0       0       0       0       0
  1383 ;;      Temps:          1       0       0       0       0
  1384 ;;      Totals:         1       0       0       0       0
  1385 ;;Total ram usage:        1 bytes
  1386 ;; Hardware stack levels used:    1
  1387 ;; Hardware stack levels required when called:    2
  1388 ;; This function calls:
  1389 ;;		_SerialBegin
  1390 ;;		_SerialRead
  1391 ;;		_SerialWrite
  1392 ;;		_USBegin
  1393 ;;		_digitalWrite
  1394 ;;		_pinMode
  1395 ;; This function is called by:
  1396 ;;		_main
  1397 ;; This function uses a non-reentrant model
  1398 ;;
  1399                           psect	text1,local,class=CODE,delta=2,merge=1,group=0
  1400                           	file	"LIFPIC.c"
  1401                           	line	36
  1402                           global __ptext1
  1403                           __ptext1:	;psect for function _setup
  1404  0B73                     psect	text1
  1405                           	file	"LIFPIC.c"
  1406                           	line	36
  1407                           	global	__size_of_setup
  1408                           	__size_of_setup	equ	__end_of_setup-_setup
  1409  0063                     	
  1410                           _setup:	
  1411  0B73                     ;incstack = 0
  1412                           	opt	stack 5
  1413                           ; Regs used in _setup: [wreg-fsr0h+status,2+status,0+pclath+cstack]
  1414                           	line	38
  1415                           	
  1416                           l3213:	
  1417  0B73                     ;LIFPIC.c: 38:  SerialBegin(9600);
  1418                           	movlw	0
  1419  0B73  3000               	bcf	status, 5	;RP0=0, select bank0
  1420  0B74  1283               	bcf	status, 6	;RP1=0, select bank0
  1421  0B75  1303               	movwf	(SerialBegin@BaudRate+3)
  1422  0B76  00A9               	movlw	0
  1423  0B77  3000               	movwf	(SerialBegin@BaudRate+2)
  1424  0B78  00A8               	movlw	025h
  1425  0B79  3025               	movwf	(SerialBegin@BaudRate+1)
  1426  0B7A  00A7               	movlw	080h
  1427  0B7B  3080               	movwf	(SerialBegin@BaudRate)
  1428  0B7C  00A6               
  1429                           	fcall	_SerialBegin
  1430  0B7D  120A  158A  25F3  120A  158A  	line	39
  1431                           	
  1432                           l3215:	
  1433  0B82                     ;LIFPIC.c: 39:     pinMode(LED,0);
  1434                           	clrf	(pinMode@mode)
  1435  0B82  01F0               	bcf	status, 5	;RP0=0, select bank0
  1436  0B83  1283               	bcf	status, 6	;RP1=0, select bank0
  1437  0B84  1303               	movf	(_LED),w
  1438  0B85  086B               	fcall	_pinMode
  1439  0B86  120A  118A  2126  120A  158A  	line	40
  1440                           	
  1441                           l3217:	
  1442  0B8B                     ;LIFPIC.c: 40:     USBegin(Trigger,Echo);
  1443                           	bcf	status, 5	;RP0=0, select bank0
  1444  0B8B  1283               	bcf	status, 6	;RP1=0, select bank0
  1445  0B8C  1303               	movf	(_Echo),w
  1446  0B8D  0869               	movwf	(??_setup+0)+0
  1447  0B8E  00FD               	movf	(??_setup+0)+0,w
  1448  0B8F  087D               	movwf	(USBegin@echo)
  1449  0B90  00F4               	movf	(_Trigger),w
  1450  0B91  086A               	fcall	_USBegin
  1451  0B92  120A  158A  22BF  120A  158A  	line	41
  1452                           ;LIFPIC.c: 41:  while(Valor != 1)
  1453                           	goto	l3231
  1454  0B97  2BC0               	
  1455                           l62:	
  1456  0B98                     	line	43
  1457                           	
  1458                           l3219:	
  1459  0B98                     ;LIFPIC.c: 42:  {;LIFPIC.c: 43:         digitalWrite(LED,1);
  1460                           	clrf	(digitalWrite@value)
  1461  0B98  01F0               	incf	(digitalWrite@value),f
  1462  0B99  0AF0               	bcf	status, 5	;RP0=0, select bank0
  1463  0B9A  1283               	bcf	status, 6	;RP1=0, select bank0
  1464  0B9B  1303               	movf	(_LED),w
  1465  0B9C  086B               	fcall	_digitalWrite
  1466  0B9D  120A  118A  2247  120A  158A  	line	44
  1467                           	
  1468                           l3221:	
  1469  0BA2                     ;LIFPIC.c: 44:         dada = SerialRead();
  1470                           	fcall	_SerialRead
  1471  0BA2  120A  158A  227D  120A  158A  	movwf	(??_setup+0)+0
  1472  0BA7  00FD               	movf	(??_setup+0)+0,w
  1473  0BA8  087D               	bcf	status, 5	;RP0=0, select bank0
  1474  0BA9  1283               	bcf	status, 6	;RP1=0, select bank0
  1475  0BAA  1303               	movwf	(_dada)
  1476  0BAB  00E5               	line	45
  1477                           	
  1478                           l3223:	
  1479  0BAC                     ;LIFPIC.c: 45:         SerialWrite('k');
  1480                           	movlw	low(06Bh)
  1481  0BAC  306B               	fcall	_SerialWrite
  1482  0BAD  120A  158A  2288  120A  158A  	line	46
  1483                           	
  1484                           l3225:	
  1485  0BB2                     ;LIFPIC.c: 46:         if(dada == 'k')
  1486                           		movlw	107
  1487  0BB2  306B               	bcf	status, 5	;RP0=0, select bank0
  1488  0BB3  1283               	bcf	status, 6	;RP1=0, select bank0
  1489  0BB4  1303               	xorwf	((_dada)),w
  1490  0BB5  0665               	btfss	status,2
  1491  0BB6  1D03               	goto	u2211
  1492  0BB7  2BB9               	goto	u2210
  1493  0BB8  2BBA               u2211:
  1494  0BB9                     	goto	l3229
  1495  0BB9  2BBD               u2210:
  1496  0BBA                     	line	48
  1497                           	
  1498                           l3227:	
  1499  0BBA                     ;LIFPIC.c: 47:         {;LIFPIC.c: 48:             Valor = 1;
  1500                           	clrf	(_Valor)
  1501  0BBA  01E6               	incf	(_Valor),f
  1502  0BBB  0AE6               	line	49
  1503                           ;LIFPIC.c: 49:         }
  1504                           	goto	l3231
  1505  0BBC  2BC0               	line	50
  1506                           ;LIFPIC.c: 50:         else
  1507                           	
  1508                           l63:	
  1509  0BBD                     	line	52
  1510                           	
  1511                           l3229:	
  1512  0BBD                     ;LIFPIC.c: 51:         {;LIFPIC.c: 52:             Valor = 0;
  1513                           	clrf	(_Valor)
  1514  0BBD  01E6               	goto	l3231
  1515  0BBE  2BC0               	line	53
  1516                           ;LIFPIC.c: 53:         }
  1517                           	
  1518                           l64:	
  1519  0BBF                     	goto	l3231
  1520  0BBF  2BC0               	line	54
  1521                           ;LIFPIC.c: 54:  }
  1522                           	
  1523                           l61:	
  1524  0BC0                     	line	41
  1525                           	
  1526                           l3231:	
  1527  0BC0                     ;LIFPIC.c: 41:  while(Valor != 1)
  1528                           	bcf	status, 5	;RP0=0, select bank0
  1529  0BC0  1283               	bcf	status, 6	;RP1=0, select bank0
  1530  0BC1  1303               		decf	((_Valor)),w
  1531  0BC2  0366               	btfss	status,2
  1532  0BC3  1D03               	goto	u2221
  1533  0BC4  2BC6               	goto	u2220
  1534  0BC5  2BC7               u2221:
  1535  0BC6                     	goto	l3219
  1536  0BC6  2B98               u2220:
  1537  0BC7                     	goto	l3233
  1538  0BC7  2BC8               	
  1539                           l65:	
  1540  0BC8                     	line	55
  1541                           	
  1542                           l3233:	
  1543  0BC8                     ;LIFPIC.c: 55:     Valor = 0;
  1544                           	clrf	(_Valor)
  1545  0BC8  01E6               	line	56
  1546                           ;LIFPIC.c: 56:     dada = 0;
  1547                           	clrf	(_dada)
  1548  0BC9  01E5               	line	57
  1549                           	
  1550                           l3235:	
  1551  0BCA                     ;LIFPIC.c: 57:     digitalWrite(LED,0);
  1552                           	clrf	(digitalWrite@value)
  1553  0BCA  01F0               	movf	(_LED),w
  1554  0BCB  086B               	fcall	_digitalWrite
  1555  0BCC  120A  118A  2247  120A  158A  	line	58
  1556                           	
  1557                           l3237:	
  1558  0BD1                     ;LIFPIC.c: 58:  Estado = Recibir;
  1559                           	bcf	status, 5	;RP0=0, select bank0
  1560  0BD1  1283               	bcf	status, 6	;RP1=0, select bank0
  1561  0BD2  1303               	clrf	(_Estado)
  1562  0BD3  01E8               	incf	(_Estado),f
  1563  0BD4  0AE8               	line	59
  1564                           	
  1565                           l66:	
  1566  0BD5                     	return
  1567  0BD5  0008               	opt stack 0
  1568                           GLOBAL	__end_of_setup
  1569                           	__end_of_setup:
  1570  0BD6                     	signat	_setup,89
  1571                           	global	_USBegin
  1572                           
  1573 ;; *************** function _USBegin *****************
  1574 ;; Defined at:
  1575 ;;		line 5 in file "Ultrasonico.c"
  1576 ;; Parameters:    Size  Location     Type
  1577 ;;  trigger         1    wreg     unsigned char 
  1578 ;;  echo            1    4[COMMON] unsigned char 
  1579 ;; Auto vars:     Size  Location     Type
  1580 ;;  trigger         1    5[COMMON] unsigned char 
  1581 ;; Return value:  Size  Location     Type
  1582 ;;                  1    wreg      void 
  1583 ;; Registers used:
  1584 ;;		wreg, fsr0l, fsr0h, status,2, status,0, pclath, cstack
  1585 ;; Tracked objects:
  1586 ;;		On entry : 0/0
  1587 ;;		On exit  : 0/0
  1588 ;;		Unchanged: 0/0
  1589 ;; Data sizes:     COMMON   BANK0   BANK1   BANK3   BANK2
  1590 ;;      Params:         1       0       0       0       0
  1591 ;;      Locals:         1       0       0       0       0
  1592 ;;      Temps:          0       0       0       0       0
  1593 ;;      Totals:         2       0       0       0       0
  1594 ;;Total ram usage:        2 bytes
  1595 ;; Hardware stack levels used:    1
  1596 ;; Hardware stack levels required when called:    1
  1597 ;; This function calls:
  1598 ;;		_digitalWrite
  1599 ;;		_pinMode
  1600 ;; This function is called by:
  1601 ;;		_setup
  1602 ;; This function uses a non-reentrant model
  1603 ;;
  1604                           psect	text2,local,class=CODE,delta=2,merge=1,group=0
  1605                           	file	"Ultrasonico.c"
  1606                           	line	5
  1607                           global __ptext2
  1608                           __ptext2:	;psect for function _USBegin
  1609  0ABF                     psect	text2
  1610                           	file	"Ultrasonico.c"
  1611                           	line	5
  1612                           	global	__size_of_USBegin
  1613                           	__size_of_USBegin	equ	__end_of_USBegin-_USBegin
  1614  001E                     	
  1615                           _USBegin:	
  1616  0ABF                     ;incstack = 0
  1617                           	opt	stack 5
  1618                           ; Regs used in _USBegin: [wreg-fsr0h+status,2+status,0+pclath+cstack]
  1619                           ;USBegin@trigger stored from wreg
  1620                           	movwf	(USBegin@trigger)
  1621  0ABF  00F5               	line	7
  1622                           	
  1623                           l3073:	
  1624  0AC0                     ;Ultrasonico.c: 5: void USBegin(char trigger, char echo);Ultrasonico.c: 6: {;Ultrasonico
                                 .c: 7:     T1CON = 0x30;
  1625                           	movlw	low(030h)
  1626  0AC0  3030               	bcf	status, 5	;RP0=0, select bank0
  1627  0AC1  1283               	bcf	status, 6	;RP1=0, select bank0
  1628  0AC2  1303               	movwf	(16)	;volatile
  1629  0AC3  0090               	line	8
  1630                           	
  1631                           l3075:	
  1632  0AC4                     ;Ultrasonico.c: 8:     TMR1H = 0x00;
  1633                           	clrf	(15)	;volatile
  1634  0AC4  018F               	line	9
  1635                           	
  1636                           l3077:	
  1637  0AC5                     ;Ultrasonico.c: 9:     TMR1L = 0x00;
  1638                           	clrf	(14)	;volatile
  1639  0AC5  018E               	line	10
  1640                           	
  1641                           l3079:	
  1642  0AC6                     ;Ultrasonico.c: 10:     pinMode(trigger, 0);
  1643                           	clrf	(pinMode@mode)
  1644  0AC6  01F0               	movf	(USBegin@trigger),w
  1645  0AC7  0875               	fcall	_pinMode
  1646  0AC8  120A  118A  2126  120A  158A  	line	11
  1647                           	
  1648                           l3081:	
  1649  0ACD                     ;Ultrasonico.c: 11:     digitalWrite(trigger,0);
  1650                           	clrf	(digitalWrite@value)
  1651  0ACD  01F0               	movf	(USBegin@trigger),w
  1652  0ACE  0875               	fcall	_digitalWrite
  1653  0ACF  120A  118A  2247  120A  158A  	line	12
  1654                           	
  1655                           l3083:	
  1656  0AD4                     ;Ultrasonico.c: 12:     pinMode(echo,1);
  1657                           	clrf	(pinMode@mode)
  1658  0AD4  01F0               	incf	(pinMode@mode),f
  1659  0AD5  0AF0               	movf	(USBegin@echo),w
  1660  0AD6  0874               	fcall	_pinMode
  1661  0AD7  120A  118A  2126  120A  158A  	line	13
  1662                           	
  1663                           l136:	
  1664  0ADC                     	return
  1665  0ADC  0008               	opt stack 0
  1666                           GLOBAL	__end_of_USBegin
  1667                           	__end_of_USBegin:
  1668  0ADD                     	signat	_USBegin,8313
  1669                           	global	_SerialBegin
  1670                           
  1671 ;; *************** function _SerialBegin *****************
  1672 ;; Defined at:
  1673 ;;		line 465 in file "Hormiga877.c"
  1674 ;; Parameters:    Size  Location     Type
  1675 ;;  BaudRate        4    6[BANK0 ] const long 
  1676 ;; Auto vars:     Size  Location     Type
  1677 ;;  x               2   10[BANK0 ] unsigned int 
  1678 ;; Return value:  Size  Location     Type
  1679 ;;                  1    wreg      unsigned char 
  1680 ;; Registers used:
  1681 ;;		wreg, status,2, status,0, pclath, cstack
  1682 ;; Tracked objects:
  1683 ;;		On entry : 0/0
  1684 ;;		On exit  : 0/0
  1685 ;;		Unchanged: 0/0
  1686 ;; Data sizes:     COMMON   BANK0   BANK1   BANK3   BANK2
  1687 ;;      Params:         0       4       0       0       0
  1688 ;;      Locals:         0       2       0       0       0
  1689 ;;      Temps:          4       0       0       0       0
  1690 ;;      Totals:         4       6       0       0       0
  1691 ;;Total ram usage:       10 bytes
  1692 ;; Hardware stack levels used:    1
  1693 ;; Hardware stack levels required when called:    1
  1694 ;; This function calls:
  1695 ;;		___aldiv
  1696 ;; This function is called by:
  1697 ;;		_setup
  1698 ;; This function uses a non-reentrant model
  1699 ;;
  1700                           psect	text3,local,class=CODE,delta=2,merge=1,group=0
  1701                           	file	"Hormiga877.c"
  1702                           	line	465
  1703                           global __ptext3
  1704                           __ptext3:	;psect for function _SerialBegin
  1705  0DF3                     psect	text3
  1706                           	file	"Hormiga877.c"
  1707                           	line	465
  1708                           	global	__size_of_SerialBegin
  1709                           	__size_of_SerialBegin	equ	__end_of_SerialBegin-_SerialBegin
  1710  00A5                     	
  1711                           _SerialBegin:	
  1712  0DF3                     ;incstack = 0
  1713                           	opt	stack 5
  1714                           ; Regs used in _SerialBegin: [wreg+status,2+status,0+pclath+cstack]
  1715                           	line	471
  1716                           	
  1717                           l3021:	
  1718  0DF3                     ;Hormiga877.c: 465: char SerialBegin(const long int BaudRate);Hormiga877.c: 466: {;Hormi
                                 ga877.c: 470:  unsigned int x;;Hormiga877.c: 471:  BRGH = 0;
  1719                           	bsf	status, 5	;RP0=1, select bank1
  1720  0DF3  1683               	bcf	status, 6	;RP1=0, select bank1
  1721  0DF4  1303               	bcf	(1218/8)^080h,(1218)&7	;volatile
  1722  0DF5  1118               	line	472
  1723                           	
  1724                           l3023:	
  1725  0DF6                     ;Hormiga877.c: 472:  x = (20000000 / (64 * BaudRate)) - 1;
  1726                           	bcf	status, 5	;RP0=0, select bank0
  1727  0DF6  1283               	bcf	status, 6	;RP1=0, select bank0
  1728  0DF7  1303               	movf	(SerialBegin@BaudRate),w
  1729  0DF8  0826               	movwf	(??_SerialBegin+0)+0
  1730  0DF9  00F9               	movf	(SerialBegin@BaudRate+1),w
  1731  0DFA  0827               	movwf	((??_SerialBegin+0)+0+1)
  1732  0DFB  00FA               	movf	(SerialBegin@BaudRate+2),w
  1733  0DFC  0828               	movwf	((??_SerialBegin+0)+0+2)
  1734  0DFD  00FB               	movf	(SerialBegin@BaudRate+3),w
  1735  0DFE  0829               	movwf	((??_SerialBegin+0)+0+3)
  1736  0DFF  00FC               	movlw	06h
  1737  0E00  3006               u2045:
  1738  0E01                     	clrc
  1739  0E01  1003               	rlf	(??_SerialBegin+0)+0,f
  1740  0E02  0DF9               	rlf	(??_SerialBegin+0)+1,f
  1741  0E03  0DFA               	rlf	(??_SerialBegin+0)+2,f
  1742  0E04  0DFB               	rlf	(??_SerialBegin+0)+3,f
  1743  0E05  0DFC               u2040:
  1744  0E06                     	addlw	-1
  1745  0E06  3EFF               	skipz
  1746  0E07  1D03               	goto	u2045
  1747  0E08  2E01               	movf	3+(??_SerialBegin+0)+0,w
  1748  0E09  087C               	movwf	(___aldiv@divisor+3)
  1749  0E0A  00F3               	movf	2+(??_SerialBegin+0)+0,w
  1750  0E0B  087B               	movwf	(___aldiv@divisor+2)
  1751  0E0C  00F2               	movf	1+(??_SerialBegin+0)+0,w
  1752  0E0D  087A               	movwf	(___aldiv@divisor+1)
  1753  0E0E  00F1               	movf	0+(??_SerialBegin+0)+0,w
  1754  0E0F  0879               	movwf	(___aldiv@divisor)
  1755  0E10  00F0               
  1756                           	movlw	01h
  1757  0E11  3001               	movwf	(___aldiv@dividend+3)
  1758  0E12  00F7               	movlw	031h
  1759  0E13  3031               	movwf	(___aldiv@dividend+2)
  1760  0E14  00F6               	movlw	02Dh
  1761  0E15  302D               	movwf	(___aldiv@dividend+1)
  1762  0E16  00F5               	movlw	0
  1763  0E17  3000               	movwf	(___aldiv@dividend)
  1764  0E18  00F4               
  1765                           	fcall	___aldiv
  1766  0E19  120A  158A  2698  120A  158A  	movf	(0+(?___aldiv)),w
  1767  0E1E  0870               	addlw	low(0FFFFh)
  1768  0E1F  3EFF               	bcf	status, 5	;RP0=0, select bank0
  1769  0E20  1283               	bcf	status, 6	;RP1=0, select bank0
  1770  0E21  1303               	movwf	(SerialBegin@x)
  1771  0E22  00AA               	movf	(1+(?___aldiv)),w
  1772  0E23  0871               	skipnc
  1773  0E24  1803               	addlw	1
  1774  0E25  3E01               	addlw	high(0FFFFh)
  1775  0E26  3EFF               	movwf	1+(SerialBegin@x)
  1776  0E27  00AB               	line	473
  1777                           	
  1778                           l3025:	
  1779  0E28                     ;Hormiga877.c: 473:  if(x > 255)
  1780                           	movlw	01h
  1781  0E28  3001               	subwf	(SerialBegin@x+1),w
  1782  0E29  022B               	movlw	0
  1783  0E2A  3000               	skipnz
  1784  0E2B  1903               	subwf	(SerialBegin@x),w
  1785  0E2C  022A               	skipc
  1786  0E2D  1C03               	goto	u2051
  1787  0E2E  2E30               	goto	u2050
  1788  0E2F  2E31               u2051:
  1789  0E30                     	goto	l3053
  1790  0E30  2E7F               u2050:
  1791  0E31                     	line	475
  1792                           	
  1793                           l3027:	
  1794  0E31                     ;Hormiga877.c: 474:  {;Hormiga877.c: 475:   BRGH = 1;
  1795                           	bsf	status, 5	;RP0=1, select bank1
  1796  0E31  1683               	bcf	status, 6	;RP1=0, select bank1
  1797  0E32  1303               	bsf	(1218/8)^080h,(1218)&7	;volatile
  1798  0E33  1518               	line	476
  1799                           	
  1800                           l3029:	
  1801  0E34                     ;Hormiga877.c: 476:   x = (20000000 / (16 * BaudRate)) - 1;
  1802                           	bcf	status, 5	;RP0=0, select bank0
  1803  0E34  1283               	bcf	status, 6	;RP1=0, select bank0
  1804  0E35  1303               	movf	(SerialBegin@BaudRate),w
  1805  0E36  0826               	movwf	(??_SerialBegin+0)+0
  1806  0E37  00F9               	movf	(SerialBegin@BaudRate+1),w
  1807  0E38  0827               	movwf	((??_SerialBegin+0)+0+1)
  1808  0E39  00FA               	movf	(SerialBegin@BaudRate+2),w
  1809  0E3A  0828               	movwf	((??_SerialBegin+0)+0+2)
  1810  0E3B  00FB               	movf	(SerialBegin@BaudRate+3),w
  1811  0E3C  0829               	movwf	((??_SerialBegin+0)+0+3)
  1812  0E3D  00FC               	movlw	04h
  1813  0E3E  3004               u2065:
  1814  0E3F                     	clrc
  1815  0E3F  1003               	rlf	(??_SerialBegin+0)+0,f
  1816  0E40  0DF9               	rlf	(??_SerialBegin+0)+1,f
  1817  0E41  0DFA               	rlf	(??_SerialBegin+0)+2,f
  1818  0E42  0DFB               	rlf	(??_SerialBegin+0)+3,f
  1819  0E43  0DFC               u2060:
  1820  0E44                     	addlw	-1
  1821  0E44  3EFF               	skipz
  1822  0E45  1D03               	goto	u2065
  1823  0E46  2E3F               	movf	3+(??_SerialBegin+0)+0,w
  1824  0E47  087C               	movwf	(___aldiv@divisor+3)
  1825  0E48  00F3               	movf	2+(??_SerialBegin+0)+0,w
  1826  0E49  087B               	movwf	(___aldiv@divisor+2)
  1827  0E4A  00F2               	movf	1+(??_SerialBegin+0)+0,w
  1828  0E4B  087A               	movwf	(___aldiv@divisor+1)
  1829  0E4C  00F1               	movf	0+(??_SerialBegin+0)+0,w
  1830  0E4D  0879               	movwf	(___aldiv@divisor)
  1831  0E4E  00F0               
  1832                           	movlw	01h
  1833  0E4F  3001               	movwf	(___aldiv@dividend+3)
  1834  0E50  00F7               	movlw	031h
  1835  0E51  3031               	movwf	(___aldiv@dividend+2)
  1836  0E52  00F6               	movlw	02Dh
  1837  0E53  302D               	movwf	(___aldiv@dividend+1)
  1838  0E54  00F5               	movlw	0
  1839  0E55  3000               	movwf	(___aldiv@dividend)
  1840  0E56  00F4               
  1841                           	fcall	___aldiv
  1842  0E57  120A  158A  2698  120A  158A  	movf	(0+(?___aldiv)),w
  1843  0E5C  0870               	addlw	low(0FFFFh)
  1844  0E5D  3EFF               	bcf	status, 5	;RP0=0, select bank0
  1845  0E5E  1283               	bcf	status, 6	;RP1=0, select bank0
  1846  0E5F  1303               	movwf	(SerialBegin@x)
  1847  0E60  00AA               	movf	(1+(?___aldiv)),w
  1848  0E61  0871               	skipnc
  1849  0E62  1803               	addlw	1
  1850  0E63  3E01               	addlw	high(0FFFFh)
  1851  0E64  3EFF               	movwf	1+(SerialBegin@x)
  1852  0E65  00AB               	line	477
  1853                           	
  1854                           l3031:	
  1855  0E66                     ;Hormiga877.c: 477:   SPBRG = x;
  1856                           	movf	(SerialBegin@x),w
  1857  0E66  082A               	bsf	status, 5	;RP0=1, select bank1
  1858  0E67  1683               	bcf	status, 6	;RP1=0, select bank1
  1859  0E68  1303               	movwf	(153)^080h	;volatile
  1860  0E69  0099               	line	478
  1861                           	
  1862                           l3033:	
  1863  0E6A                     ;Hormiga877.c: 478:   SYNC = 0;
  1864                           	bcf	(1220/8)^080h,(1220)&7	;volatile
  1865  0E6A  1218               	line	479
  1866                           	
  1867                           l3035:	
  1868  0E6B                     ;Hormiga877.c: 479:   SPEN = 1;
  1869                           	bcf	status, 5	;RP0=0, select bank0
  1870  0E6B  1283               	bcf	status, 6	;RP1=0, select bank0
  1871  0E6C  1303               	bsf	(199/8),(199)&7	;volatile
  1872  0E6D  1798               	line	480
  1873                           	
  1874                           l3037:	
  1875  0E6E                     ;Hormiga877.c: 480:   TRISC7 = 1;
  1876                           	bsf	status, 5	;RP0=1, select bank1
  1877  0E6E  1683               	bcf	status, 6	;RP1=0, select bank1
  1878  0E6F  1303               	bsf	(1087/8)^080h,(1087)&7	;volatile
  1879  0E70  1787               	line	481
  1880                           	
  1881                           l3039:	
  1882  0E71                     ;Hormiga877.c: 481:   TRISC6 = 1;
  1883                           	bsf	(1086/8)^080h,(1086)&7	;volatile
  1884  0E71  1707               	line	482
  1885                           	
  1886                           l3041:	
  1887  0E72                     ;Hormiga877.c: 482:   CREN = 1;
  1888                           	bcf	status, 5	;RP0=0, select bank0
  1889  0E72  1283               	bcf	status, 6	;RP1=0, select bank0
  1890  0E73  1303               	bsf	(196/8),(196)&7	;volatile
  1891  0E74  1618               	line	483
  1892                           	
  1893                           l3043:	
  1894  0E75                     ;Hormiga877.c: 483:   TXEN = 1;
  1895                           	bsf	status, 5	;RP0=1, select bank1
  1896  0E75  1683               	bcf	status, 6	;RP1=0, select bank1
  1897  0E76  1303               	bsf	(1221/8)^080h,(1221)&7	;volatile
  1898  0E77  1698               	line	484
  1899                           	
  1900                           l3045:	
  1901  0E78                     ;Hormiga877.c: 484:         TXREG = 0x00;
  1902                           	bcf	status, 5	;RP0=0, select bank0
  1903  0E78  1283               	bcf	status, 6	;RP1=0, select bank0
  1904  0E79  1303               	clrf	(25)	;volatile
  1905  0E7A  0199               	line	485
  1906                           	
  1907                           l3047:	
  1908  0E7B                     ;Hormiga877.c: 485:         RCREG = 0x00;
  1909                           	clrf	(26)	;volatile
  1910  0E7B  019A               	goto	l410
  1911  0E7C  2E97               	line	486
  1912                           	
  1913                           l3049:	
  1914  0E7D                     ;Hormiga877.c: 486:   return 0;;	Return value of _SerialBegin is never used
  1915                           	goto	l410
  1916  0E7D  2E97               	line	487
  1917                           	
  1918                           l3051:	
  1919  0E7E                     ;Hormiga877.c: 487:  }
  1920                           	goto	l410
  1921  0E7E  2E97               	line	488
  1922                           ;Hormiga877.c: 488:  else
  1923                           	
  1924                           l409:	
  1925  0E7F                     	line	490
  1926                           	
  1927                           l3053:	
  1928  0E7F                     ;Hormiga877.c: 489:  {;Hormiga877.c: 490:   SPBRG = x;
  1929                           	movf	(SerialBegin@x),w
  1930  0E7F  082A               	bsf	status, 5	;RP0=1, select bank1
  1931  0E80  1683               	bcf	status, 6	;RP1=0, select bank1
  1932  0E81  1303               	movwf	(153)^080h	;volatile
  1933  0E82  0099               	line	491
  1934                           	
  1935                           l3055:	
  1936  0E83                     ;Hormiga877.c: 491:   SYNC = 0;
  1937                           	bcf	(1220/8)^080h,(1220)&7	;volatile
  1938  0E83  1218               	line	492
  1939                           	
  1940                           l3057:	
  1941  0E84                     ;Hormiga877.c: 492:   SPEN = 1;
  1942                           	bcf	status, 5	;RP0=0, select bank0
  1943  0E84  1283               	bcf	status, 6	;RP1=0, select bank0
  1944  0E85  1303               	bsf	(199/8),(199)&7	;volatile
  1945  0E86  1798               	line	493
  1946                           	
  1947                           l3059:	
  1948  0E87                     ;Hormiga877.c: 493:   TRISC7 = 1;
  1949                           	bsf	status, 5	;RP0=1, select bank1
  1950  0E87  1683               	bcf	status, 6	;RP1=0, select bank1
  1951  0E88  1303               	bsf	(1087/8)^080h,(1087)&7	;volatile
  1952  0E89  1787               	line	494
  1953                           	
  1954                           l3061:	
  1955  0E8A                     ;Hormiga877.c: 494:   TRISC6 = 1;
  1956                           	bsf	(1086/8)^080h,(1086)&7	;volatile
  1957  0E8A  1707               	line	495
  1958                           	
  1959                           l3063:	
  1960  0E8B                     ;Hormiga877.c: 495:   CREN = 1;
  1961                           	bcf	status, 5	;RP0=0, select bank0
  1962  0E8B  1283               	bcf	status, 6	;RP1=0, select bank0
  1963  0E8C  1303               	bsf	(196/8),(196)&7	;volatile
  1964  0E8D  1618               	line	496
  1965                           	
  1966                           l3065:	
  1967  0E8E                     ;Hormiga877.c: 496:   TXEN = 1;
  1968                           	bsf	status, 5	;RP0=1, select bank1
  1969  0E8E  1683               	bcf	status, 6	;RP1=0, select bank1
  1970  0E8F  1303               	bsf	(1221/8)^080h,(1221)&7	;volatile
  1971  0E90  1698               	line	497
  1972                           	
  1973                           l3067:	
  1974  0E91                     ;Hormiga877.c: 497:         TXREG = 0x00;
  1975                           	bcf	status, 5	;RP0=0, select bank0
  1976  0E91  1283               	bcf	status, 6	;RP1=0, select bank0
  1977  0E92  1303               	clrf	(25)	;volatile
  1978  0E93  0199               	line	498
  1979                           	
  1980                           l3069:	
  1981  0E94                     ;Hormiga877.c: 498:         RCREG = 0x00;
  1982                           	clrf	(26)	;volatile
  1983  0E94  019A               	goto	l410
  1984  0E95  2E97               	line	499
  1985                           	
  1986                           l3071:	
  1987  0E96                     ;Hormiga877.c: 499:   return 1;;	Return value of _SerialBegin is never used
  1988                           	goto	l410
  1989  0E96  2E97               	line	500
  1990                           ;Hormiga877.c: 500:  }
  1991                           	
  1992                           l411:	
  1993  0E97                     	line	501
  1994                           	
  1995                           l410:	
  1996  0E97                     	return
  1997  0E97  0008               	opt stack 0
  1998                           GLOBAL	__end_of_SerialBegin
  1999                           	__end_of_SerialBegin:
  2000  0E98                     	signat	_SerialBegin,4217
  2001                           	global	___aldiv
  2002                           
  2003 ;; *************** function ___aldiv *****************
  2004 ;; Defined at:
  2005 ;;		line 5 in file "C:\Program Files (x86)\Microchip\xc8\v2.00\pic\sources\c90\common\aldiv.c"
  2006 ;; Parameters:    Size  Location     Type
  2007 ;;  divisor         4    0[COMMON] long 
  2008 ;;  dividend        4    4[COMMON] long 
  2009 ;; Auto vars:     Size  Location     Type
  2010 ;;  quotient        4    2[BANK0 ] long 
  2011 ;;  sign            1    1[BANK0 ] unsigned char 
  2012 ;;  counter         1    0[BANK0 ] unsigned char 
  2013 ;; Return value:  Size  Location     Type
  2014 ;;                  4    0[COMMON] long 
  2015 ;; Registers used:
  2016 ;;		wreg, status,2, status,0
  2017 ;; Tracked objects:
  2018 ;;		On entry : 0/0
  2019 ;;		On exit  : 0/0
  2020 ;;		Unchanged: 0/0
  2021 ;; Data sizes:     COMMON   BANK0   BANK1   BANK3   BANK2
  2022 ;;      Params:         8       0       0       0       0
  2023 ;;      Locals:         0       6       0       0       0
  2024 ;;      Temps:          1       0       0       0       0
  2025 ;;      Totals:         9       6       0       0       0
  2026 ;;Total ram usage:       15 bytes
  2027 ;; Hardware stack levels used:    1
  2028 ;; This function calls:
  2029 ;;		Nothing
  2030 ;; This function is called by:
  2031 ;;		_SerialBegin
  2032 ;; This function uses a non-reentrant model
  2033 ;;
  2034                           psect	text4,local,class=CODE,delta=2,merge=1,group=1
  2035                           	file	"C:\Program Files (x86)\Microchip\xc8\v2.00\pic\sources\c90\common\aldiv.c"
  2036                           	line	5
  2037                           global __ptext4
  2038                           __ptext4:	;psect for function ___aldiv
  2039  0E98                     psect	text4
  2040                           	file	"C:\Program Files (x86)\Microchip\xc8\v2.00\pic\sources\c90\common\aldiv.c"
  2041                           	line	5
  2042                           	global	__size_of___aldiv
  2043                           	__size_of___aldiv	equ	__end_of___aldiv-___aldiv
  2044  00A6                     	
  2045                           ___aldiv:	
  2046  0E98                     ;incstack = 0
  2047                           	opt	stack 5
  2048                           ; Regs used in ___aldiv: [wreg+status,2+status,0]
  2049                           	line	13
  2050                           	
  2051                           l2981:	
  2052  0E98                     	bcf	status, 5	;RP0=0, select bank0
  2053  0E98  1283               	bcf	status, 6	;RP1=0, select bank0
  2054  0E99  1303               	clrf	(___aldiv@sign)
  2055  0E9A  01A1               	line	14
  2056                           	
  2057                           l2983:	
  2058  0E9B                     	btfss	(___aldiv@divisor+3),7
  2059  0E9B  1FF3               	goto	u1941
  2060  0E9C  2E9E               	goto	u1940
  2061  0E9D  2E9F               u1941:
  2062  0E9E                     	goto	l631
  2063  0E9E  2EAC               u1940:
  2064  0E9F                     	line	15
  2065                           	
  2066                           l2985:	
  2067  0E9F                     	comf	(___aldiv@divisor),f
  2068  0E9F  09F0               	comf	(___aldiv@divisor+1),f
  2069  0EA0  09F1               	comf	(___aldiv@divisor+2),f
  2070  0EA1  09F2               	comf	(___aldiv@divisor+3),f
  2071  0EA2  09F3               	incf	(___aldiv@divisor),f
  2072  0EA3  0AF0               	skipnz
  2073  0EA4  1903               	incf	(___aldiv@divisor+1),f
  2074  0EA5  0AF1               	skipnz
  2075  0EA6  1903               	incf	(___aldiv@divisor+2),f
  2076  0EA7  0AF2               	skipnz
  2077  0EA8  1903               	incf	(___aldiv@divisor+3),f
  2078  0EA9  0AF3               	line	16
  2079                           	clrf	(___aldiv@sign)
  2080  0EAA  01A1               	incf	(___aldiv@sign),f
  2081  0EAB  0AA1               	line	17
  2082                           	
  2083                           l631:	
  2084  0EAC                     	line	18
  2085                           	btfss	(___aldiv@dividend+3),7
  2086  0EAC  1FF7               	goto	u1951
  2087  0EAD  2EAF               	goto	u1950
  2088  0EAE  2EB0               u1951:
  2089  0EAF                     	goto	l2991
  2090  0EAF  2EC0               u1950:
  2091  0EB0                     	line	19
  2092                           	
  2093                           l2987:	
  2094  0EB0                     	comf	(___aldiv@dividend),f
  2095  0EB0  09F4               	comf	(___aldiv@dividend+1),f
  2096  0EB1  09F5               	comf	(___aldiv@dividend+2),f
  2097  0EB2  09F6               	comf	(___aldiv@dividend+3),f
  2098  0EB3  09F7               	incf	(___aldiv@dividend),f
  2099  0EB4  0AF4               	skipnz
  2100  0EB5  1903               	incf	(___aldiv@dividend+1),f
  2101  0EB6  0AF5               	skipnz
  2102  0EB7  1903               	incf	(___aldiv@dividend+2),f
  2103  0EB8  0AF6               	skipnz
  2104  0EB9  1903               	incf	(___aldiv@dividend+3),f
  2105  0EBA  0AF7               	line	20
  2106                           	
  2107                           l2989:	
  2108  0EBB                     	movlw	low(01h)
  2109  0EBB  3001               	movwf	(??___aldiv+0)+0
  2110  0EBC  00F8               	movf	(??___aldiv+0)+0,w
  2111  0EBD  0878               	xorwf	(___aldiv@sign),f
  2112  0EBE  06A1               	goto	l2991
  2113  0EBF  2EC0               	line	21
  2114                           	
  2115                           l632:	
  2116  0EC0                     	line	22
  2117                           	
  2118                           l2991:	
  2119  0EC0                     	movlw	high highword(0)
  2120  0EC0  3000               	movwf	(___aldiv@quotient+3)
  2121  0EC1  00A5               	movlw	low highword(0)
  2122  0EC2  3000               	movwf	(___aldiv@quotient+2)
  2123  0EC3  00A4               	movlw	high(0)
  2124  0EC4  3000               	movwf	(___aldiv@quotient+1)
  2125  0EC5  00A3               	movlw	low(0)
  2126  0EC6  3000               	movwf	(___aldiv@quotient)
  2127  0EC7  00A2               
  2128                           	line	23
  2129                           	
  2130                           l2993:	
  2131  0EC8                     	movf	(___aldiv@divisor+3),w
  2132  0EC8  0873               	iorwf	(___aldiv@divisor+2),w
  2133  0EC9  0472               	iorwf	(___aldiv@divisor+1),w
  2134  0ECA  0471               	iorwf	(___aldiv@divisor),w
  2135  0ECB  0470               	skipnz
  2136  0ECC  1903               	goto	u1961
  2137  0ECD  2ECF               	goto	u1960
  2138  0ECE  2ED0               u1961:
  2139  0ECF                     	goto	l3013
  2140  0ECF  2F23               u1960:
  2141  0ED0                     	line	24
  2142                           	
  2143                           l2995:	
  2144  0ED0                     	clrf	(___aldiv@counter)
  2145  0ED0  01A0               	incf	(___aldiv@counter),f
  2146  0ED1  0AA0               	line	25
  2147                           	goto	l2999
  2148  0ED2  2EE1               	
  2149                           l635:	
  2150  0ED3                     	line	26
  2151                           	
  2152                           l2997:	
  2153  0ED3                     	movlw	01h
  2154  0ED3  3001               	movwf	(??___aldiv+0)+0
  2155  0ED4  00F8               u1975:
  2156  0ED5                     	clrc
  2157  0ED5  1003               	rlf	(___aldiv@divisor),f
  2158  0ED6  0DF0               	rlf	(___aldiv@divisor+1),f
  2159  0ED7  0DF1               	rlf	(___aldiv@divisor+2),f
  2160  0ED8  0DF2               	rlf	(___aldiv@divisor+3),f
  2161  0ED9  0DF3               	decfsz	(??___aldiv+0)+0
  2162  0EDA  0BF8               	goto	u1975
  2163  0EDB  2ED5               	line	27
  2164                           	movlw	low(01h)
  2165  0EDC  3001               	movwf	(??___aldiv+0)+0
  2166  0EDD  00F8               	movf	(??___aldiv+0)+0,w
  2167  0EDE  0878               	addwf	(___aldiv@counter),f
  2168  0EDF  07A0               	goto	l2999
  2169  0EE0  2EE1               	line	28
  2170                           	
  2171                           l634:	
  2172  0EE1                     	line	25
  2173                           	
  2174                           l2999:	
  2175  0EE1                     	btfss	(___aldiv@divisor+3),(31)&7
  2176  0EE1  1FF3               	goto	u1981
  2177  0EE2  2EE4               	goto	u1980
  2178  0EE3  2EE5               u1981:
  2179  0EE4                     	goto	l2997
  2180  0EE4  2ED3               u1980:
  2181  0EE5                     	goto	l3001
  2182  0EE5  2EE7               	
  2183                           l636:	
  2184  0EE6                     	goto	l3001
  2185  0EE6  2EE7               	line	29
  2186                           	
  2187                           l637:	
  2188  0EE7                     	line	30
  2189                           	
  2190                           l3001:	
  2191  0EE7                     	movlw	01h
  2192  0EE7  3001               	movwf	(??___aldiv+0)+0
  2193  0EE8  00F8               u1995:
  2194  0EE9                     	clrc
  2195  0EE9  1003               	rlf	(___aldiv@quotient),f
  2196  0EEA  0DA2               	rlf	(___aldiv@quotient+1),f
  2197  0EEB  0DA3               	rlf	(___aldiv@quotient+2),f
  2198  0EEC  0DA4               	rlf	(___aldiv@quotient+3),f
  2199  0EED  0DA5               	decfsz	(??___aldiv+0)+0
  2200  0EEE  0BF8               	goto	u1995
  2201  0EEF  2EE9               	line	31
  2202                           	
  2203                           l3003:	
  2204  0EF0                     	movf	(___aldiv@divisor+3),w
  2205  0EF0  0873               	subwf	(___aldiv@dividend+3),w
  2206  0EF1  0277               	skipz
  2207  0EF2  1D03               	goto	u2005
  2208  0EF3  2EFE               	movf	(___aldiv@divisor+2),w
  2209  0EF4  0872               	subwf	(___aldiv@dividend+2),w
  2210  0EF5  0276               	skipz
  2211  0EF6  1D03               	goto	u2005
  2212  0EF7  2EFE               	movf	(___aldiv@divisor+1),w
  2213  0EF8  0871               	subwf	(___aldiv@dividend+1),w
  2214  0EF9  0275               	skipz
  2215  0EFA  1D03               	goto	u2005
  2216  0EFB  2EFE               	movf	(___aldiv@divisor),w
  2217  0EFC  0870               	subwf	(___aldiv@dividend),w
  2218  0EFD  0274               u2005:
  2219  0EFE                     	skipc
  2220  0EFE  1C03               	goto	u2001
  2221  0EFF  2F01               	goto	u2000
  2222  0F00  2F02               u2001:
  2223  0F01                     	goto	l3009
  2224  0F01  2F12               u2000:
  2225  0F02                     	line	32
  2226                           	
  2227                           l3005:	
  2228  0F02                     	movf	(___aldiv@divisor),w
  2229  0F02  0870               	subwf	(___aldiv@dividend),f
  2230  0F03  02F4               	movf	(___aldiv@divisor+1),w
  2231  0F04  0871               	skipc
  2232  0F05  1C03               	incfsz	(___aldiv@divisor+1),w
  2233  0F06  0F71               	subwf	(___aldiv@dividend+1),f
  2234  0F07  02F5               	movf	(___aldiv@divisor+2),w
  2235  0F08  0872               	skipc
  2236  0F09  1C03               	incfsz	(___aldiv@divisor+2),w
  2237  0F0A  0F72               	subwf	(___aldiv@dividend+2),f
  2238  0F0B  02F6               	movf	(___aldiv@divisor+3),w
  2239  0F0C  0873               	skipc
  2240  0F0D  1C03               	incfsz	(___aldiv@divisor+3),w
  2241  0F0E  0F73               	subwf	(___aldiv@dividend+3),f
  2242  0F0F  02F7               	line	33
  2243                           	
  2244                           l3007:	
  2245  0F10                     	bsf	(___aldiv@quotient)+(0/8),(0)&7
  2246  0F10  1422               	goto	l3009
  2247  0F11  2F12               	line	34
  2248                           	
  2249                           l638:	
  2250  0F12                     	line	35
  2251                           	
  2252                           l3009:	
  2253  0F12                     	movlw	01h
  2254  0F12  3001               u2015:
  2255  0F13                     	clrc
  2256  0F13  1003               	rrf	(___aldiv@divisor+3),f
  2257  0F14  0CF3               	rrf	(___aldiv@divisor+2),f
  2258  0F15  0CF2               	rrf	(___aldiv@divisor+1),f
  2259  0F16  0CF1               	rrf	(___aldiv@divisor),f
  2260  0F17  0CF0               	addlw	-1
  2261  0F18  3EFF               	skipz
  2262  0F19  1D03               	goto	u2015
  2263  0F1A  2F13               
  2264                           	line	36
  2265                           	
  2266                           l3011:	
  2267  0F1B                     	movlw	01h
  2268  0F1B  3001               	subwf	(___aldiv@counter),f
  2269  0F1C  02A0               	btfss	status,2
  2270  0F1D  1D03               	goto	u2021
  2271  0F1E  2F20               	goto	u2020
  2272  0F1F  2F21               u2021:
  2273  0F20                     	goto	l3001
  2274  0F20  2EE7               u2020:
  2275  0F21                     	goto	l3013
  2276  0F21  2F23               	
  2277                           l639:	
  2278  0F22                     	goto	l3013
  2279  0F22  2F23               	line	37
  2280                           	
  2281                           l633:	
  2282  0F23                     	line	38
  2283                           	
  2284                           l3013:	
  2285  0F23                     	movf	((___aldiv@sign)),w
  2286  0F23  0821               	btfsc	status,2
  2287  0F24  1903               	goto	u2031
  2288  0F25  2F27               	goto	u2030
  2289  0F26  2F28               u2031:
  2290  0F27                     	goto	l3017
  2291  0F27  2F34               u2030:
  2292  0F28                     	line	39
  2293                           	
  2294                           l3015:	
  2295  0F28                     	comf	(___aldiv@quotient),f
  2296  0F28  09A2               	comf	(___aldiv@quotient+1),f
  2297  0F29  09A3               	comf	(___aldiv@quotient+2),f
  2298  0F2A  09A4               	comf	(___aldiv@quotient+3),f
  2299  0F2B  09A5               	incf	(___aldiv@quotient),f
  2300  0F2C  0AA2               	skipnz
  2301  0F2D  1903               	incf	(___aldiv@quotient+1),f
  2302  0F2E  0AA3               	skipnz
  2303  0F2F  1903               	incf	(___aldiv@quotient+2),f
  2304  0F30  0AA4               	skipnz
  2305  0F31  1903               	incf	(___aldiv@quotient+3),f
  2306  0F32  0AA5               	goto	l3017
  2307  0F33  2F34               	
  2308                           l640:	
  2309  0F34                     	line	40
  2310                           	
  2311                           l3017:	
  2312  0F34                     	movf	(___aldiv@quotient+3),w
  2313  0F34  0825               	movwf	(?___aldiv+3)
  2314  0F35  00F3               	movf	(___aldiv@quotient+2),w
  2315  0F36  0824               	movwf	(?___aldiv+2)
  2316  0F37  00F2               	movf	(___aldiv@quotient+1),w
  2317  0F38  0823               	movwf	(?___aldiv+1)
  2318  0F39  00F1               	movf	(___aldiv@quotient),w
  2319  0F3A  0822               	movwf	(?___aldiv)
  2320  0F3B  00F0               
  2321                           	goto	l641
  2322  0F3C  2F3D               	
  2323                           l3019:	
  2324  0F3D                     	line	41
  2325                           	
  2326                           l641:	
  2327  0F3D                     	return
  2328  0F3D  0008               	opt stack 0
  2329                           GLOBAL	__end_of___aldiv
  2330                           	__end_of___aldiv:
  2331  0F3E                     	signat	___aldiv,8316
  2332                           	global	_loop
  2333                           
  2334 ;; *************** function _loop *****************
  2335 ;; Defined at:
  2336 ;;		line 61 in file "LIFPIC.c"
  2337 ;; Parameters:    Size  Location     Type
  2338 ;;		None
  2339 ;; Auto vars:     Size  Location     Type
  2340 ;;  j               2   57[BANK0 ] int 
  2341 ;;  i               2   55[BANK0 ] int 
  2342 ;; Return value:  Size  Location     Type
  2343 ;;                  1    wreg      void 
  2344 ;; Registers used:
  2345 ;;		wreg, fsr0l, fsr0h, status,2, status,0, btemp+1, pclath, cstack
  2346 ;; Tracked objects:
  2347 ;;		On entry : 0/0
  2348 ;;		On exit  : 0/0
  2349 ;;		Unchanged: 0/0
  2350 ;; Data sizes:     COMMON   BANK0   BANK1   BANK3   BANK2
  2351 ;;      Params:         0       0       0       0       0
  2352 ;;      Locals:         0       4       0       0       0
  2353 ;;      Temps:          0       3       0       0       0
  2354 ;;      Totals:         0       7       0       0       0
  2355 ;;Total ram usage:        7 bytes
  2356 ;; Hardware stack levels used:    1
  2357 ;; Hardware stack levels required when called:    3
  2358 ;; This function calls:
  2359 ;;		_ProcessCommand
  2360 ;;		_SerialAvailable
  2361 ;;		_SerialRead
  2362 ;;		_SerialWrite
  2363 ;; This function is called by:
  2364 ;;		_main
  2365 ;; This function uses a non-reentrant model
  2366 ;;
  2367                           psect	text5,local,class=CODE,delta=2,merge=1,group=0
  2368                           	file	"LIFPIC.c"
  2369                           	line	61
  2370                           global __ptext5
  2371                           __ptext5:	;psect for function _loop
  2372  003F                     psect	text5
  2373                           	file	"LIFPIC.c"
  2374                           	line	61
  2375                           	global	__size_of_loop
  2376                           	__size_of_loop	equ	__end_of_loop-_loop
  2377  00E7                     	
  2378                           _loop:	
  2379  003F                     ;incstack = 0
  2380                           	opt	stack 4
  2381                           ; Regs used in _loop: [wreg-fsr0h+status,2+status,0+btemp+1+pclath+cstack]
  2382                           	line	63
  2383                           	
  2384                           l3239:	
  2385  003F                     ;LIFPIC.c: 63:  if(SerialAvailable() >= 0)
  2386                           	fcall	_SerialAvailable
  2387  003F  120A  158A  22A8  120A  118A  	line	65
  2388                           ;LIFPIC.c: 64:  {;LIFPIC.c: 65:   switch(Estado)
  2389                           	goto	l3301
  2390  0044  290F               	line	67
  2391                           ;LIFPIC.c: 66:   {;LIFPIC.c: 67:    case Decode:
  2392                           	
  2393                           l71:	
  2394  0045                     	line	69
  2395                           	
  2396                           l3241:	
  2397  0045                     ;LIFPIC.c: 69:     Dato = ProcessCommand(Informacion[0],Informacion[1],Informacion[2],In
                                 formacion[3]);
  2398                           	bcf	status, 5	;RP0=0, select bank0
  2399  0045  1283               	bcf	status, 6	;RP1=0, select bank0
  2400  0046  1303               	movf	0+(_Informacion)+01h,w
  2401  0047  085C               	movwf	(??_loop+0)+0
  2402  0048  00D4               	movf	(??_loop+0)+0,w
  2403  0049  0854               	movwf	(ProcessCommand@port)
  2404  004A  00CC               	movf	0+(_Informacion)+02h,w
  2405  004B  085D               	movwf	(??_loop+1)+0
  2406  004C  00D5               	movf	(??_loop+1)+0,w
  2407  004D  0855               	movwf	(ProcessCommand@MSBData)
  2408  004E  00CD               	movf	0+(_Informacion)+03h,w
  2409  004F  085E               	movwf	(??_loop+2)+0
  2410  0050  00D6               	movf	(??_loop+2)+0,w
  2411  0051  0856               	movwf	(ProcessCommand@LSBData)
  2412  0052  00CE               	movf	(_Informacion),w
  2413  0053  085B               	fcall	_ProcessCommand
  2414  0054  120A  118A  2493  120A  118A  	bcf	status, 5	;RP0=0, select bank0
  2415  0059  1283               	bcf	status, 6	;RP1=0, select bank0
  2416  005A  1303               	movf	(1+(?_ProcessCommand)),w
  2417  005B  084D               	movwf	(_Dato+1)
  2418  005C  00E2               	movf	(0+(?_ProcessCommand)),w
  2419  005D  084C               	movwf	(_Dato)
  2420  005E  00E1               	line	71
  2421                           	
  2422                           l3243:	
  2423  005F                     ;LIFPIC.c: 71:     DataEnviar[0] = (Dato >> 8);
  2424                           	movf	(_Dato+1),w
  2425  005F  0862               	movwf	(??_loop+0)+0
  2426  0060  00D4               	movf	(??_loop+0)+0,w
  2427  0061  0854               	movwf	(_DataEnviar)
  2428  0062  00E3               	line	72
  2429                           	
  2430                           l3245:	
  2431  0063                     ;LIFPIC.c: 72:     DataEnviar[1] = Dato & 0xFF;
  2432                           	movf	(_Dato),w
  2433  0063  0861               	movwf	(??_loop+0)+0
  2434  0064  00D4               	movf	(??_loop+0)+0,w
  2435  0065  0854               	movwf	0+(_DataEnviar)+01h
  2436  0066  00E4               	line	73
  2437                           	
  2438                           l3247:	
  2439  0067                     ;LIFPIC.c: 73:     Estado = Enviar;
  2440                           	clrf	(_Estado)
  2441  0067  01E8               	line	74
  2442                           ;LIFPIC.c: 74:    break;
  2443                           	goto	l90
  2444  0068  2925               	line	75
  2445                           ;LIFPIC.c: 75:    case Recibir:
  2446                           	
  2447                           l73:	
  2448  0069                     	line	76
  2449                           ;LIFPIC.c: 76:     while(Valor != 1)
  2450                           	goto	l3265
  2451  0069  28A6               	
  2452                           l75:	
  2453  006A                     	line	78
  2454                           	
  2455                           l3249:	
  2456  006A                     ;LIFPIC.c: 77:     {;LIFPIC.c: 78:      for(int i=0;i<BufferLenght;i++)
  2457                           	clrf	(loop@i)
  2458  006A  01D7               	clrf	(loop@i+1)
  2459  006B  01D8               	goto	l3255
  2460  006C  2882               	
  2461                           l77:	
  2462  006D                     	line	80
  2463                           	
  2464                           l3251:	
  2465  006D                     ;LIFPIC.c: 79:      {;LIFPIC.c: 80:       Informacion[i] = SerialRead();
  2466                           	fcall	_SerialRead
  2467  006D  120A  158A  227D  120A  118A  	bcf	status, 5	;RP0=0, select bank0
  2468  0072  1283               	bcf	status, 6	;RP1=0, select bank0
  2469  0073  1303               	movwf	(??_loop+0)+0
  2470  0074  00D4               	movf	(loop@i),w
  2471  0075  0857               	addlw	low(_Informacion|((0x0)<<8))&0ffh
  2472  0076  3E5B               	movwf	fsr0
  2473  0077  0084               	movf	(??_loop+0)+0,w
  2474  0078  0854               	bcf	status, 7	;select IRP bank0
  2475  0079  1383               	movwf	indf
  2476  007A  0080               	line	81
  2477                           	
  2478                           l3253:	
  2479  007B                     ;LIFPIC.c: 81:      }
  2480                           	movlw	01h
  2481  007B  3001               	addwf	(loop@i),f
  2482  007C  07D7               	skipnc
  2483  007D  1803               	incf	(loop@i+1),f
  2484  007E  0AD8               	movlw	0
  2485  007F  3000               	addwf	(loop@i+1),f
  2486  0080  07D8               	goto	l3255
  2487  0081  2882               	
  2488                           l76:	
  2489  0082                     	
  2490                           l3255:	
  2491  0082                     	movf	(loop@i+1),w
  2492  0082  0858               	xorlw	80h
  2493  0083  3A80               	movwf	(??_loop+0)+0
  2494  0084  00D4               	movlw	80h
  2495  0085  3080               	subwf	(??_loop+0)+0,w
  2496  0086  0254               	skipz
  2497  0087  1D03               	goto	u2235
  2498  0088  288B               	movf	(_BufferLenght),w
  2499  0089  086C               	subwf	(loop@i),w
  2500  008A  0257               u2235:
  2501  008B                     
  2502                           	skipc
  2503  008B  1C03               	goto	u2231
  2504  008C  288E               	goto	u2230
  2505  008D  288F               u2231:
  2506  008E                     	goto	l3251
  2507  008E  286D               u2230:
  2508  008F                     	goto	l3257
  2509  008F  2890               	
  2510                           l78:	
  2511  0090                     	line	82
  2512                           	
  2513                           l3257:	
  2514  0090                     ;LIFPIC.c: 82:                     dada = SerialRead();
  2515                           	fcall	_SerialRead
  2516  0090  120A  158A  227D  120A  118A  	bcf	status, 5	;RP0=0, select bank0
  2517  0095  1283               	bcf	status, 6	;RP1=0, select bank0
  2518  0096  1303               	movwf	(??_loop+0)+0
  2519  0097  00D4               	movf	(??_loop+0)+0,w
  2520  0098  0854               	movwf	(_dada)
  2521  0099  00E5               	line	83
  2522                           	
  2523                           l3259:	
  2524  009A                     ;LIFPIC.c: 83:                     if(dada == 'k')
  2525                           		movlw	107
  2526  009A  306B               	xorwf	((_dada)),w
  2527  009B  0665               	btfss	status,2
  2528  009C  1D03               	goto	u2241
  2529  009D  289F               	goto	u2240
  2530  009E  28A0               u2241:
  2531  009F                     	goto	l3263
  2532  009F  28A3               u2240:
  2533  00A0                     	line	85
  2534                           	
  2535                           l3261:	
  2536  00A0                     ;LIFPIC.c: 84:                     {;LIFPIC.c: 85:                         Valor = 1;
  2537                           	clrf	(_Valor)
  2538  00A0  01E6               	incf	(_Valor),f
  2539  00A1  0AE6               	line	86
  2540                           ;LIFPIC.c: 86:                     }
  2541                           	goto	l3265
  2542  00A2  28A6               	line	87
  2543                           ;LIFPIC.c: 87:                     else
  2544                           	
  2545                           l79:	
  2546  00A3                     	line	89
  2547                           	
  2548                           l3263:	
  2549  00A3                     ;LIFPIC.c: 88:                     {;LIFPIC.c: 89:                         Valor = 0;
  2550                           	clrf	(_Valor)
  2551  00A3  01E6               	goto	l3265
  2552  00A4  28A6               	line	90
  2553                           ;LIFPIC.c: 90:                     }
  2554                           	
  2555                           l80:	
  2556  00A5                     	goto	l3265
  2557  00A5  28A6               	line	91
  2558                           ;LIFPIC.c: 91:     }
  2559                           	
  2560                           l74:	
  2561  00A6                     	line	76
  2562                           	
  2563                           l3265:	
  2564  00A6                     ;LIFPIC.c: 76:     while(Valor != 1)
  2565                           		decf	((_Valor)),w
  2566  00A6  0366               	btfss	status,2
  2567  00A7  1D03               	goto	u2251
  2568  00A8  28AA               	goto	u2250
  2569  00A9  28AB               u2251:
  2570  00AA                     	goto	l3249
  2571  00AA  286A               u2250:
  2572  00AB                     	goto	l3267
  2573  00AB  28AC               	
  2574                           l81:	
  2575  00AC                     	line	92
  2576                           	
  2577                           l3267:	
  2578  00AC                     ;LIFPIC.c: 92:                 dada = 0;
  2579                           	clrf	(_dada)
  2580  00AC  01E5               	line	93
  2581                           ;LIFPIC.c: 93:                 Valor = 0;
  2582                           	clrf	(_Valor)
  2583  00AD  01E6               	line	94
  2584                           	
  2585                           l3269:	
  2586  00AE                     ;LIFPIC.c: 94:                 Estado = Decode;
  2587                           	movlw	low(02h)
  2588  00AE  3002               	movwf	(??_loop+0)+0
  2589  00AF  00D4               	movf	(??_loop+0)+0,w
  2590  00B0  0854               	movwf	(_Estado)
  2591  00B1  00E8               	line	95
  2592                           ;LIFPIC.c: 95:    break;
  2593                           	goto	l90
  2594  00B2  2925               	line	96
  2595                           ;LIFPIC.c: 96:    case Enviar:
  2596                           	
  2597                           l82:	
  2598  00B3                     	line	97
  2599                           ;LIFPIC.c: 97:                 while(Valor != 1)
  2600                           	goto	l3293
  2601  00B3  2903               	
  2602                           l84:	
  2603  00B4                     	line	99
  2604                           	
  2605                           l3271:	
  2606  00B4                     ;LIFPIC.c: 98:                 {;LIFPIC.c: 99:                     for(int j=0;j<2;j++)

  2607                           	clrf	(loop@j)
  2608  00B4  01D9               	clrf	(loop@j+1)
  2609  00B5  01DA               	
  2610                           l3273:	
  2611  00B6                     	movf	(loop@j+1),w
  2612  00B6  085A               	xorlw	80h
  2613  00B7  3A80               	movwf	btemp+1
  2614  00B8  00FF               	movlw	(0)^80h
  2615  00B9  3080               	subwf	btemp+1,w
  2616  00BA  027F               	skipz
  2617  00BB  1D03               	goto	u2265
  2618  00BC  28BF               	movlw	02h
  2619  00BD  3002               	subwf	(loop@j),w
  2620  00BE  0259               u2265:
  2621  00BF                     
  2622                           	skipc
  2623  00BF  1C03               	goto	u2261
  2624  00C0  28C2               	goto	u2260
  2625  00C1  28C3               u2261:
  2626  00C2                     	goto	l3277
  2627  00C2  28C5               u2260:
  2628  00C3                     	goto	l3283
  2629  00C3  28E7               	
  2630                           l3275:	
  2631  00C4                     	goto	l3283
  2632  00C4  28E7               	
  2633                           l85:	
  2634  00C5                     	line	101
  2635                           	
  2636                           l3277:	
  2637  00C5                     ;LIFPIC.c: 100:                     {;LIFPIC.c: 101:                         SerialWrite
                                 (DataEnviar[j]);
  2638                           	bcf	status, 5	;RP0=0, select bank0
  2639  00C5  1283               	bcf	status, 6	;RP1=0, select bank0
  2640  00C6  1303               	movf	(loop@j),w
  2641  00C7  0859               	addlw	low(_DataEnviar|((0x0)<<8))&0ffh
  2642  00C8  3E63               	movwf	fsr0
  2643  00C9  0084               	bcf	status, 7	;select IRP bank0
  2644  00CA  1383               	movf	indf,w
  2645  00CB  0800               	fcall	_SerialWrite
  2646  00CC  120A  158A  2288  120A  118A  	line	103
  2647                           	
  2648                           l3279:	
  2649  00D1                     ;LIFPIC.c: 103:                     }
  2650                           	movlw	01h
  2651  00D1  3001               	bcf	status, 5	;RP0=0, select bank0
  2652  00D2  1283               	bcf	status, 6	;RP1=0, select bank0
  2653  00D3  1303               	addwf	(loop@j),f
  2654  00D4  07D9               	skipnc
  2655  00D5  1803               	incf	(loop@j+1),f
  2656  00D6  0ADA               	movlw	0
  2657  00D7  3000               	addwf	(loop@j+1),f
  2658  00D8  07DA               	
  2659                           l3281:	
  2660  00D9                     	movf	(loop@j+1),w
  2661  00D9  085A               	xorlw	80h
  2662  00DA  3A80               	movwf	btemp+1
  2663  00DB  00FF               	movlw	(0)^80h
  2664  00DC  3080               	subwf	btemp+1,w
  2665  00DD  027F               	skipz
  2666  00DE  1D03               	goto	u2275
  2667  00DF  28E2               	movlw	02h
  2668  00E0  3002               	subwf	(loop@j),w
  2669  00E1  0259               u2275:
  2670  00E2                     
  2671                           	skipc
  2672  00E2  1C03               	goto	u2271
  2673  00E3  28E5               	goto	u2270
  2674  00E4  28E6               u2271:
  2675  00E5                     	goto	l3277
  2676  00E5  28C5               u2270:
  2677  00E6                     	goto	l3283
  2678  00E6  28E7               	
  2679                           l86:	
  2680  00E7                     	line	104
  2681                           	
  2682                           l3283:	
  2683  00E7                     ;LIFPIC.c: 104:                     SerialWrite(';');
  2684                           	movlw	low(03Bh)
  2685  00E7  303B               	fcall	_SerialWrite
  2686  00E8  120A  158A  2288  120A  118A  	line	105
  2687                           	
  2688                           l3285:	
  2689  00ED                     ;LIFPIC.c: 105:                     dada = SerialRead();
  2690                           	fcall	_SerialRead
  2691  00ED  120A  158A  227D  120A  118A  	bcf	status, 5	;RP0=0, select bank0
  2692  00F2  1283               	bcf	status, 6	;RP1=0, select bank0
  2693  00F3  1303               	movwf	(??_loop+0)+0
  2694  00F4  00D4               	movf	(??_loop+0)+0,w
  2695  00F5  0854               	movwf	(_dada)
  2696  00F6  00E5               	line	106
  2697                           	
  2698                           l3287:	
  2699  00F7                     ;LIFPIC.c: 106:                     if(dada == 'k')
  2700                           		movlw	107
  2701  00F7  306B               	xorwf	((_dada)),w
  2702  00F8  0665               	btfss	status,2
  2703  00F9  1D03               	goto	u2281
  2704  00FA  28FC               	goto	u2280
  2705  00FB  28FD               u2281:
  2706  00FC                     	goto	l3291
  2707  00FC  2900               u2280:
  2708  00FD                     	line	108
  2709                           	
  2710                           l3289:	
  2711  00FD                     ;LIFPIC.c: 107:                     {;LIFPIC.c: 108:                         Valor = 1;

  2712                           	clrf	(_Valor)
  2713  00FD  01E6               	incf	(_Valor),f
  2714  00FE  0AE6               	line	109
  2715                           ;LIFPIC.c: 109:                     }
  2716                           	goto	l3293
  2717  00FF  2903               	line	110
  2718                           ;LIFPIC.c: 110:                     else
  2719                           	
  2720                           l87:	
  2721  0100                     	line	112
  2722                           	
  2723                           l3291:	
  2724  0100                     ;LIFPIC.c: 111:                     {;LIFPIC.c: 112:                         Valor = 0;

  2725                           	clrf	(_Valor)
  2726  0100  01E6               	goto	l3293
  2727  0101  2903               	line	113
  2728                           ;LIFPIC.c: 113:                     }
  2729                           	
  2730                           l88:	
  2731  0102                     	goto	l3293
  2732  0102  2903               	line	114
  2733                           ;LIFPIC.c: 114:                 }
  2734                           	
  2735                           l83:	
  2736  0103                     	line	97
  2737                           	
  2738                           l3293:	
  2739  0103                     ;LIFPIC.c: 97:                 while(Valor != 1)
  2740                           		decf	((_Valor)),w
  2741  0103  0366               	btfss	status,2
  2742  0104  1D03               	goto	u2291
  2743  0105  2907               	goto	u2290
  2744  0106  2908               u2291:
  2745  0107                     	goto	l3271
  2746  0107  28B4               u2290:
  2747  0108                     	goto	l3295
  2748  0108  2909               	
  2749                           l89:	
  2750  0109                     	line	115
  2751                           	
  2752                           l3295:	
  2753  0109                     ;LIFPIC.c: 115:                 Valor = 0;
  2754                           	clrf	(_Valor)
  2755  0109  01E6               	line	116
  2756                           ;LIFPIC.c: 116:                 dada = 0;
  2757                           	clrf	(_dada)
  2758  010A  01E5               	line	117
  2759                           	
  2760                           l3297:	
  2761  010B                     ;LIFPIC.c: 117:     Estado = Recibir;
  2762                           	clrf	(_Estado)
  2763  010B  01E8               	incf	(_Estado),f
  2764  010C  0AE8               	line	118
  2765                           ;LIFPIC.c: 118:    break;
  2766                           	goto	l90
  2767  010D  2925               	line	119
  2768                           	
  2769                           l3299:	
  2770  010E                     ;LIFPIC.c: 119:   }
  2771                           	goto	l90
  2772  010E  2925               	
  2773                           l70:	
  2774  010F                     	
  2775                           l3301:	
  2776  010F                     	bcf	status, 5	;RP0=0, select bank0
  2777  010F  1283               	bcf	status, 6	;RP1=0, select bank0
  2778  0110  1303               	movf	(_Estado),w
  2779  0111  0868               	movwf	(??_loop+0)+0
  2780  0112  00D4               	clrf	(??_loop+0)+0+1
  2781  0113  01D5               	; Switch on 2 bytes has been partitioned into a top level switch of size 1, and 1 sub-s
                                 witches
  2782                           ; Switch size 1, requested type "space"
  2783                           ; Number of cases is 1, Range of values is 0 to 0
  2784                           ; switch strategies available:
  2785                           ; Name         Instructions Cycles
  2786                           ; simple_byte            4     3 (average)
  2787                           ; direct_byte           11     8 (fixed)
  2788                           ; jumptable            260     6 (fixed)
  2789                           ;	Chosen strategy is simple_byte
  2790                           
  2791                           	movf 1+(??_loop+0)+0,w
  2792  0114  0855               	opt asmopt_push
  2793                           	opt asmopt_off
  2794                           	xorlw	0^0	; case 0
  2795  0115  3A00               	skipnz
  2796  0116  1903               	goto	l3523
  2797  0117  2919               	goto	l90
  2798  0118  2925               	opt asmopt_pop
  2799                           	
  2800                           l3523:	
  2801  0119                     ; Switch size 1, requested type "space"
  2802                           ; Number of cases is 3, Range of values is 0 to 2
  2803                           ; switch strategies available:
  2804                           ; Name         Instructions Cycles
  2805                           ; simple_byte           10     6 (average)
  2806                           ; direct_byte           17     8 (fixed)
  2807                           ; jumptable            260     6 (fixed)
  2808                           ;	Chosen strategy is simple_byte
  2809                           
  2810                           	movf 0+(??_loop+0)+0,w
  2811  0119  0854               	opt asmopt_push
  2812                           	opt asmopt_off
  2813                           	xorlw	0^0	; case 0
  2814  011A  3A00               	skipnz
  2815  011B  1903               	goto	l3293
  2816  011C  2903               	xorlw	1^0	; case 1
  2817  011D  3A01               	skipnz
  2818  011E  1903               	goto	l3265
  2819  011F  28A6               	xorlw	2^1	; case 2
  2820  0120  3A03               	skipnz
  2821  0121  1903               	goto	l3241
  2822  0122  2845               	goto	l90
  2823  0123  2925               	opt asmopt_pop
  2824                           
  2825                           	
  2826                           l72:	
  2827  0124                     	goto	l90
  2828  0124  2925               	line	120
  2829                           ;LIFPIC.c: 120:  }
  2830                           	
  2831                           l69:	
  2832  0125                     	line	121
  2833                           	
  2834                           l90:	
  2835  0125                     	return
  2836  0125  0008               	opt stack 0
  2837                           GLOBAL	__end_of_loop
  2838                           	__end_of_loop:
  2839  0126                     	signat	_loop,89
  2840                           	global	_SerialWrite
  2841                           
  2842 ;; *************** function _SerialWrite *****************
  2843 ;; Defined at:
  2844 ;;		line 526 in file "Hormiga877.c"
  2845 ;; Parameters:    Size  Location     Type
  2846 ;;  dataWrite       1    wreg     unsigned char 
  2847 ;; Auto vars:     Size  Location     Type
  2848 ;;  dataWrite       1    0[COMMON] unsigned char 
  2849 ;; Return value:  Size  Location     Type
  2850 ;;                  1    wreg      void 
  2851 ;; Registers used:
  2852 ;;		wreg
  2853 ;; Tracked objects:
  2854 ;;		On entry : 0/0
  2855 ;;		On exit  : 0/0
  2856 ;;		Unchanged: 0/0
  2857 ;; Data sizes:     COMMON   BANK0   BANK1   BANK3   BANK2
  2858 ;;      Params:         0       0       0       0       0
  2859 ;;      Locals:         1       0       0       0       0
  2860 ;;      Temps:          0       0       0       0       0
  2861 ;;      Totals:         1       0       0       0       0
  2862 ;;Total ram usage:        1 bytes
  2863 ;; Hardware stack levels used:    1
  2864 ;; This function calls:
  2865 ;;		Nothing
  2866 ;; This function is called by:
  2867 ;;		_setup
  2868 ;;		_loop
  2869 ;;		_SerialWriteText
  2870 ;;		_SerialPrint
  2871 ;;		_SerialPrintLn
  2872 ;; This function uses a non-reentrant model
  2873 ;;
  2874                           psect	text6,local,class=CODE,delta=2,merge=1,group=0
  2875                           	file	"Hormiga877.c"
  2876                           	line	526
  2877                           global __ptext6
  2878                           __ptext6:	;psect for function _SerialWrite
  2879  0A88                     psect	text6
  2880                           	file	"Hormiga877.c"
  2881                           	line	526
  2882                           	global	__size_of_SerialWrite
  2883                           	__size_of_SerialWrite	equ	__end_of_SerialWrite-_SerialWrite
  2884  000C                     	
  2885                           _SerialWrite:	
  2886  0A88                     ;incstack = 0
  2887                           	opt	stack 6
  2888                           ; Regs used in _SerialWrite: [wreg]
  2889                           ;SerialWrite@dataWrite stored from wreg
  2890                           	movwf	(SerialWrite@dataWrite)
  2891  0A88  00F0               	line	528
  2892                           	
  2893                           l3091:	
  2894  0A89                     ;Hormiga877.c: 526: void SerialWrite(char dataWrite);Hormiga877.c: 527: {;Hormiga877.c: 
                                 528:     while(!TXIF);
  2895                           	goto	l430
  2896  0A89  2A8A               	
  2897                           l431:	
  2898  0A8A                     	
  2899                           l430:	
  2900  0A8A                     	bcf	status, 5	;RP0=0, select bank0
  2901  0A8A  1283               	bcf	status, 6	;RP1=0, select bank0
  2902  0A8B  1303               	btfss	(100/8),(100)&7	;volatile
  2903  0A8C  1E0C               	goto	u2081
  2904  0A8D  2A8F               	goto	u2080
  2905  0A8E  2A90               u2081:
  2906  0A8F                     	goto	l430
  2907  0A8F  2A8A               u2080:
  2908  0A90                     	goto	l3093
  2909  0A90  2A91               	
  2910                           l432:	
  2911  0A91                     	line	529
  2912                           	
  2913                           l3093:	
  2914  0A91                     ;Hormiga877.c: 529:     TXREG = dataWrite;
  2915                           	movf	(SerialWrite@dataWrite),w
  2916  0A91  0870               	movwf	(25)	;volatile
  2917  0A92  0099               	line	530
  2918                           	
  2919                           l433:	
  2920  0A93                     	return
  2921  0A93  0008               	opt stack 0
  2922                           GLOBAL	__end_of_SerialWrite
  2923                           	__end_of_SerialWrite:
  2924  0A94                     	signat	_SerialWrite,4217
  2925                           	global	_SerialRead
  2926                           
  2927 ;; *************** function _SerialRead *****************
  2928 ;; Defined at:
  2929 ;;		line 561 in file "Hormiga877.c"
  2930 ;; Parameters:    Size  Location     Type
  2931 ;;		None
  2932 ;; Auto vars:     Size  Location     Type
  2933 ;;		None
  2934 ;; Return value:  Size  Location     Type
  2935 ;;                  1    wreg      unsigned char 
  2936 ;; Registers used:
  2937 ;;		wreg
  2938 ;; Tracked objects:
  2939 ;;		On entry : 0/0
  2940 ;;		On exit  : 0/0
  2941 ;;		Unchanged: 0/0
  2942 ;; Data sizes:     COMMON   BANK0   BANK1   BANK3   BANK2
  2943 ;;      Params:         0       0       0       0       0
  2944 ;;      Locals:         0       0       0       0       0
  2945 ;;      Temps:          0       0       0       0       0
  2946 ;;      Totals:         0       0       0       0       0
  2947 ;;Total ram usage:        0 bytes
  2948 ;; Hardware stack levels used:    1
  2949 ;; This function calls:
  2950 ;;		Nothing
  2951 ;; This function is called by:
  2952 ;;		_setup
  2953 ;;		_loop
  2954 ;;		_SerialReadText
  2955 ;; This function uses a non-reentrant model
  2956 ;;
  2957                           psect	text7,local,class=CODE,delta=2,merge=1,group=0
  2958                           	line	561
  2959                           global __ptext7
  2960                           __ptext7:	;psect for function _SerialRead
  2961  0A7D                     psect	text7
  2962                           	file	"Hormiga877.c"
  2963                           	line	561
  2964                           	global	__size_of_SerialRead
  2965                           	__size_of_SerialRead	equ	__end_of_SerialRead-_SerialRead
  2966  000B                     	
  2967                           _SerialRead:	
  2968  0A7D                     ;incstack = 0
  2969                           	opt	stack 6
  2970                           ; Regs used in _SerialRead: [wreg]
  2971                           	line	563
  2972                           	
  2973                           l3085:	
  2974  0A7D                     ;Hormiga877.c: 563:     while(!RCIF);
  2975                           	goto	l459
  2976  0A7D  2A7E               	
  2977                           l460:	
  2978  0A7E                     	
  2979                           l459:	
  2980  0A7E                     	bcf	status, 5	;RP0=0, select bank0
  2981  0A7E  1283               	bcf	status, 6	;RP1=0, select bank0
  2982  0A7F  1303               	btfss	(101/8),(101)&7	;volatile
  2983  0A80  1E8C               	goto	u2071
  2984  0A81  2A83               	goto	u2070
  2985  0A82  2A84               u2071:
  2986  0A83                     	goto	l459
  2987  0A83  2A7E               u2070:
  2988  0A84                     	goto	l3087
  2989  0A84  2A85               	
  2990                           l461:	
  2991  0A85                     	line	564
  2992                           	
  2993                           l3087:	
  2994  0A85                     ;Hormiga877.c: 564:     return RCREG;
  2995                           	movf	(26),w	;volatile
  2996  0A85  081A               	goto	l462
  2997  0A86  2A87               	
  2998                           l3089:	
  2999  0A87                     	line	565
  3000                           	
  3001                           l462:	
  3002  0A87                     	return
  3003  0A87  0008               	opt stack 0
  3004                           GLOBAL	__end_of_SerialRead
  3005                           	__end_of_SerialRead:
  3006  0A88                     	signat	_SerialRead,89
  3007                           	global	_SerialAvailable
  3008                           
  3009 ;; *************** function _SerialAvailable *****************
  3010 ;; Defined at:
  3011 ;;		line 556 in file "Hormiga877.c"
  3012 ;; Parameters:    Size  Location     Type
  3013 ;;		None
  3014 ;; Auto vars:     Size  Location     Type
  3015 ;;		None
  3016 ;; Return value:  Size  Location     Type
  3017 ;;                  1    wreg      unsigned char 
  3018 ;; Registers used:
  3019 ;;		status,2
  3020 ;; Tracked objects:
  3021 ;;		On entry : 0/0
  3022 ;;		On exit  : 0/0
  3023 ;;		Unchanged: 0/0
  3024 ;; Data sizes:     COMMON   BANK0   BANK1   BANK3   BANK2
  3025 ;;      Params:         0       0       0       0       0
  3026 ;;      Locals:         1       0       0       0       0
  3027 ;;      Temps:          0       0       0       0       0
  3028 ;;      Totals:         1       0       0       0       0
  3029 ;;Total ram usage:        1 bytes
  3030 ;; Hardware stack levels used:    1
  3031 ;; This function calls:
  3032 ;;		Nothing
  3033 ;; This function is called by:
  3034 ;;		_loop
  3035 ;; This function uses a non-reentrant model
  3036 ;;
  3037                           psect	text8,local,class=CODE,delta=2,merge=1,group=0
  3038                           	line	556
  3039                           global __ptext8
  3040                           __ptext8:	;psect for function _SerialAvailable
  3041  0AA8                     psect	text8
  3042                           	file	"Hormiga877.c"
  3043                           	line	556
  3044                           	global	__size_of_SerialAvailable
  3045                           	__size_of_SerialAvailable	equ	__end_of_SerialAvailable-_SerialAvailable
  3046  0017                     	
  3047                           _SerialAvailable:	
  3048  0AA8                     ;incstack = 0
  3049                           	opt	stack 6
  3050                           ; Regs used in _SerialAvailable: [status,2]
  3051                           	line	558
  3052                           	
  3053                           l3095:	
  3054  0AA8                     ;Hormiga877.c: 558:     return RCIF || (TXIF && TRMT);
  3055                           	clrf	(_SerialAvailable$528)
  3056  0AA8  01F0               	incf	(_SerialAvailable$528),f
  3057  0AA9  0AF0               	bcf	status, 5	;RP0=0, select bank0
  3058  0AAA  1283               	bcf	status, 6	;RP1=0, select bank0
  3059  0AAB  1303               	btfsc	(101/8),(101)&7	;volatile
  3060  0AAC  1A8C               	goto	u2091
  3061  0AAD  2AAF               	goto	u2090
  3062  0AAE  2AB0               u2091:
  3063  0AAF                     	goto	l456
  3064  0AAF  2ABE               u2090:
  3065  0AB0                     	
  3066                           l3097:	
  3067  0AB0                     	btfss	(100/8),(100)&7	;volatile
  3068  0AB0  1E0C               	goto	u2101
  3069  0AB1  2AB3               	goto	u2100
  3070  0AB2  2AB4               u2101:
  3071  0AB3                     	goto	l3101
  3072  0AB3  2ABB               u2100:
  3073  0AB4                     	
  3074                           l3099:	
  3075  0AB4                     	bsf	status, 5	;RP0=1, select bank1
  3076  0AB4  1683               	bcf	status, 6	;RP1=0, select bank1
  3077  0AB5  1303               	btfsc	(1217/8)^080h,(1217)&7	;volatile
  3078  0AB6  1898               	goto	u2111
  3079  0AB7  2AB9               	goto	u2110
  3080  0AB8  2ABA               u2111:
  3081  0AB9                     	goto	l456
  3082  0AB9  2ABE               u2110:
  3083  0ABA                     	goto	l3101
  3084  0ABA  2ABB               	
  3085                           l2327:	
  3086  0ABB                     	
  3087                           l3101:	
  3088  0ABB                     	clrf	(_SerialAvailable$528)
  3089  0ABB  01F0               	goto	l456
  3090  0ABC  2ABE               	
  3091                           l455:	
  3092  0ABD                     	goto	l456
  3093  0ABD  2ABE               	
  3094                           l3103:	
  3095  0ABE                     	line	559
  3096                           ;	Return value of _SerialAvailable is never used
  3097                           	
  3098                           l456:	
  3099  0ABE                     	return
  3100  0ABE  0008               	opt stack 0
  3101                           GLOBAL	__end_of_SerialAvailable
  3102                           	__end_of_SerialAvailable:
  3103  0ABF                     	signat	_SerialAvailable,89
  3104                           	global	_ProcessCommand
  3105                           
  3106 ;; *************** function _ProcessCommand *****************
  3107 ;; Defined at:
  3108 ;;		line 123 in file "LIFPIC.c"
  3109 ;; Parameters:    Size  Location     Type
  3110 ;;  instruction     1    wreg     unsigned char 
  3111 ;;  port            1   44[BANK0 ] unsigned char 
  3112 ;;  MSBData         1   45[BANK0 ] unsigned char 
  3113 ;;  LSBData         1   46[BANK0 ] unsigned char 
  3114 ;; Auto vars:     Size  Location     Type
  3115 ;;  instruction     1   49[BANK0 ] unsigned char 
  3116 ;;  data            2   50[BANK0 ] unsigned int 
  3117 ;; Return value:  Size  Location     Type
  3118 ;;                  2   44[BANK0 ] unsigned int 
  3119 ;; Registers used:
  3120 ;;		wreg, fsr0l, fsr0h, status,2, status,0, btemp+1, pclath, cstack
  3121 ;; Tracked objects:
  3122 ;;		On entry : 0/0
  3123 ;;		On exit  : 0/0
  3124 ;;		Unchanged: 0/0
  3125 ;; Data sizes:     COMMON   BANK0   BANK1   BANK3   BANK2
  3126 ;;      Params:         0       3       0       0       0
  3127 ;;      Locals:         0       3       0       0       0
  3128 ;;      Temps:          0       2       0       0       0
  3129 ;;      Totals:         0       8       0       0       0
  3130 ;;Total ram usage:        8 bytes
  3131 ;; Hardware stack levels used:    1
  3132 ;; Hardware stack levels required when called:    2
  3133 ;; This function calls:
  3134 ;;		_PBRead
  3135 ;;		_USRead
  3136 ;;		_analogRead
  3137 ;;		_analogWrite
  3138 ;;		_digitalRead
  3139 ;;		_digitalWrite
  3140 ;;		_pinMode
  3141 ;; This function is called by:
  3142 ;;		_loop
  3143 ;; This function uses a non-reentrant model
  3144 ;;
  3145                           psect	text9,local,class=CODE,delta=2,merge=1,group=0
  3146                           	file	"LIFPIC.c"
  3147                           	line	123
  3148                           global __ptext9
  3149                           __ptext9:	;psect for function _ProcessCommand
  3150  0493                     psect	text9
  3151                           	file	"LIFPIC.c"
  3152                           	line	123
  3153                           	global	__size_of_ProcessCommand
  3154                           	__size_of_ProcessCommand	equ	__end_of_ProcessCommand-_ProcessCommand
  3155  013A                     	
  3156                           _ProcessCommand:	
  3157  0493                     ;incstack = 0
  3158                           	opt	stack 4
  3159                           ; Regs used in _ProcessCommand: [wreg-fsr0h+status,2+status,0+btemp+1+pclath+cstack]
  3160                           ;ProcessCommand@instruction stored from wreg
  3161                           	bcf	status, 5	;RP0=0, select bank0
  3162  0493  1283               	bcf	status, 6	;RP1=0, select bank0
  3163  0494  1303               	movwf	(ProcessCommand@instruction)
  3164  0495  00D1               	line	125
  3165                           	
  3166                           l3105:	
  3167  0496                     ;LIFPIC.c: 123: uint16_t ProcessCommand(uint8_t instruction, uint8_t port, uint8_t MSBDa
                                 ta, uint8_t LSBData);LIFPIC.c: 124: {;LIFPIC.c: 125:     uint16_t data = 0;
  3168                           	clrf	(ProcessCommand@data)
  3169  0496  01D2               	clrf	(ProcessCommand@data+1)
  3170  0497  01D3               	line	126
  3171                           ;LIFPIC.c: 126:   switch(instruction)
  3172                           	goto	l3207
  3173  0498  2DA4               	line	128
  3174                           ;LIFPIC.c: 127:   {;LIFPIC.c: 128:    case 0x05:
  3175                           	
  3176                           l94:	
  3177  0499                     	line	129
  3178                           	
  3179                           l3107:	
  3180  0499                     ;LIFPIC.c: 129:     if(port > 24)
  3181                           	movlw	low(019h)
  3182  0499  3019               	subwf	(ProcessCommand@port),w
  3183  049A  024C               	skipc
  3184  049B  1C03               	goto	u2121
  3185  049C  2C9E               	goto	u2120
  3186  049D  2C9F               u2121:
  3187  049E                     	goto	l3111
  3188  049E  2CA4               u2120:
  3189  049F                     	line	131
  3190                           	
  3191                           l3109:	
  3192  049F                     ;LIFPIC.c: 130:     {;LIFPIC.c: 131:      port = 24;
  3193                           	movlw	low(018h)
  3194  049F  3018               	movwf	(??_ProcessCommand+0)+0
  3195  04A0  00CF               	movf	(??_ProcessCommand+0)+0,w
  3196  04A1  084F               	movwf	(ProcessCommand@port)
  3197  04A2  00CC               	goto	l3111
  3198  04A3  2CA4               	line	132
  3199                           ;LIFPIC.c: 132:     }
  3200                           	
  3201                           l95:	
  3202  04A4                     	line	133
  3203                           	
  3204                           l3111:	
  3205  04A4                     ;LIFPIC.c: 133:     pinMode(port,LSBData);
  3206                           	movf	(ProcessCommand@LSBData),w
  3207  04A4  084E               	movwf	(??_ProcessCommand+0)+0
  3208  04A5  00CF               	movf	(??_ProcessCommand+0)+0,w
  3209  04A6  084F               	movwf	(pinMode@mode)
  3210  04A7  00F0               	movf	(ProcessCommand@port),w
  3211  04A8  084C               	fcall	_pinMode
  3212  04A9  120A  118A  2126  120A  118A  	line	134
  3213                           	
  3214                           l3113:	
  3215  04AE                     ;LIFPIC.c: 134:     return 1;
  3216                           	movlw	01h
  3217  04AE  3001               	bcf	status, 5	;RP0=0, select bank0
  3218  04AF  1283               	bcf	status, 6	;RP1=0, select bank0
  3219  04B0  1303               	movwf	(?_ProcessCommand)
  3220  04B1  00CC               	movlw	0
  3221  04B2  3000               	movwf	((?_ProcessCommand))+1
  3222  04B3  00CD               	goto	l96
  3223  04B4  2DCC               	
  3224                           l3115:	
  3225  04B5                     	goto	l96
  3226  04B5  2DCC               	line	135
  3227                           	
  3228                           l3117:	
  3229  04B6                     ;LIFPIC.c: 135:    break;
  3230                           	goto	l96
  3231  04B6  2DCC               	line	136
  3232                           ;LIFPIC.c: 136:    case 0x06:
  3233                           	
  3234                           l98:	
  3235  04B7                     	line	137
  3236                           	
  3237                           l3119:	
  3238  04B7                     ;LIFPIC.c: 137:     if(port > 24)
  3239                           	movlw	low(019h)
  3240  04B7  3019               	subwf	(ProcessCommand@port),w
  3241  04B8  024C               	skipc
  3242  04B9  1C03               	goto	u2131
  3243  04BA  2CBC               	goto	u2130
  3244  04BB  2CBD               u2131:
  3245  04BC                     	goto	l3123
  3246  04BC  2CC2               u2130:
  3247  04BD                     	line	139
  3248                           	
  3249                           l3121:	
  3250  04BD                     ;LIFPIC.c: 138:     {;LIFPIC.c: 139:      port = 24;
  3251                           	movlw	low(018h)
  3252  04BD  3018               	movwf	(??_ProcessCommand+0)+0
  3253  04BE  00CF               	movf	(??_ProcessCommand+0)+0,w
  3254  04BF  084F               	movwf	(ProcessCommand@port)
  3255  04C0  00CC               	goto	l3123
  3256  04C1  2CC2               	line	140
  3257                           ;LIFPIC.c: 140:     }
  3258                           	
  3259                           l99:	
  3260  04C2                     	line	141
  3261                           	
  3262                           l3123:	
  3263  04C2                     ;LIFPIC.c: 141:     digitalWrite(port,LSBData);
  3264                           	movf	(ProcessCommand@LSBData),w
  3265  04C2  084E               	movwf	(??_ProcessCommand+0)+0
  3266  04C3  00CF               	movf	(??_ProcessCommand+0)+0,w
  3267  04C4  084F               	movwf	(digitalWrite@value)
  3268  04C5  00F0               	movf	(ProcessCommand@port),w
  3269  04C6  084C               	fcall	_digitalWrite
  3270  04C7  120A  118A  2247  120A  118A  	line	142
  3271                           	
  3272                           l3125:	
  3273  04CC                     ;LIFPIC.c: 142:     return LSBData;
  3274                           	bcf	status, 5	;RP0=0, select bank0
  3275  04CC  1283               	bcf	status, 6	;RP1=0, select bank0
  3276  04CD  1303               	movf	(ProcessCommand@LSBData),w
  3277  04CE  084E               	movwf	(??_ProcessCommand+0)+0
  3278  04CF  00CF               	clrf	(??_ProcessCommand+0)+0+1
  3279  04D0  01D0               	movf	0+(??_ProcessCommand+0)+0,w
  3280  04D1  084F               	movwf	(?_ProcessCommand)
  3281  04D2  00CC               	movf	1+(??_ProcessCommand+0)+0,w
  3282  04D3  0850               	movwf	(?_ProcessCommand+1)
  3283  04D4  00CD               	goto	l96
  3284  04D5  2DCC               	
  3285                           l3127:	
  3286  04D6                     	goto	l96
  3287  04D6  2DCC               	line	143
  3288                           	
  3289                           l3129:	
  3290  04D7                     ;LIFPIC.c: 143:    break;
  3291                           	goto	l96
  3292  04D7  2DCC               	line	144
  3293                           ;LIFPIC.c: 144:    case 0x07:
  3294                           	
  3295                           l100:	
  3296  04D8                     	line	145
  3297                           	
  3298                           l3131:	
  3299  04D8                     ;LIFPIC.c: 145:     if(port > 24)
  3300                           	movlw	low(019h)
  3301  04D8  3019               	subwf	(ProcessCommand@port),w
  3302  04D9  024C               	skipc
  3303  04DA  1C03               	goto	u2141
  3304  04DB  2CDD               	goto	u2140
  3305  04DC  2CDE               u2141:
  3306  04DD                     	goto	l3135
  3307  04DD  2CE3               u2140:
  3308  04DE                     	line	147
  3309                           	
  3310                           l3133:	
  3311  04DE                     ;LIFPIC.c: 146:     {;LIFPIC.c: 147:      port = 24;
  3312                           	movlw	low(018h)
  3313  04DE  3018               	movwf	(??_ProcessCommand+0)+0
  3314  04DF  00CF               	movf	(??_ProcessCommand+0)+0,w
  3315  04E0  084F               	movwf	(ProcessCommand@port)
  3316  04E1  00CC               	goto	l3135
  3317  04E2  2CE3               	line	148
  3318                           ;LIFPIC.c: 148:     }
  3319                           	
  3320                           l101:	
  3321  04E3                     	line	149
  3322                           	
  3323                           l3135:	
  3324  04E3                     ;LIFPIC.c: 149:     return digitalRead(port);
  3325                           	movf	(ProcessCommand@port),w
  3326  04E3  084C               	fcall	_digitalRead
  3327  04E4  120A  118A  236A  120A  118A  	bcf	status, 5	;RP0=0, select bank0
  3328  04E9  1283               	bcf	status, 6	;RP1=0, select bank0
  3329  04EA  1303               	movwf	(??_ProcessCommand+0)+0
  3330  04EB  00CF               	clrf	(??_ProcessCommand+0)+0+1
  3331  04EC  01D0               	movf	0+(??_ProcessCommand+0)+0,w
  3332  04ED  084F               	movwf	(?_ProcessCommand)
  3333  04EE  00CC               	movf	1+(??_ProcessCommand+0)+0,w
  3334  04EF  0850               	movwf	(?_ProcessCommand+1)
  3335  04F0  00CD               	goto	l96
  3336  04F1  2DCC               	
  3337                           l3137:	
  3338  04F2                     	goto	l96
  3339  04F2  2DCC               	line	150
  3340                           	
  3341                           l3139:	
  3342  04F3                     ;LIFPIC.c: 150:    break;
  3343                           	goto	l96
  3344  04F3  2DCC               	line	151
  3345                           ;LIFPIC.c: 151:    case 0x08:
  3346                           	
  3347                           l102:	
  3348  04F4                     	line	152
  3349                           	
  3350                           l3141:	
  3351  04F4                     ;LIFPIC.c: 152:     return analogRead(port);
  3352                           	movf	(ProcessCommand@port),w
  3353  04F4  084C               	fcall	_analogRead
  3354  04F5  120A  158A  243D  120A  118A  	movf	(1+(?_analogRead)),w
  3355  04FA  0871               	bcf	status, 5	;RP0=0, select bank0
  3356  04FB  1283               	bcf	status, 6	;RP1=0, select bank0
  3357  04FC  1303               	movwf	(?_ProcessCommand+1)
  3358  04FD  00CD               	movf	(0+(?_analogRead)),w
  3359  04FE  0870               	movwf	(?_ProcessCommand)
  3360  04FF  00CC               	goto	l96
  3361  0500  2DCC               	
  3362                           l3143:	
  3363  0501                     	goto	l96
  3364  0501  2DCC               	line	153
  3365                           	
  3366                           l3145:	
  3367  0502                     ;LIFPIC.c: 153:    break;
  3368                           	goto	l96
  3369  0502  2DCC               	line	154
  3370                           ;LIFPIC.c: 154:    case 0x09:
  3371                           	
  3372                           l103:	
  3373  0503                     	line	164
  3374                           	
  3375                           l3147:	
  3376  0503                     ;LIFPIC.c: 164:                 data = (MSBData << 8) + LSBData;
  3377                           	movf	(ProcessCommand@MSBData),w
  3378  0503  084D               	movwf	(??_ProcessCommand+0)+0
  3379  0504  00CF               	clrf	(??_ProcessCommand+0)+0+1
  3380  0505  01D0               	movf	(??_ProcessCommand+0)+0,w
  3381  0506  084F               	movwf	(??_ProcessCommand+0)+1
  3382  0507  00D0               	clrf	(??_ProcessCommand+0)+0
  3383  0508  01CF               	movf	(ProcessCommand@LSBData),w
  3384  0509  084E               	addwf	0+(??_ProcessCommand+0)+0,w
  3385  050A  074F               	movwf	(ProcessCommand@data)
  3386  050B  00D2               	movlw	0
  3387  050C  3000               	skipnc
  3388  050D  1803               	movlw	1
  3389  050E  3001               	addwf	1+(??_ProcessCommand+0)+0,w
  3390  050F  0750               	movwf	1+(ProcessCommand@data)
  3391  0510  00D3               	line	165
  3392                           	
  3393                           l3149:	
  3394  0511                     ;LIFPIC.c: 165:     analogWrite(port,data);
  3395                           	movf	(ProcessCommand@data+1),w
  3396  0511  0853               	movwf	(analogWrite@value+1)
  3397  0512  00F1               	movf	(ProcessCommand@data),w
  3398  0513  0852               	movwf	(analogWrite@value)
  3399  0514  00F0               	movf	(ProcessCommand@port),w
  3400  0515  084C               	fcall	_analogWrite
  3401  0516  120A  158A  22DD  120A  118A  	line	166
  3402                           	
  3403                           l3151:	
  3404  051B                     ;LIFPIC.c: 166:     return port;
  3405                           	bcf	status, 5	;RP0=0, select bank0
  3406  051B  1283               	bcf	status, 6	;RP1=0, select bank0
  3407  051C  1303               	movf	(ProcessCommand@port),w
  3408  051D  084C               	movwf	(??_ProcessCommand+0)+0
  3409  051E  00CF               	clrf	(??_ProcessCommand+0)+0+1
  3410  051F  01D0               	movf	0+(??_ProcessCommand+0)+0,w
  3411  0520  084F               	movwf	(?_ProcessCommand)
  3412  0521  00CC               	movf	1+(??_ProcessCommand+0)+0,w
  3413  0522  0850               	movwf	(?_ProcessCommand+1)
  3414  0523  00CD               	goto	l96
  3415  0524  2DCC               	
  3416                           l3153:	
  3417  0525                     	goto	l96
  3418  0525  2DCC               	line	167
  3419                           	
  3420                           l3155:	
  3421  0526                     ;LIFPIC.c: 167:    break;
  3422                           	goto	l96
  3423  0526  2DCC               	line	168
  3424                           ;LIFPIC.c: 168:             case 0x0A:
  3425                           	
  3426                           l104:	
  3427  0527                     	line	169
  3428                           	
  3429                           l3157:	
  3430  0527                     ;LIFPIC.c: 169:                 return PBRead(port);
  3431                           	movf	(ProcessCommand@port),w
  3432  0527  084C               	fcall	_PBRead
  3433  0528  120A  158A  23D6  120A  118A  	bcf	status, 5	;RP0=0, select bank0
  3434  052D  1283               	bcf	status, 6	;RP1=0, select bank0
  3435  052E  1303               	movwf	(??_ProcessCommand+0)+0
  3436  052F  00CF               	clrf	(??_ProcessCommand+0)+0+1
  3437  0530  01D0               	movf	0+(??_ProcessCommand+0)+0,w
  3438  0531  084F               	movwf	(?_ProcessCommand)
  3439  0532  00CC               	movf	1+(??_ProcessCommand+0)+0,w
  3440  0533  0850               	movwf	(?_ProcessCommand+1)
  3441  0534  00CD               	goto	l96
  3442  0535  2DCC               	
  3443                           l3159:	
  3444  0536                     	goto	l96
  3445  0536  2DCC               	line	170
  3446                           	
  3447                           l3161:	
  3448  0537                     ;LIFPIC.c: 170:             break;
  3449                           	goto	l96
  3450  0537  2DCC               	line	171
  3451                           ;LIFPIC.c: 171:             case 0x0B:
  3452                           	
  3453                           l105:	
  3454  0538                     	line	172
  3455                           	
  3456                           l3163:	
  3457  0538                     ;LIFPIC.c: 172:                 if(port == 0x0B)
  3458                           		movlw	11
  3459  0538  300B               	xorwf	((ProcessCommand@port)),w
  3460  0539  064C               	btfss	status,2
  3461  053A  1D03               	goto	u2151
  3462  053B  2D3D               	goto	u2150
  3463  053C  2D3E               u2151:
  3464  053D                     	goto	l3171
  3465  053D  2D48               u2150:
  3466  053E                     	line	174
  3467                           	
  3468                           l3165:	
  3469  053E                     ;LIFPIC.c: 173:                 {;LIFPIC.c: 174:                     return PORTB;
  3470                           	movf	(6),w	;volatile
  3471  053E  0806               	movwf	(??_ProcessCommand+0)+0
  3472  053F  00CF               	clrf	(??_ProcessCommand+0)+0+1
  3473  0540  01D0               	movf	0+(??_ProcessCommand+0)+0,w
  3474  0541  084F               	movwf	(?_ProcessCommand)
  3475  0542  00CC               	movf	1+(??_ProcessCommand+0)+0,w
  3476  0543  0850               	movwf	(?_ProcessCommand+1)
  3477  0544  00CD               	goto	l96
  3478  0545  2DCC               	
  3479                           l3167:	
  3480  0546                     	goto	l96
  3481  0546  2DCC               	line	175
  3482                           	
  3483                           l3169:	
  3484  0547                     ;LIFPIC.c: 175:                 }
  3485                           	goto	l96
  3486  0547  2DCC               	line	176
  3487                           ;LIFPIC.c: 176:                 else if(port == 0x0D)
  3488                           	
  3489                           l106:	
  3490  0548                     	
  3491                           l3171:	
  3492  0548                     		movlw	13
  3493  0548  300D               	xorwf	((ProcessCommand@port)),w
  3494  0549  064C               	btfss	status,2
  3495  054A  1D03               	goto	u2161
  3496  054B  2D4D               	goto	u2160
  3497  054C  2D4E               u2161:
  3498  054D                     	goto	l96
  3499  054D  2DCC               u2160:
  3500  054E                     	line	178
  3501                           	
  3502                           l3173:	
  3503  054E                     ;LIFPIC.c: 177:                 {;LIFPIC.c: 178:                     return PORTD;
  3504                           	movf	(8),w	;volatile
  3505  054E  0808               	movwf	(??_ProcessCommand+0)+0
  3506  054F  00CF               	clrf	(??_ProcessCommand+0)+0+1
  3507  0550  01D0               	movf	0+(??_ProcessCommand+0)+0,w
  3508  0551  084F               	movwf	(?_ProcessCommand)
  3509  0552  00CC               	movf	1+(??_ProcessCommand+0)+0,w
  3510  0553  0850               	movwf	(?_ProcessCommand+1)
  3511  0554  00CD               	goto	l96
  3512  0555  2DCC               	
  3513                           l3175:	
  3514  0556                     	goto	l96
  3515  0556  2DCC               	line	179
  3516                           ;LIFPIC.c: 179:                 }
  3517                           	
  3518                           l108:	
  3519  0557                     	goto	l96
  3520  0557  2DCC               	
  3521                           l107:	
  3522  0558                     	line	180
  3523                           ;LIFPIC.c: 180:                 break;
  3524                           	goto	l96
  3525  0558  2DCC               	line	181
  3526                           ;LIFPIC.c: 181:             case 0x0C:
  3527                           	
  3528                           l109:	
  3529  0559                     	line	182
  3530                           	
  3531                           l3177:	
  3532  0559                     ;LIFPIC.c: 182:                 if(port == 0x0B)
  3533                           		movlw	11
  3534  0559  300B               	xorwf	((ProcessCommand@port)),w
  3535  055A  064C               	btfss	status,2
  3536  055B  1D03               	goto	u2171
  3537  055C  2D5E               	goto	u2170
  3538  055D  2D5F               u2171:
  3539  055E                     	goto	l3181
  3540  055E  2D62               u2170:
  3541  055F                     	line	184
  3542                           	
  3543                           l3179:	
  3544  055F                     ;LIFPIC.c: 183:                 {;LIFPIC.c: 184:                     PORTB = LSBData;
  3545                           	movf	(ProcessCommand@LSBData),w
  3546  055F  084E               	movwf	(6)	;volatile
  3547  0560  0086               	line	185
  3548                           ;LIFPIC.c: 185:                 }
  3549                           	goto	l96
  3550  0561  2DCC               	line	186
  3551                           ;LIFPIC.c: 186:                 else if(port == 0x0D)
  3552                           	
  3553                           l110:	
  3554  0562                     	
  3555                           l3181:	
  3556  0562                     		movlw	13
  3557  0562  300D               	xorwf	((ProcessCommand@port)),w
  3558  0563  064C               	btfss	status,2
  3559  0564  1D03               	goto	u2181
  3560  0565  2D67               	goto	u2180
  3561  0566  2D68               u2181:
  3562  0567                     	goto	l96
  3563  0567  2DCC               u2180:
  3564  0568                     	line	188
  3565                           	
  3566                           l3183:	
  3567  0568                     ;LIFPIC.c: 187:                 {;LIFPIC.c: 188:                     PORTD = LSBData;
  3568                           	movf	(ProcessCommand@LSBData),w
  3569  0568  084E               	movwf	(8)	;volatile
  3570  0569  0088               	goto	l96
  3571  056A  2DCC               	line	189
  3572                           ;LIFPIC.c: 189:                 }
  3573                           	
  3574                           l112:	
  3575  056B                     	goto	l96
  3576  056B  2DCC               	
  3577                           l111:	
  3578  056C                     	line	190
  3579                           ;LIFPIC.c: 190:                 break;
  3580                           	goto	l96
  3581  056C  2DCC               	line	191
  3582                           ;LIFPIC.c: 191:             case 0x0D:
  3583                           	
  3584                           l113:	
  3585  056D                     	line	192
  3586                           	
  3587                           l3185:	
  3588  056D                     ;LIFPIC.c: 192:                 data = USRead(Trigger,Echo);
  3589                           	movf	(_Echo),w
  3590  056D  0869               	movwf	(??_ProcessCommand+0)+0
  3591  056E  00CF               	movf	(??_ProcessCommand+0)+0,w
  3592  056F  084F               	movwf	(USRead@echo)
  3593  0570  00C5               	movf	(_Trigger),w
  3594  0571  086A               	fcall	_USRead
  3595  0572  120A  158A  24C3  120A  118A  	bcf	status, 5	;RP0=0, select bank0
  3596  0577  1283               	bcf	status, 6	;RP1=0, select bank0
  3597  0578  1303               	movf	(1+(?_USRead)),w
  3598  0579  0846               	movwf	(ProcessCommand@data+1)
  3599  057A  00D3               	movf	(0+(?_USRead)),w
  3600  057B  0845               	movwf	(ProcessCommand@data)
  3601  057C  00D2               	line	193
  3602                           	
  3603                           l3187:	
  3604  057D                     ;LIFPIC.c: 193:                 return data;
  3605                           	movf	(ProcessCommand@data+1),w
  3606  057D  0853               	movwf	(?_ProcessCommand+1)
  3607  057E  00CD               	movf	(ProcessCommand@data),w
  3608  057F  0852               	movwf	(?_ProcessCommand)
  3609  0580  00CC               	goto	l96
  3610  0581  2DCC               	
  3611                           l3189:	
  3612  0582                     	goto	l96
  3613  0582  2DCC               	line	194
  3614                           	
  3615                           l3191:	
  3616  0583                     ;LIFPIC.c: 194:                 break;
  3617                           	goto	l96
  3618  0583  2DCC               	line	195
  3619                           ;LIFPIC.c: 195:             case 0x15:
  3620                           	
  3621                           l114:	
  3622  0584                     	line	196
  3623                           	
  3624                           l3193:	
  3625  0584                     ;LIFPIC.c: 196:                 if(port == 0x0B)
  3626                           		movlw	11
  3627  0584  300B               	xorwf	((ProcessCommand@port)),w
  3628  0585  064C               	btfss	status,2
  3629  0586  1D03               	goto	u2191
  3630  0587  2D89               	goto	u2190
  3631  0588  2D8A               u2191:
  3632  0589                     	goto	l3197
  3633  0589  2D8F               u2190:
  3634  058A                     	line	198
  3635                           	
  3636                           l3195:	
  3637  058A                     ;LIFPIC.c: 197:                 {;LIFPIC.c: 198:                     TRISB = LSBData;
  3638                           	movf	(ProcessCommand@LSBData),w
  3639  058A  084E               	bsf	status, 5	;RP0=1, select bank1
  3640  058B  1683               	bcf	status, 6	;RP1=0, select bank1
  3641  058C  1303               	movwf	(134)^080h	;volatile
  3642  058D  0086               	line	199
  3643                           ;LIFPIC.c: 199:                 }
  3644                           	goto	l116
  3645  058E  2D9B               	line	200
  3646                           ;LIFPIC.c: 200:                 else if(port == 0x0D)
  3647                           	
  3648                           l115:	
  3649  058F                     	
  3650                           l3197:	
  3651  058F                     		movlw	13
  3652  058F  300D               	bcf	status, 5	;RP0=0, select bank0
  3653  0590  1283               	xorwf	((ProcessCommand@port)),w
  3654  0591  064C               	btfss	status,2
  3655  0592  1D03               	goto	u2201
  3656  0593  2D95               	goto	u2200
  3657  0594  2D96               u2201:
  3658  0595                     	goto	l116
  3659  0595  2D9B               u2200:
  3660  0596                     	line	202
  3661                           	
  3662                           l3199:	
  3663  0596                     ;LIFPIC.c: 201:                 {;LIFPIC.c: 202:                     TRISD = LSBData;
  3664                           	movf	(ProcessCommand@LSBData),w
  3665  0596  084E               	bsf	status, 5	;RP0=1, select bank1
  3666  0597  1683               	bcf	status, 6	;RP1=0, select bank1
  3667  0598  1303               	movwf	(136)^080h	;volatile
  3668  0599  0088               	goto	l116
  3669  059A  2D9B               	line	203
  3670                           ;LIFPIC.c: 203:                 }
  3671                           	
  3672                           l117:	
  3673  059B                     	
  3674                           l116:	
  3675  059B                     	line	204
  3676                           ;LIFPIC.c: 204:                 return 0x15;
  3677                           	movlw	015h
  3678  059B  3015               	bcf	status, 5	;RP0=0, select bank0
  3679  059C  1283               	movwf	(?_ProcessCommand)
  3680  059D  00CC               	movlw	0
  3681  059E  3000               	movwf	((?_ProcessCommand))+1
  3682  059F  00CD               	goto	l96
  3683  05A0  2DCC               	
  3684                           l3201:	
  3685  05A1                     	goto	l96
  3686  05A1  2DCC               	line	205
  3687                           	
  3688                           l3203:	
  3689  05A2                     ;LIFPIC.c: 205:                 break;
  3690                           	goto	l96
  3691  05A2  2DCC               	line	206
  3692                           	
  3693                           l3205:	
  3694  05A3                     ;LIFPIC.c: 206:   }
  3695                           	goto	l96
  3696  05A3  2DCC               	
  3697                           l93:	
  3698  05A4                     	
  3699                           l3207:	
  3700  05A4                     	movf	(ProcessCommand@instruction),w
  3701  05A4  0851               	movwf	(??_ProcessCommand+0)+0
  3702  05A5  00CF               	clrf	(??_ProcessCommand+0)+0+1
  3703  05A6  01D0               	; Switch on 2 bytes has been partitioned into a top level switch of size 1, and 1 sub-s
                                 witches
  3704                           ; Switch size 1, requested type "space"
  3705                           ; Number of cases is 1, Range of values is 0 to 0
  3706                           ; switch strategies available:
  3707                           ; Name         Instructions Cycles
  3708                           ; simple_byte            4     3 (average)
  3709                           ; direct_byte           11     8 (fixed)
  3710                           ; jumptable            260     6 (fixed)
  3711                           ;	Chosen strategy is simple_byte
  3712                           
  3713                           	movf 1+(??_ProcessCommand+0)+0,w
  3714  05A7  0850               	opt asmopt_push
  3715                           	opt asmopt_off
  3716                           	xorlw	0^0	; case 0
  3717  05A8  3A00               	skipnz
  3718  05A9  1903               	goto	l3525
  3719  05AA  2DAC               	goto	l96
  3720  05AB  2DCC               	opt asmopt_pop
  3721                           	
  3722                           l3525:	
  3723  05AC                     ; Switch size 1, requested type "space"
  3724                           ; Number of cases is 10, Range of values is 5 to 21
  3725                           ; switch strategies available:
  3726                           ; Name         Instructions Cycles
  3727                           ; simple_byte           31    16 (average)
  3728                           ; direct_byte           62    11 (fixed)
  3729                           ; jumptable            263     9 (fixed)
  3730                           ;	Chosen strategy is simple_byte
  3731                           
  3732                           	movf 0+(??_ProcessCommand+0)+0,w
  3733  05AC  084F               	opt asmopt_push
  3734                           	opt asmopt_off
  3735                           	xorlw	5^0	; case 5
  3736  05AD  3A05               	skipnz
  3737  05AE  1903               	goto	l3107
  3738  05AF  2C99               	xorlw	6^5	; case 6
  3739  05B0  3A03               	skipnz
  3740  05B1  1903               	goto	l3119
  3741  05B2  2CB7               	xorlw	7^6	; case 7
  3742  05B3  3A01               	skipnz
  3743  05B4  1903               	goto	l3131
  3744  05B5  2CD8               	xorlw	8^7	; case 8
  3745  05B6  3A0F               	skipnz
  3746  05B7  1903               	goto	l3141
  3747  05B8  2CF4               	xorlw	9^8	; case 9
  3748  05B9  3A01               	skipnz
  3749  05BA  1903               	goto	l3147
  3750  05BB  2D03               	xorlw	10^9	; case 10
  3751  05BC  3A03               	skipnz
  3752  05BD  1903               	goto	l3157
  3753  05BE  2D27               	xorlw	11^10	; case 11
  3754  05BF  3A01               	skipnz
  3755  05C0  1903               	goto	l3163
  3756  05C1  2D38               	xorlw	12^11	; case 12
  3757  05C2  3A07               	skipnz
  3758  05C3  1903               	goto	l3177
  3759  05C4  2D59               	xorlw	13^12	; case 13
  3760  05C5  3A01               	skipnz
  3761  05C6  1903               	goto	l3185
  3762  05C7  2D6D               	xorlw	21^13	; case 21
  3763  05C8  3A18               	skipnz
  3764  05C9  1903               	goto	l3193
  3765  05CA  2D84               	goto	l96
  3766  05CB  2DCC               	opt asmopt_pop
  3767                           
  3768                           	
  3769                           l97:	
  3770  05CC                     	line	207
  3771                           	
  3772                           l96:	
  3773  05CC                     	return
  3774  05CC  0008               	opt stack 0
  3775                           GLOBAL	__end_of_ProcessCommand
  3776                           	__end_of_ProcessCommand:
  3777  05CD                     	signat	_ProcessCommand,16506
  3778                           	global	_pinMode
  3779                           
  3780 ;; *************** function _pinMode *****************
  3781 ;; Defined at:
  3782 ;;		line 60 in file "Hormiga877.c"
  3783 ;; Parameters:    Size  Location     Type
  3784 ;;  pin             1    wreg     unsigned char 
  3785 ;;  mode            1    0[COMMON] unsigned char 
  3786 ;; Auto vars:     Size  Location     Type
  3787 ;;  pin             1    3[COMMON] unsigned char 
  3788 ;; Return value:  Size  Location     Type
  3789 ;;                  1    wreg      void 
  3790 ;; Registers used:
  3791 ;;		wreg, fsr0l, fsr0h, status,2, status,0
  3792 ;; Tracked objects:
  3793 ;;		On entry : 0/0
  3794 ;;		On exit  : 0/0
  3795 ;;		Unchanged: 0/0
  3796 ;; Data sizes:     COMMON   BANK0   BANK1   BANK3   BANK2
  3797 ;;      Params:         1       0       0       0       0
  3798 ;;      Locals:         1       0       0       0       0
  3799 ;;      Temps:          2       0       0       0       0
  3800 ;;      Totals:         4       0       0       0       0
  3801 ;;Total ram usage:        4 bytes
  3802 ;; Hardware stack levels used:    1
  3803 ;; This function calls:
  3804 ;;		Nothing
  3805 ;; This function is called by:
  3806 ;;		_setup
  3807 ;;		_ProcessCommand
  3808 ;;		_USBegin
  3809 ;; This function uses a non-reentrant model
  3810 ;;
  3811                           psect	text10,local,class=CODE,delta=2,merge=1,group=0
  3812                           	file	"Hormiga877.c"
  3813                           	line	60
  3814                           global __ptext10
  3815                           __ptext10:	;psect for function _pinMode
  3816  0126                     psect	text10
  3817                           	file	"Hormiga877.c"
  3818                           	line	60
  3819                           	global	__size_of_pinMode
  3820                           	__size_of_pinMode	equ	__end_of_pinMode-_pinMode
  3821  0121                     	
  3822                           _pinMode:	
  3823  0126                     ;incstack = 0
  3824                           	opt	stack 6
  3825                           ; Regs used in _pinMode: [wreg-fsr0h+status,2+status,0]
  3826                           ;pinMode@pin stored from wreg
  3827                           	movwf	(pinMode@pin)
  3828  0126  00F3               	line	62
  3829                           	
  3830                           l2793:	
  3831  0127                     ;Hormiga877.c: 60: void pinMode(char pin, char mode);Hormiga877.c: 61: {;Hormiga877.c: 6
                                 2:     switch(pin)
  3832                           	goto	l2847
  3833  0127  29F1               	line	64
  3834                           ;Hormiga877.c: 63:     {;Hormiga877.c: 64:         case 0:
  3835                           	
  3836                           l274:	
  3837  0128                     	line	65
  3838                           	
  3839                           l2795:	
  3840  0128                     ;Hormiga877.c: 65:             TRISCbits.TRISC7 = mode;
  3841                           	rrf	(pinMode@mode),w
  3842  0128  0C70               	bsf	status, 5	;RP0=1, select bank1
  3843  0129  1683               	bcf	status, 6	;RP1=0, select bank1
  3844  012A  1303               	skipc
  3845  012B  1C03               	bcf	(135)^080h,7	;volatile
  3846  012C  1387               	skipnc
  3847  012D  1803               	bsf	(135)^080h,7	;volatile
  3848  012E  1787               	line	66
  3849                           ;Hormiga877.c: 66:             break;
  3850                           	goto	l300
  3851  012F  2A46               	line	67
  3852                           ;Hormiga877.c: 67:         case 1:
  3853                           	
  3854                           l276:	
  3855  0130                     	line	68
  3856                           	
  3857                           l2797:	
  3858  0130                     ;Hormiga877.c: 68:             TRISCbits.TRISC6 = mode;
  3859                           	rrf	(pinMode@mode),w
  3860  0130  0C70               	bsf	status, 5	;RP0=1, select bank1
  3861  0131  1683               	bcf	status, 6	;RP1=0, select bank1
  3862  0132  1303               	skipc
  3863  0133  1C03               	bcf	(135)^080h,6	;volatile
  3864  0134  1307               	skipnc
  3865  0135  1803               	bsf	(135)^080h,6	;volatile
  3866  0136  1707               	line	69
  3867                           ;Hormiga877.c: 69:             break;
  3868                           	goto	l300
  3869  0137  2A46               	line	70
  3870                           ;Hormiga877.c: 70:         case 2:
  3871                           	
  3872                           l277:	
  3873  0138                     	line	71
  3874                           	
  3875                           l2799:	
  3876  0138                     ;Hormiga877.c: 71:             TRISCbits.TRISC5 = mode;
  3877                           	rrf	(pinMode@mode),w
  3878  0138  0C70               	bsf	status, 5	;RP0=1, select bank1
  3879  0139  1683               	bcf	status, 6	;RP1=0, select bank1
  3880  013A  1303               	skipc
  3881  013B  1C03               	bcf	(135)^080h,5	;volatile
  3882  013C  1287               	skipnc
  3883  013D  1803               	bsf	(135)^080h,5	;volatile
  3884  013E  1687               	line	72
  3885                           ;Hormiga877.c: 72:             break;
  3886                           	goto	l300
  3887  013F  2A46               	line	73
  3888                           ;Hormiga877.c: 73:         case 3:
  3889                           	
  3890                           l278:	
  3891  0140                     	line	74
  3892                           	
  3893                           l2801:	
  3894  0140                     ;Hormiga877.c: 74:             TRISCbits.TRISC4 = mode;
  3895                           	rrf	(pinMode@mode),w
  3896  0140  0C70               	bsf	status, 5	;RP0=1, select bank1
  3897  0141  1683               	bcf	status, 6	;RP1=0, select bank1
  3898  0142  1303               	skipc
  3899  0143  1C03               	bcf	(135)^080h,4	;volatile
  3900  0144  1207               	skipnc
  3901  0145  1803               	bsf	(135)^080h,4	;volatile
  3902  0146  1607               	line	75
  3903                           ;Hormiga877.c: 75:             break;
  3904                           	goto	l300
  3905  0147  2A46               	line	76
  3906                           ;Hormiga877.c: 76:         case 4:
  3907                           	
  3908                           l279:	
  3909  0148                     	line	77
  3910                           	
  3911                           l2803:	
  3912  0148                     ;Hormiga877.c: 77:             TRISCbits.TRISC3 = mode;
  3913                           	rrf	(pinMode@mode),w
  3914  0148  0C70               	bsf	status, 5	;RP0=1, select bank1
  3915  0149  1683               	bcf	status, 6	;RP1=0, select bank1
  3916  014A  1303               	skipc
  3917  014B  1C03               	bcf	(135)^080h,3	;volatile
  3918  014C  1187               	skipnc
  3919  014D  1803               	bsf	(135)^080h,3	;volatile
  3920  014E  1587               	line	78
  3921                           ;Hormiga877.c: 78:             break;
  3922                           	goto	l300
  3923  014F  2A46               	line	79
  3924                           ;Hormiga877.c: 79:         case 5:
  3925                           	
  3926                           l280:	
  3927  0150                     	line	80
  3928                           	
  3929                           l2805:	
  3930  0150                     ;Hormiga877.c: 80:             TRISCbits.TRISC2 = mode;
  3931                           	rrf	(pinMode@mode),w
  3932  0150  0C70               	bsf	status, 5	;RP0=1, select bank1
  3933  0151  1683               	bcf	status, 6	;RP1=0, select bank1
  3934  0152  1303               	skipc
  3935  0153  1C03               	bcf	(135)^080h,2	;volatile
  3936  0154  1107               	skipnc
  3937  0155  1803               	bsf	(135)^080h,2	;volatile
  3938  0156  1507               	line	82
  3939                           ;Hormiga877.c: 82:             break;
  3940                           	goto	l300
  3941  0157  2A46               	line	83
  3942                           ;Hormiga877.c: 83:         case 6:
  3943                           	
  3944                           l281:	
  3945  0158                     	line	84
  3946                           	
  3947                           l2807:	
  3948  0158                     ;Hormiga877.c: 84:             TRISCbits.TRISC1 = mode;
  3949                           	rrf	(pinMode@mode),w
  3950  0158  0C70               	bsf	status, 5	;RP0=1, select bank1
  3951  0159  1683               	bcf	status, 6	;RP1=0, select bank1
  3952  015A  1303               	skipc
  3953  015B  1C03               	bcf	(135)^080h,1	;volatile
  3954  015C  1087               	skipnc
  3955  015D  1803               	bsf	(135)^080h,1	;volatile
  3956  015E  1487               	line	86
  3957                           ;Hormiga877.c: 86:             break;
  3958                           	goto	l300
  3959  015F  2A46               	line	87
  3960                           ;Hormiga877.c: 87:         case 7:
  3961                           	
  3962                           l282:	
  3963  0160                     	line	88
  3964                           	
  3965                           l2809:	
  3966  0160                     ;Hormiga877.c: 88:             TRISCbits.TRISC0 = mode;
  3967                           	rrf	(pinMode@mode),w
  3968  0160  0C70               	bsf	status, 5	;RP0=1, select bank1
  3969  0161  1683               	bcf	status, 6	;RP1=0, select bank1
  3970  0162  1303               	skipc
  3971  0163  1C03               	bcf	(135)^080h,0	;volatile
  3972  0164  1007               	skipnc
  3973  0165  1803               	bsf	(135)^080h,0	;volatile
  3974  0166  1407               	line	89
  3975                           ;Hormiga877.c: 89:             break;
  3976                           	goto	l300
  3977  0167  2A46               	line	90
  3978                           ;Hormiga877.c: 90:         case 8:
  3979                           	
  3980                           l283:	
  3981  0168                     	line	91
  3982                           	
  3983                           l2811:	
  3984  0168                     ;Hormiga877.c: 91:             TRISBbits.TRISB0 = mode;
  3985                           	rrf	(pinMode@mode),w
  3986  0168  0C70               	bsf	status, 5	;RP0=1, select bank1
  3987  0169  1683               	bcf	status, 6	;RP1=0, select bank1
  3988  016A  1303               	skipc
  3989  016B  1C03               	bcf	(134)^080h,0	;volatile
  3990  016C  1006               	skipnc
  3991  016D  1803               	bsf	(134)^080h,0	;volatile
  3992  016E  1406               	line	92
  3993                           ;Hormiga877.c: 92:             break;
  3994                           	goto	l300
  3995  016F  2A46               	line	93
  3996                           ;Hormiga877.c: 93:         case 9:
  3997                           	
  3998                           l284:	
  3999  0170                     	line	94
  4000                           	
  4001                           l2813:	
  4002  0170                     ;Hormiga877.c: 94:             TRISBbits.TRISB1 = mode;
  4003                           	rrf	(pinMode@mode),w
  4004  0170  0C70               	bsf	status, 5	;RP0=1, select bank1
  4005  0171  1683               	bcf	status, 6	;RP1=0, select bank1
  4006  0172  1303               	skipc
  4007  0173  1C03               	bcf	(134)^080h,1	;volatile
  4008  0174  1086               	skipnc
  4009  0175  1803               	bsf	(134)^080h,1	;volatile
  4010  0176  1486               	line	95
  4011                           ;Hormiga877.c: 95:             break;
  4012                           	goto	l300
  4013  0177  2A46               	line	96
  4014                           ;Hormiga877.c: 96:         case 10:
  4015                           	
  4016                           l285:	
  4017  0178                     	line	97
  4018                           	
  4019                           l2815:	
  4020  0178                     ;Hormiga877.c: 97:             TRISBbits.TRISB2 = mode;
  4021                           	rrf	(pinMode@mode),w
  4022  0178  0C70               	bsf	status, 5	;RP0=1, select bank1
  4023  0179  1683               	bcf	status, 6	;RP1=0, select bank1
  4024  017A  1303               	skipc
  4025  017B  1C03               	bcf	(134)^080h,2	;volatile
  4026  017C  1106               	skipnc
  4027  017D  1803               	bsf	(134)^080h,2	;volatile
  4028  017E  1506               	line	98
  4029                           ;Hormiga877.c: 98:             break;
  4030                           	goto	l300
  4031  017F  2A46               	line	99
  4032                           ;Hormiga877.c: 99:         case 11:
  4033                           	
  4034                           l286:	
  4035  0180                     	line	100
  4036                           	
  4037                           l2817:	
  4038  0180                     ;Hormiga877.c: 100:             TRISBbits.TRISB3 = mode;
  4039                           	rrf	(pinMode@mode),w
  4040  0180  0C70               	bsf	status, 5	;RP0=1, select bank1
  4041  0181  1683               	bcf	status, 6	;RP1=0, select bank1
  4042  0182  1303               	skipc
  4043  0183  1C03               	bcf	(134)^080h,3	;volatile
  4044  0184  1186               	skipnc
  4045  0185  1803               	bsf	(134)^080h,3	;volatile
  4046  0186  1586               	line	101
  4047                           ;Hormiga877.c: 101:             break;
  4048                           	goto	l300
  4049  0187  2A46               	line	102
  4050                           ;Hormiga877.c: 102:         case 12:
  4051                           	
  4052                           l287:	
  4053  0188                     	line	103
  4054                           	
  4055                           l2819:	
  4056  0188                     ;Hormiga877.c: 103:             TRISBbits.TRISB4 = mode;
  4057                           	rrf	(pinMode@mode),w
  4058  0188  0C70               	bsf	status, 5	;RP0=1, select bank1
  4059  0189  1683               	bcf	status, 6	;RP1=0, select bank1
  4060  018A  1303               	skipc
  4061  018B  1C03               	bcf	(134)^080h,4	;volatile
  4062  018C  1206               	skipnc
  4063  018D  1803               	bsf	(134)^080h,4	;volatile
  4064  018E  1606               	line	104
  4065                           ;Hormiga877.c: 104:             break;
  4066                           	goto	l300
  4067  018F  2A46               	line	105
  4068                           ;Hormiga877.c: 105:         case 13:
  4069                           	
  4070                           l288:	
  4071  0190                     	line	106
  4072                           	
  4073                           l2821:	
  4074  0190                     ;Hormiga877.c: 106:             TRISBbits.TRISB5 = mode;
  4075                           	rrf	(pinMode@mode),w
  4076  0190  0C70               	bsf	status, 5	;RP0=1, select bank1
  4077  0191  1683               	bcf	status, 6	;RP1=0, select bank1
  4078  0192  1303               	skipc
  4079  0193  1C03               	bcf	(134)^080h,5	;volatile
  4080  0194  1286               	skipnc
  4081  0195  1803               	bsf	(134)^080h,5	;volatile
  4082  0196  1686               	line	107
  4083                           ;Hormiga877.c: 107:             break;
  4084                           	goto	l300
  4085  0197  2A46               	line	108
  4086                           ;Hormiga877.c: 108:         case 14:
  4087                           	
  4088                           l289:	
  4089  0198                     	line	109
  4090                           	
  4091                           l2823:	
  4092  0198                     ;Hormiga877.c: 109:             TRISBbits.TRISB6 = mode;
  4093                           	rrf	(pinMode@mode),w
  4094  0198  0C70               	bsf	status, 5	;RP0=1, select bank1
  4095  0199  1683               	bcf	status, 6	;RP1=0, select bank1
  4096  019A  1303               	skipc
  4097  019B  1C03               	bcf	(134)^080h,6	;volatile
  4098  019C  1306               	skipnc
  4099  019D  1803               	bsf	(134)^080h,6	;volatile
  4100  019E  1706               	line	110
  4101                           ;Hormiga877.c: 110:             break;
  4102                           	goto	l300
  4103  019F  2A46               	line	111
  4104                           ;Hormiga877.c: 111:         case 15:
  4105                           	
  4106                           l290:	
  4107  01A0                     	line	112
  4108                           	
  4109                           l2825:	
  4110  01A0                     ;Hormiga877.c: 112:             TRISBbits.TRISB7 = mode;
  4111                           	rrf	(pinMode@mode),w
  4112  01A0  0C70               	bsf	status, 5	;RP0=1, select bank1
  4113  01A1  1683               	bcf	status, 6	;RP1=0, select bank1
  4114  01A2  1303               	skipc
  4115  01A3  1C03               	bcf	(134)^080h,7	;volatile
  4116  01A4  1386               	skipnc
  4117  01A5  1803               	bsf	(134)^080h,7	;volatile
  4118  01A6  1786               	line	113
  4119                           ;Hormiga877.c: 113:             break;
  4120                           	goto	l300
  4121  01A7  2A46               	line	114
  4122                           ;Hormiga877.c: 114:         case 16:
  4123                           	
  4124                           l291:	
  4125  01A8                     	line	115
  4126                           	
  4127                           l2827:	
  4128  01A8                     ;Hormiga877.c: 115:             TRISDbits.TRISD0 = mode;
  4129                           	rrf	(pinMode@mode),w
  4130  01A8  0C70               	bsf	status, 5	;RP0=1, select bank1
  4131  01A9  1683               	bcf	status, 6	;RP1=0, select bank1
  4132  01AA  1303               	skipc
  4133  01AB  1C03               	bcf	(136)^080h,0	;volatile
  4134  01AC  1008               	skipnc
  4135  01AD  1803               	bsf	(136)^080h,0	;volatile
  4136  01AE  1408               	line	116
  4137                           ;Hormiga877.c: 116:             break;
  4138                           	goto	l300
  4139  01AF  2A46               	line	117
  4140                           ;Hormiga877.c: 117:         case 17:
  4141                           	
  4142                           l292:	
  4143  01B0                     	line	118
  4144                           	
  4145                           l2829:	
  4146  01B0                     ;Hormiga877.c: 118:             TRISDbits.TRISD1 = mode;
  4147                           	rrf	(pinMode@mode),w
  4148  01B0  0C70               	bsf	status, 5	;RP0=1, select bank1
  4149  01B1  1683               	bcf	status, 6	;RP1=0, select bank1
  4150  01B2  1303               	skipc
  4151  01B3  1C03               	bcf	(136)^080h,1	;volatile
  4152  01B4  1088               	skipnc
  4153  01B5  1803               	bsf	(136)^080h,1	;volatile
  4154  01B6  1488               	line	119
  4155                           ;Hormiga877.c: 119:             break;
  4156                           	goto	l300
  4157  01B7  2A46               	line	120
  4158                           ;Hormiga877.c: 120:         case 18:
  4159                           	
  4160                           l293:	
  4161  01B8                     	line	121
  4162                           	
  4163                           l2831:	
  4164  01B8                     ;Hormiga877.c: 121:             TRISDbits.TRISD2 = mode;
  4165                           	rrf	(pinMode@mode),w
  4166  01B8  0C70               	bsf	status, 5	;RP0=1, select bank1
  4167  01B9  1683               	bcf	status, 6	;RP1=0, select bank1
  4168  01BA  1303               	skipc
  4169  01BB  1C03               	bcf	(136)^080h,2	;volatile
  4170  01BC  1108               	skipnc
  4171  01BD  1803               	bsf	(136)^080h,2	;volatile
  4172  01BE  1508               	line	122
  4173                           ;Hormiga877.c: 122:             break;
  4174                           	goto	l300
  4175  01BF  2A46               	line	123
  4176                           ;Hormiga877.c: 123:         case 19:
  4177                           	
  4178                           l294:	
  4179  01C0                     	line	124
  4180                           	
  4181                           l2833:	
  4182  01C0                     ;Hormiga877.c: 124:             TRISDbits.TRISD3 = mode;
  4183                           	rrf	(pinMode@mode),w
  4184  01C0  0C70               	bsf	status, 5	;RP0=1, select bank1
  4185  01C1  1683               	bcf	status, 6	;RP1=0, select bank1
  4186  01C2  1303               	skipc
  4187  01C3  1C03               	bcf	(136)^080h,3	;volatile
  4188  01C4  1188               	skipnc
  4189  01C5  1803               	bsf	(136)^080h,3	;volatile
  4190  01C6  1588               	line	125
  4191                           ;Hormiga877.c: 125:             break;
  4192                           	goto	l300
  4193  01C7  2A46               	line	126
  4194                           ;Hormiga877.c: 126:         case 20:
  4195                           	
  4196                           l295:	
  4197  01C8                     	line	127
  4198                           	
  4199                           l2835:	
  4200  01C8                     ;Hormiga877.c: 127:    TRISDbits.TRISD4 = mode;
  4201                           	rrf	(pinMode@mode),w
  4202  01C8  0C70               	bsf	status, 5	;RP0=1, select bank1
  4203  01C9  1683               	bcf	status, 6	;RP1=0, select bank1
  4204  01CA  1303               	skipc
  4205  01CB  1C03               	bcf	(136)^080h,4	;volatile
  4206  01CC  1208               	skipnc
  4207  01CD  1803               	bsf	(136)^080h,4	;volatile
  4208  01CE  1608               	line	137
  4209                           ;Hormiga877.c: 137:    break;
  4210                           	goto	l300
  4211  01CF  2A46               	line	138
  4212                           ;Hormiga877.c: 138:         case 21:
  4213                           	
  4214                           l296:	
  4215  01D0                     	line	139
  4216                           	
  4217                           l2837:	
  4218  01D0                     ;Hormiga877.c: 139:             TRISDbits.TRISD5 = mode;
  4219                           	rrf	(pinMode@mode),w
  4220  01D0  0C70               	bsf	status, 5	;RP0=1, select bank1
  4221  01D1  1683               	bcf	status, 6	;RP1=0, select bank1
  4222  01D2  1303               	skipc
  4223  01D3  1C03               	bcf	(136)^080h,5	;volatile
  4224  01D4  1288               	skipnc
  4225  01D5  1803               	bsf	(136)^080h,5	;volatile
  4226  01D6  1688               	line	140
  4227                           ;Hormiga877.c: 140:             break;
  4228                           	goto	l300
  4229  01D7  2A46               	line	141
  4230                           ;Hormiga877.c: 141:         case 22:
  4231                           	
  4232                           l297:	
  4233  01D8                     	line	142
  4234                           	
  4235                           l2839:	
  4236  01D8                     ;Hormiga877.c: 142:             TRISDbits.TRISD6 = mode;
  4237                           	rrf	(pinMode@mode),w
  4238  01D8  0C70               	bsf	status, 5	;RP0=1, select bank1
  4239  01D9  1683               	bcf	status, 6	;RP1=0, select bank1
  4240  01DA  1303               	skipc
  4241  01DB  1C03               	bcf	(136)^080h,6	;volatile
  4242  01DC  1308               	skipnc
  4243  01DD  1803               	bsf	(136)^080h,6	;volatile
  4244  01DE  1708               	line	143
  4245                           ;Hormiga877.c: 143:             break;
  4246                           	goto	l300
  4247  01DF  2A46               	line	144
  4248                           ;Hormiga877.c: 144:         case 23:
  4249                           	
  4250                           l298:	
  4251  01E0                     	line	145
  4252                           	
  4253                           l2841:	
  4254  01E0                     ;Hormiga877.c: 145:             TRISDbits.TRISD7 = mode;
  4255                           	rrf	(pinMode@mode),w
  4256  01E0  0C70               	bsf	status, 5	;RP0=1, select bank1
  4257  01E1  1683               	bcf	status, 6	;RP1=0, select bank1
  4258  01E2  1303               	skipc
  4259  01E3  1C03               	bcf	(136)^080h,7	;volatile
  4260  01E4  1388               	skipnc
  4261  01E5  1803               	bsf	(136)^080h,7	;volatile
  4262  01E6  1788               	line	146
  4263                           ;Hormiga877.c: 146:             break;
  4264                           	goto	l300
  4265  01E7  2A46               	line	147
  4266                           ;Hormiga877.c: 147:         case 24:
  4267                           	
  4268                           l299:	
  4269  01E8                     	line	148
  4270                           	
  4271                           l2843:	
  4272  01E8                     ;Hormiga877.c: 148:             TRISAbits.TRISA4 = mode;
  4273                           	rrf	(pinMode@mode),w
  4274  01E8  0C70               	bsf	status, 5	;RP0=1, select bank1
  4275  01E9  1683               	bcf	status, 6	;RP1=0, select bank1
  4276  01EA  1303               	skipc
  4277  01EB  1C03               	bcf	(133)^080h,4	;volatile
  4278  01EC  1205               	skipnc
  4279  01ED  1803               	bsf	(133)^080h,4	;volatile
  4280  01EE  1605               	line	149
  4281                           ;Hormiga877.c: 149:             break;
  4282                           	goto	l300
  4283  01EF  2A46               	line	164
  4284                           	
  4285                           l2845:	
  4286  01F0                     ;Hormiga877.c: 164:     }
  4287                           	goto	l300
  4288  01F0  2A46               	
  4289                           l273:	
  4290  01F1                     	
  4291                           l2847:	
  4292  01F1                     	movf	(pinMode@pin),w
  4293  01F1  0873               	movwf	(??_pinMode+0)+0
  4294  01F2  00F1               	clrf	(??_pinMode+0)+0+1
  4295  01F3  01F2               	; Switch on 2 bytes has been partitioned into a top level switch of size 1, and 1 sub-s
                                 witches
  4296                           ; Switch size 1, requested type "space"
  4297                           ; Number of cases is 1, Range of values is 0 to 0
  4298                           ; switch strategies available:
  4299                           ; Name         Instructions Cycles
  4300                           ; simple_byte            4     3 (average)
  4301                           ; direct_byte           11     8 (fixed)
  4302                           ; jumptable            260     6 (fixed)
  4303                           ;	Chosen strategy is simple_byte
  4304                           
  4305                           	movf 1+(??_pinMode+0)+0,w
  4306  01F4  0872               	opt asmopt_push
  4307                           	opt asmopt_off
  4308                           	xorlw	0^0	; case 0
  4309  01F5  3A00               	skipnz
  4310  01F6  1903               	goto	l3527
  4311  01F7  29F9               	goto	l300
  4312  01F8  2A46               	opt asmopt_pop
  4313                           	
  4314                           l3527:	
  4315  01F9                     ; Switch size 1, requested type "space"
  4316                           ; Number of cases is 25, Range of values is 0 to 24
  4317                           ; switch strategies available:
  4318                           ; Name         Instructions Cycles
  4319                           ; simple_byte           76    39 (average)
  4320                           ; direct_byte           83     8 (fixed)
  4321                           ; jumptable            260     6 (fixed)
  4322                           ;	Chosen strategy is simple_byte
  4323                           
  4324                           	movf 0+(??_pinMode+0)+0,w
  4325  01F9  0871               	opt asmopt_push
  4326                           	opt asmopt_off
  4327                           	xorlw	0^0	; case 0
  4328  01FA  3A00               	skipnz
  4329  01FB  1903               	goto	l2795
  4330  01FC  2928               	xorlw	1^0	; case 1
  4331  01FD  3A01               	skipnz
  4332  01FE  1903               	goto	l2797
  4333  01FF  2930               	xorlw	2^1	; case 2
  4334  0200  3A03               	skipnz
  4335  0201  1903               	goto	l2799
  4336  0202  2938               	xorlw	3^2	; case 3
  4337  0203  3A01               	skipnz
  4338  0204  1903               	goto	l2801
  4339  0205  2940               	xorlw	4^3	; case 4
  4340  0206  3A07               	skipnz
  4341  0207  1903               	goto	l2803
  4342  0208  2948               	xorlw	5^4	; case 5
  4343  0209  3A01               	skipnz
  4344  020A  1903               	goto	l2805
  4345  020B  2950               	xorlw	6^5	; case 6
  4346  020C  3A03               	skipnz
  4347  020D  1903               	goto	l2807
  4348  020E  2958               	xorlw	7^6	; case 7
  4349  020F  3A01               	skipnz
  4350  0210  1903               	goto	l2809
  4351  0211  2960               	xorlw	8^7	; case 8
  4352  0212  3A0F               	skipnz
  4353  0213  1903               	goto	l2811
  4354  0214  2968               	xorlw	9^8	; case 9
  4355  0215  3A01               	skipnz
  4356  0216  1903               	goto	l2813
  4357  0217  2970               	xorlw	10^9	; case 10
  4358  0218  3A03               	skipnz
  4359  0219  1903               	goto	l2815
  4360  021A  2978               	xorlw	11^10	; case 11
  4361  021B  3A01               	skipnz
  4362  021C  1903               	goto	l2817
  4363  021D  2980               	xorlw	12^11	; case 12
  4364  021E  3A07               	skipnz
  4365  021F  1903               	goto	l2819
  4366  0220  2988               	xorlw	13^12	; case 13
  4367  0221  3A01               	skipnz
  4368  0222  1903               	goto	l2821
  4369  0223  2990               	xorlw	14^13	; case 14
  4370  0224  3A03               	skipnz
  4371  0225  1903               	goto	l2823
  4372  0226  2998               	xorlw	15^14	; case 15
  4373  0227  3A01               	skipnz
  4374  0228  1903               	goto	l2825
  4375  0229  29A0               	xorlw	16^15	; case 16
  4376  022A  3A1F               	skipnz
  4377  022B  1903               	goto	l2827
  4378  022C  29A8               	xorlw	17^16	; case 17
  4379  022D  3A01               	skipnz
  4380  022E  1903               	goto	l2829
  4381  022F  29B0               	xorlw	18^17	; case 18
  4382  0230  3A03               	skipnz
  4383  0231  1903               	goto	l2831
  4384  0232  29B8               	xorlw	19^18	; case 19
  4385  0233  3A01               	skipnz
  4386  0234  1903               	goto	l2833
  4387  0235  29C0               	xorlw	20^19	; case 20
  4388  0236  3A07               	skipnz
  4389  0237  1903               	goto	l2835
  4390  0238  29C8               	xorlw	21^20	; case 21
  4391  0239  3A01               	skipnz
  4392  023A  1903               	goto	l2837
  4393  023B  29D0               	xorlw	22^21	; case 22
  4394  023C  3A03               	skipnz
  4395  023D  1903               	goto	l2839
  4396  023E  29D8               	xorlw	23^22	; case 23
  4397  023F  3A01               	skipnz
  4398  0240  1903               	goto	l2841
  4399  0241  29E0               	xorlw	24^23	; case 24
  4400  0242  3A0F               	skipnz
  4401  0243  1903               	goto	l2843
  4402  0244  29E8               	goto	l300
  4403  0245  2A46               	opt asmopt_pop
  4404                           
  4405                           	
  4406                           l275:	
  4407  0246                     	line	165
  4408                           	
  4409                           l300:	
  4410  0246                     	return
  4411  0246  0008               	opt stack 0
  4412                           GLOBAL	__end_of_pinMode
  4413                           	__end_of_pinMode:
  4414  0247                     	signat	_pinMode,8313
  4415                           	global	_analogWrite
  4416                           
  4417 ;; *************** function _analogWrite *****************
  4418 ;; Defined at:
  4419 ;;		line 407 in file "Hormiga877.c"
  4420 ;; Parameters:    Size  Location     Type
  4421 ;;  pin             1    wreg     unsigned char 
  4422 ;;  value           2    0[COMMON] unsigned int 
  4423 ;; Auto vars:     Size  Location     Type
  4424 ;;  pin             1    4[COMMON] unsigned char 
  4425 ;; Return value:  Size  Location     Type
  4426 ;;                  1    wreg      unsigned char 
  4427 ;; Registers used:
  4428 ;;		wreg, fsr0l, fsr0h, status,2, status,0
  4429 ;; Tracked objects:
  4430 ;;		On entry : 0/0
  4431 ;;		On exit  : 0/0
  4432 ;;		Unchanged: 0/0
  4433 ;; Data sizes:     COMMON   BANK0   BANK1   BANK3   BANK2
  4434 ;;      Params:         2       0       0       0       0
  4435 ;;      Locals:         1       0       0       0       0
  4436 ;;      Temps:          2       0       0       0       0
  4437 ;;      Totals:         5       0       0       0       0
  4438 ;;Total ram usage:        5 bytes
  4439 ;; Hardware stack levels used:    1
  4440 ;; This function calls:
  4441 ;;		Nothing
  4442 ;; This function is called by:
  4443 ;;		_ProcessCommand
  4444 ;; This function uses a non-reentrant model
  4445 ;;
  4446                           psect	text11,local,class=CODE,delta=2,merge=1,group=0
  4447                           	line	407
  4448                           global __ptext11
  4449                           __ptext11:	;psect for function _analogWrite
  4450  0ADD                     psect	text11
  4451                           	file	"Hormiga877.c"
  4452                           	line	407
  4453                           	global	__size_of_analogWrite
  4454                           	__size_of_analogWrite	equ	__end_of_analogWrite-_analogWrite
  4455  0048                     	
  4456                           _analogWrite:	
  4457  0ADD                     ;incstack = 0
  4458                           	opt	stack 5
  4459                           ; Regs used in _analogWrite: [wreg-fsr0h+status,2+status,0]
  4460                           ;analogWrite@pin stored from wreg
  4461                           	movwf	(analogWrite@pin)
  4462  0ADD  00F4               	line	409
  4463                           	
  4464                           l2893:	
  4465  0ADE                     ;Hormiga877.c: 407: uint8_t analogWrite(char pin, unsigned int value);Hormiga877.c: 408:
                                  {;Hormiga877.c: 409:     switch(pin)
  4466                           	goto	l2909
  4467  0ADE  2B14               	line	411
  4468                           ;Hormiga877.c: 410:     {;Hormiga877.c: 411:         case 6:
  4469                           	
  4470                           l389:	
  4471  0ADF                     	line	412
  4472                           	
  4473                           l2895:	
  4474  0ADF                     ;Hormiga877.c: 412:             CCPR2L = value >> 2;
  4475                           	movf	(analogWrite@value+1),w
  4476  0ADF  0871               	movwf	(??_analogWrite+0)+0+1
  4477  0AE0  00F3               	movf	(analogWrite@value),w
  4478  0AE1  0870               	movwf	(??_analogWrite+0)+0
  4479  0AE2  00F2               	clrc
  4480  0AE3  1003               	rrf	(??_analogWrite+0)+1,f
  4481  0AE4  0CF3               	rrf	(??_analogWrite+0)+0,f
  4482  0AE5  0CF2               	clrc
  4483  0AE6  1003               	rrf	(??_analogWrite+0)+1,f
  4484  0AE7  0CF3               	rrf	(??_analogWrite+0)+0,f
  4485  0AE8  0CF2               	movf	0+(??_analogWrite+0)+0,w
  4486  0AE9  0872               	bcf	status, 5	;RP0=0, select bank0
  4487  0AEA  1283               	bcf	status, 6	;RP1=0, select bank0
  4488  0AEB  1303               	movwf	(27)	;volatile
  4489  0AEC  009B               	line	413
  4490                           	
  4491                           l2897:	
  4492  0AED                     ;Hormiga877.c: 413:             CCP2X = value & 2;
  4493                           	bcf	(237/8),(237)&7	;volatile
  4494  0AED  129D               	line	414
  4495                           	
  4496                           l2899:	
  4497  0AEE                     ;Hormiga877.c: 414:             CCP2Y = value & 1;
  4498                           	btfsc	(analogWrite@value),0
  4499  0AEE  1870               	goto	u1851
  4500  0AEF  2AF1               	goto	u1850
  4501  0AF0  2AF5               	
  4502                           u1851:
  4503  0AF1                     	bcf	status, 5	;RP0=0, select bank0
  4504  0AF1  1283               	bcf	status, 6	;RP1=0, select bank0
  4505  0AF2  1303               	bsf	(236/8),(236)&7	;volatile
  4506  0AF3  161D               	goto	u1864
  4507  0AF4  2AF8               u1850:
  4508  0AF5                     	bcf	status, 5	;RP0=0, select bank0
  4509  0AF5  1283               	bcf	status, 6	;RP1=0, select bank0
  4510  0AF6  1303               	bcf	(236/8),(236)&7	;volatile
  4511  0AF7  121D               u1864:
  4512  0AF8                     	line	415
  4513                           ;Hormiga877.c: 415:             break;
  4514                           	goto	l392
  4515  0AF8  2B24               	line	416
  4516                           ;Hormiga877.c: 416:         case 5:
  4517                           	
  4518                           l391:	
  4519  0AF9                     	line	417
  4520                           	
  4521                           l2901:	
  4522  0AF9                     ;Hormiga877.c: 417:             CCPR1L = value >> 2;
  4523                           	movf	(analogWrite@value+1),w
  4524  0AF9  0871               	movwf	(??_analogWrite+0)+0+1
  4525  0AFA  00F3               	movf	(analogWrite@value),w
  4526  0AFB  0870               	movwf	(??_analogWrite+0)+0
  4527  0AFC  00F2               	clrc
  4528  0AFD  1003               	rrf	(??_analogWrite+0)+1,f
  4529  0AFE  0CF3               	rrf	(??_analogWrite+0)+0,f
  4530  0AFF  0CF2               	clrc
  4531  0B00  1003               	rrf	(??_analogWrite+0)+1,f
  4532  0B01  0CF3               	rrf	(??_analogWrite+0)+0,f
  4533  0B02  0CF2               	movf	0+(??_analogWrite+0)+0,w
  4534  0B03  0872               	bcf	status, 5	;RP0=0, select bank0
  4535  0B04  1283               	bcf	status, 6	;RP1=0, select bank0
  4536  0B05  1303               	movwf	(21)	;volatile
  4537  0B06  0095               	line	418
  4538                           	
  4539                           l2903:	
  4540  0B07                     ;Hormiga877.c: 418:             CCP1X = value & 2;
  4541                           	bcf	(189/8),(189)&7	;volatile
  4542  0B07  1297               	line	419
  4543                           	
  4544                           l2905:	
  4545  0B08                     ;Hormiga877.c: 419:             CCP1Y = value & 1;
  4546                           	btfsc	(analogWrite@value),0
  4547  0B08  1870               	goto	u1871
  4548  0B09  2B0B               	goto	u1870
  4549  0B0A  2B0F               	
  4550                           u1871:
  4551  0B0B                     	bcf	status, 5	;RP0=0, select bank0
  4552  0B0B  1283               	bcf	status, 6	;RP1=0, select bank0
  4553  0B0C  1303               	bsf	(188/8),(188)&7	;volatile
  4554  0B0D  1617               	goto	u1884
  4555  0B0E  2B12               u1870:
  4556  0B0F                     	bcf	status, 5	;RP0=0, select bank0
  4557  0B0F  1283               	bcf	status, 6	;RP1=0, select bank0
  4558  0B10  1303               	bcf	(188/8),(188)&7	;volatile
  4559  0B11  1217               u1884:
  4560  0B12                     	line	420
  4561                           ;Hormiga877.c: 420:             break;
  4562                           	goto	l392
  4563  0B12  2B24               	line	421
  4564                           	
  4565                           l2907:	
  4566  0B13                     ;Hormiga877.c: 421:     }
  4567                           	goto	l392
  4568  0B13  2B24               	
  4569                           l388:	
  4570  0B14                     	
  4571                           l2909:	
  4572  0B14                     	movf	(analogWrite@pin),w
  4573  0B14  0874               	movwf	(??_analogWrite+0)+0
  4574  0B15  00F2               	clrf	(??_analogWrite+0)+0+1
  4575  0B16  01F3               	; Switch on 2 bytes has been partitioned into a top level switch of size 1, and 1 sub-s
                                 witches
  4576                           ; Switch size 1, requested type "space"
  4577                           ; Number of cases is 1, Range of values is 0 to 0
  4578                           ; switch strategies available:
  4579                           ; Name         Instructions Cycles
  4580                           ; simple_byte            4     3 (average)
  4581                           ; direct_byte           11     8 (fixed)
  4582                           ; jumptable            260     6 (fixed)
  4583                           ;	Chosen strategy is simple_byte
  4584                           
  4585                           	movf 1+(??_analogWrite+0)+0,w
  4586  0B17  0873               	opt asmopt_push
  4587                           	opt asmopt_off
  4588                           	xorlw	0^0	; case 0
  4589  0B18  3A00               	skipnz
  4590  0B19  1903               	goto	l3529
  4591  0B1A  2B1C               	goto	l392
  4592  0B1B  2B24               	opt asmopt_pop
  4593                           	
  4594                           l3529:	
  4595  0B1C                     ; Switch size 1, requested type "space"
  4596                           ; Number of cases is 2, Range of values is 5 to 6
  4597                           ; switch strategies available:
  4598                           ; Name         Instructions Cycles
  4599                           ; simple_byte            7     4 (average)
  4600                           ; direct_byte           17    11 (fixed)
  4601                           ; jumptable            263     9 (fixed)
  4602                           ;	Chosen strategy is simple_byte
  4603                           
  4604                           	movf 0+(??_analogWrite+0)+0,w
  4605  0B1C  0872               	opt asmopt_push
  4606                           	opt asmopt_off
  4607                           	xorlw	5^0	; case 5
  4608  0B1D  3A05               	skipnz
  4609  0B1E  1903               	goto	l2901
  4610  0B1F  2AF9               	xorlw	6^5	; case 6
  4611  0B20  3A03               	skipnz
  4612  0B21  1903               	goto	l2895
  4613  0B22  2ADF               	goto	l392
  4614  0B23  2B24               	opt asmopt_pop
  4615                           
  4616                           	
  4617                           l390:	
  4618  0B24                     	line	423
  4619                           ;Hormiga877.c: 422:     return 0;;	Return value of _analogWrite is never used
  4620                           	
  4621                           l392:	
  4622  0B24                     	return
  4623  0B24  0008               	opt stack 0
  4624                           GLOBAL	__end_of_analogWrite
  4625                           	__end_of_analogWrite:
  4626  0B25                     	signat	_analogWrite,8313
  4627                           	global	_analogRead
  4628                           
  4629 ;; *************** function _analogRead *****************
  4630 ;; Defined at:
  4631 ;;		line 346 in file "Hormiga877.c"
  4632 ;; Parameters:    Size  Location     Type
  4633 ;;  channel         1    wreg     unsigned char 
  4634 ;; Auto vars:     Size  Location     Type
  4635 ;;  channel         1    4[COMMON] unsigned char 
  4636 ;; Return value:  Size  Location     Type
  4637 ;;                  2    0[COMMON] unsigned int 
  4638 ;; Registers used:
  4639 ;;		wreg, fsr0l, fsr0h, status,2, status,0
  4640 ;; Tracked objects:
  4641 ;;		On entry : 0/0
  4642 ;;		On exit  : 0/0
  4643 ;;		Unchanged: 0/0
  4644 ;; Data sizes:     COMMON   BANK0   BANK1   BANK3   BANK2
  4645 ;;      Params:         2       0       0       0       0
  4646 ;;      Locals:         1       0       0       0       0
  4647 ;;      Temps:          2       0       0       0       0
  4648 ;;      Totals:         5       0       0       0       0
  4649 ;;Total ram usage:        5 bytes
  4650 ;; Hardware stack levels used:    1
  4651 ;; This function calls:
  4652 ;;		Nothing
  4653 ;; This function is called by:
  4654 ;;		_ProcessCommand
  4655 ;; This function uses a non-reentrant model
  4656 ;;
  4657                           psect	text12,local,class=CODE,delta=2,merge=1,group=0
  4658                           	line	346
  4659                           global __ptext12
  4660                           __ptext12:	;psect for function _analogRead
  4661  0C3D                     psect	text12
  4662                           	file	"Hormiga877.c"
  4663                           	line	346
  4664                           	global	__size_of_analogRead
  4665                           	__size_of_analogRead	equ	__end_of_analogRead-_analogRead
  4666  0086                     	
  4667                           _analogRead:	
  4668  0C3D                     ;incstack = 0
  4669                           	opt	stack 5
  4670                           ; Regs used in _analogRead: [wreg-fsr0h+status,2+status,0]
  4671                           ;analogRead@channel stored from wreg
  4672                           	movwf	(analogRead@channel)
  4673  0C3D  00F4               	line	348
  4674                           	
  4675                           l2853:	
  4676  0C3E                     ;Hormiga877.c: 346: unsigned int analogRead(char channel);Hormiga877.c: 347: {;Hormiga87
                                 7.c: 348:     switch(channel)
  4677                           	goto	l2887
  4678  0C3E  2CA9               	line	350
  4679                           ;Hormiga877.c: 349:     {;Hormiga877.c: 350:         case 0:
  4680                           	
  4681                           l364:	
  4682  0C3F                     	line	351
  4683                           ;Hormiga877.c: 351:             ADCON0bits.CHS2 = 0;
  4684                           	bcf	status, 5	;RP0=0, select bank0
  4685  0C3F  1283               	bcf	status, 6	;RP1=0, select bank0
  4686  0C40  1303               	bcf	(31),5	;volatile
  4687  0C41  129F               	line	352
  4688                           ;Hormiga877.c: 352:             ADCON0bits.CHS1 = 0;
  4689                           	bcf	(31),4	;volatile
  4690  0C42  121F               	line	353
  4691                           ;Hormiga877.c: 353:             ADCON0bits.CHS0 = 0;
  4692                           	bcf	(31),3	;volatile
  4693  0C43  119F               	line	354
  4694                           ;Hormiga877.c: 354:             ADCON0bits.GO_DONE = 1;
  4695                           	bsf	(31),2	;volatile
  4696  0C44  151F               	line	355
  4697                           ;Hormiga877.c: 355:             while(ADCON0bits.GO_DONE != 0)
  4698                           	goto	l365
  4699  0C45  2C46               	
  4700                           l366:	
  4701  0C46                     	line	358
  4702                           ;Hormiga877.c: 356:             {;Hormiga877.c: 358:             }
  4703                           	
  4704                           l365:	
  4705  0C46                     	line	355
  4706                           ;Hormiga877.c: 355:             while(ADCON0bits.GO_DONE != 0)
  4707                           	btfsc	(31),2	;volatile
  4708  0C46  191F               	goto	u1801
  4709  0C47  2C49               	goto	u1800
  4710  0C48  2C4A               u1801:
  4711  0C49                     	goto	l365
  4712  0C49  2C46               u1800:
  4713  0C4A                     	goto	l2855
  4714  0C4A  2C4B               	
  4715                           l367:	
  4716  0C4B                     	line	359
  4717                           	
  4718                           l2855:	
  4719  0C4B                     ;Hormiga877.c: 359:             return (ADRESH << 8)+ ADRESL;
  4720                           	movf	(30),w	;volatile
  4721  0C4B  081E               	movwf	(?_analogRead+1)
  4722  0C4C  00F1               	bsf	status, 5	;RP0=1, select bank1
  4723  0C4D  1683               	bcf	status, 6	;RP1=0, select bank1
  4724  0C4E  1303               	movf	(158)^080h,w	;volatile
  4725  0C4F  081E               	movwf	(?_analogRead)
  4726  0C50  00F0               	goto	l368
  4727  0C51  2CC2               	
  4728                           l2857:	
  4729  0C52                     	goto	l368
  4730  0C52  2CC2               	line	360
  4731                           	
  4732                           l2859:	
  4733  0C53                     ;Hormiga877.c: 360:             break;
  4734                           	goto	l368
  4735  0C53  2CC2               	line	361
  4736                           ;Hormiga877.c: 361:         case 1:
  4737                           	
  4738                           l370:	
  4739  0C54                     	line	362
  4740                           ;Hormiga877.c: 362:             ADCON0bits.CHS2 = 0;
  4741                           	bcf	status, 5	;RP0=0, select bank0
  4742  0C54  1283               	bcf	status, 6	;RP1=0, select bank0
  4743  0C55  1303               	bcf	(31),5	;volatile
  4744  0C56  129F               	line	363
  4745                           ;Hormiga877.c: 363:             ADCON0bits.CHS1 = 0;
  4746                           	bcf	(31),4	;volatile
  4747  0C57  121F               	line	364
  4748                           ;Hormiga877.c: 364:             ADCON0bits.CHS0 = 1;
  4749                           	bsf	(31),3	;volatile
  4750  0C58  159F               	line	365
  4751                           ;Hormiga877.c: 365:             ADCON0bits.GO_DONE = 1;
  4752                           	bsf	(31),2	;volatile
  4753  0C59  151F               	line	366
  4754                           ;Hormiga877.c: 366:             while(ADCON0bits.GO_DONE != 0)
  4755                           	goto	l371
  4756  0C5A  2C5B               	
  4757                           l372:	
  4758  0C5B                     	line	369
  4759                           ;Hormiga877.c: 367:             {;Hormiga877.c: 369:             }
  4760                           	
  4761                           l371:	
  4762  0C5B                     	line	366
  4763                           ;Hormiga877.c: 366:             while(ADCON0bits.GO_DONE != 0)
  4764                           	btfsc	(31),2	;volatile
  4765  0C5B  191F               	goto	u1811
  4766  0C5C  2C5E               	goto	u1810
  4767  0C5D  2C5F               u1811:
  4768  0C5E                     	goto	l371
  4769  0C5E  2C5B               u1810:
  4770  0C5F                     	goto	l2861
  4771  0C5F  2C60               	
  4772                           l373:	
  4773  0C60                     	line	370
  4774                           	
  4775                           l2861:	
  4776  0C60                     ;Hormiga877.c: 370:             return (ADRESH << 8)+ ADRESL;
  4777                           	movf	(30),w	;volatile
  4778  0C60  081E               	movwf	(?_analogRead+1)
  4779  0C61  00F1               	bsf	status, 5	;RP0=1, select bank1
  4780  0C62  1683               	bcf	status, 6	;RP1=0, select bank1
  4781  0C63  1303               	movf	(158)^080h,w	;volatile
  4782  0C64  081E               	movwf	(?_analogRead)
  4783  0C65  00F0               	goto	l368
  4784  0C66  2CC2               	
  4785                           l2863:	
  4786  0C67                     	goto	l368
  4787  0C67  2CC2               	line	371
  4788                           	
  4789                           l2865:	
  4790  0C68                     ;Hormiga877.c: 371:             break;
  4791                           	goto	l368
  4792  0C68  2CC2               	line	372
  4793                           ;Hormiga877.c: 372:         case 2:
  4794                           	
  4795                           l374:	
  4796  0C69                     	line	373
  4797                           ;Hormiga877.c: 373:             ADCON0bits.CHS2 = 0;
  4798                           	bcf	status, 5	;RP0=0, select bank0
  4799  0C69  1283               	bcf	status, 6	;RP1=0, select bank0
  4800  0C6A  1303               	bcf	(31),5	;volatile
  4801  0C6B  129F               	line	374
  4802                           ;Hormiga877.c: 374:             ADCON0bits.CHS1 = 1;
  4803                           	bsf	(31),4	;volatile
  4804  0C6C  161F               	line	375
  4805                           ;Hormiga877.c: 375:             ADCON0bits.CHS0 = 0;
  4806                           	bcf	(31),3	;volatile
  4807  0C6D  119F               	line	376
  4808                           ;Hormiga877.c: 376:             ADCON0bits.GO_DONE = 1;
  4809                           	bsf	(31),2	;volatile
  4810  0C6E  151F               	line	377
  4811                           ;Hormiga877.c: 377:             while(ADCON0bits.GO_DONE != 0)
  4812                           	goto	l375
  4813  0C6F  2C70               	
  4814                           l376:	
  4815  0C70                     	line	380
  4816                           ;Hormiga877.c: 378:             {;Hormiga877.c: 380:             }
  4817                           	
  4818                           l375:	
  4819  0C70                     	line	377
  4820                           ;Hormiga877.c: 377:             while(ADCON0bits.GO_DONE != 0)
  4821                           	btfsc	(31),2	;volatile
  4822  0C70  191F               	goto	u1821
  4823  0C71  2C73               	goto	u1820
  4824  0C72  2C74               u1821:
  4825  0C73                     	goto	l375
  4826  0C73  2C70               u1820:
  4827  0C74                     	goto	l2867
  4828  0C74  2C75               	
  4829                           l377:	
  4830  0C75                     	line	381
  4831                           	
  4832                           l2867:	
  4833  0C75                     ;Hormiga877.c: 381:             return (ADRESH << 8)+ ADRESL;
  4834                           	movf	(30),w	;volatile
  4835  0C75  081E               	movwf	(?_analogRead+1)
  4836  0C76  00F1               	bsf	status, 5	;RP0=1, select bank1
  4837  0C77  1683               	bcf	status, 6	;RP1=0, select bank1
  4838  0C78  1303               	movf	(158)^080h,w	;volatile
  4839  0C79  081E               	movwf	(?_analogRead)
  4840  0C7A  00F0               	goto	l368
  4841  0C7B  2CC2               	
  4842                           l2869:	
  4843  0C7C                     	goto	l368
  4844  0C7C  2CC2               	line	382
  4845                           	
  4846                           l2871:	
  4847  0C7D                     ;Hormiga877.c: 382:             break;
  4848                           	goto	l368
  4849  0C7D  2CC2               	line	383
  4850                           ;Hormiga877.c: 383:         case 3:
  4851                           	
  4852                           l378:	
  4853  0C7E                     	line	384
  4854                           ;Hormiga877.c: 384:             ADCON0bits.CHS2 = 0;
  4855                           	bcf	status, 5	;RP0=0, select bank0
  4856  0C7E  1283               	bcf	status, 6	;RP1=0, select bank0
  4857  0C7F  1303               	bcf	(31),5	;volatile
  4858  0C80  129F               	line	385
  4859                           ;Hormiga877.c: 385:             ADCON0bits.CHS1 = 1;
  4860                           	bsf	(31),4	;volatile
  4861  0C81  161F               	line	386
  4862                           ;Hormiga877.c: 386:             ADCON0bits.CHS0 = 1;
  4863                           	bsf	(31),3	;volatile
  4864  0C82  159F               	line	387
  4865                           ;Hormiga877.c: 387:             ADCON0bits.GO_DONE = 1;
  4866                           	bsf	(31),2	;volatile
  4867  0C83  151F               	line	388
  4868                           ;Hormiga877.c: 388:             while(ADCON0bits.GO_DONE != 0)
  4869                           	goto	l379
  4870  0C84  2C85               	
  4871                           l380:	
  4872  0C85                     	line	391
  4873                           ;Hormiga877.c: 389:             {;Hormiga877.c: 391:             }
  4874                           	
  4875                           l379:	
  4876  0C85                     	line	388
  4877                           ;Hormiga877.c: 388:             while(ADCON0bits.GO_DONE != 0)
  4878                           	btfsc	(31),2	;volatile
  4879  0C85  191F               	goto	u1831
  4880  0C86  2C88               	goto	u1830
  4881  0C87  2C89               u1831:
  4882  0C88                     	goto	l379
  4883  0C88  2C85               u1830:
  4884  0C89                     	goto	l2873
  4885  0C89  2C8A               	
  4886                           l381:	
  4887  0C8A                     	line	392
  4888                           	
  4889                           l2873:	
  4890  0C8A                     ;Hormiga877.c: 392:             return (ADRESH << 8)+ ADRESL;
  4891                           	movf	(30),w	;volatile
  4892  0C8A  081E               	movwf	(?_analogRead+1)
  4893  0C8B  00F1               	bsf	status, 5	;RP0=1, select bank1
  4894  0C8C  1683               	bcf	status, 6	;RP1=0, select bank1
  4895  0C8D  1303               	movf	(158)^080h,w	;volatile
  4896  0C8E  081E               	movwf	(?_analogRead)
  4897  0C8F  00F0               	goto	l368
  4898  0C90  2CC2               	
  4899                           l2875:	
  4900  0C91                     	goto	l368
  4901  0C91  2CC2               	line	393
  4902                           	
  4903                           l2877:	
  4904  0C92                     ;Hormiga877.c: 393:             break;
  4905                           	goto	l368
  4906  0C92  2CC2               	line	394
  4907                           ;Hormiga877.c: 394:         case 4:
  4908                           	
  4909                           l382:	
  4910  0C93                     	line	395
  4911                           ;Hormiga877.c: 395:             ADCON0bits.CHS2 = 1;
  4912                           	bcf	status, 5	;RP0=0, select bank0
  4913  0C93  1283               	bcf	status, 6	;RP1=0, select bank0
  4914  0C94  1303               	bsf	(31),5	;volatile
  4915  0C95  169F               	line	396
  4916                           ;Hormiga877.c: 396:             ADCON0bits.CHS1 = 0;
  4917                           	bcf	(31),4	;volatile
  4918  0C96  121F               	line	397
  4919                           ;Hormiga877.c: 397:             ADCON0bits.CHS0 = 0;
  4920                           	bcf	(31),3	;volatile
  4921  0C97  119F               	line	398
  4922                           ;Hormiga877.c: 398:             ADCON0bits.GO_DONE = 1;
  4923                           	bsf	(31),2	;volatile
  4924  0C98  151F               	line	399
  4925                           ;Hormiga877.c: 399:             while(ADCON0bits.GO_DONE != 0)
  4926                           	goto	l383
  4927  0C99  2C9A               	
  4928                           l384:	
  4929  0C9A                     	line	402
  4930                           ;Hormiga877.c: 400:             {;Hormiga877.c: 402:             }
  4931                           	
  4932                           l383:	
  4933  0C9A                     	line	399
  4934                           ;Hormiga877.c: 399:             while(ADCON0bits.GO_DONE != 0)
  4935                           	btfsc	(31),2	;volatile
  4936  0C9A  191F               	goto	u1841
  4937  0C9B  2C9D               	goto	u1840
  4938  0C9C  2C9E               u1841:
  4939  0C9D                     	goto	l383
  4940  0C9D  2C9A               u1840:
  4941  0C9E                     	goto	l2879
  4942  0C9E  2C9F               	
  4943                           l385:	
  4944  0C9F                     	line	403
  4945                           	
  4946                           l2879:	
  4947  0C9F                     ;Hormiga877.c: 403:             return (ADRESH << 8)+ ADRESL;
  4948                           	movf	(30),w	;volatile
  4949  0C9F  081E               	movwf	(?_analogRead+1)
  4950  0CA0  00F1               	bsf	status, 5	;RP0=1, select bank1
  4951  0CA1  1683               	bcf	status, 6	;RP1=0, select bank1
  4952  0CA2  1303               	movf	(158)^080h,w	;volatile
  4953  0CA3  081E               	movwf	(?_analogRead)
  4954  0CA4  00F0               	goto	l368
  4955  0CA5  2CC2               	
  4956                           l2881:	
  4957  0CA6                     	goto	l368
  4958  0CA6  2CC2               	line	404
  4959                           	
  4960                           l2883:	
  4961  0CA7                     ;Hormiga877.c: 404:             break;
  4962                           	goto	l368
  4963  0CA7  2CC2               	line	405
  4964                           	
  4965                           l2885:	
  4966  0CA8                     ;Hormiga877.c: 405:     }
  4967                           	goto	l368
  4968  0CA8  2CC2               	
  4969                           l363:	
  4970  0CA9                     	
  4971                           l2887:	
  4972  0CA9                     	movf	(analogRead@channel),w
  4973  0CA9  0874               	movwf	(??_analogRead+0)+0
  4974  0CAA  00F2               	clrf	(??_analogRead+0)+0+1
  4975  0CAB  01F3               	; Switch on 2 bytes has been partitioned into a top level switch of size 1, and 1 sub-s
                                 witches
  4976                           ; Switch size 1, requested type "space"
  4977                           ; Number of cases is 1, Range of values is 0 to 0
  4978                           ; switch strategies available:
  4979                           ; Name         Instructions Cycles
  4980                           ; simple_byte            4     3 (average)
  4981                           ; direct_byte           11     8 (fixed)
  4982                           ; jumptable            260     6 (fixed)
  4983                           ;	Chosen strategy is simple_byte
  4984                           
  4985                           	movf 1+(??_analogRead+0)+0,w
  4986  0CAC  0873               	opt asmopt_push
  4987                           	opt asmopt_off
  4988                           	xorlw	0^0	; case 0
  4989  0CAD  3A00               	skipnz
  4990  0CAE  1903               	goto	l3531
  4991  0CAF  2CB1               	goto	l368
  4992  0CB0  2CC2               	opt asmopt_pop
  4993                           	
  4994                           l3531:	
  4995  0CB1                     ; Switch size 1, requested type "space"
  4996                           ; Number of cases is 5, Range of values is 0 to 4
  4997                           ; switch strategies available:
  4998                           ; Name         Instructions Cycles
  4999                           ; simple_byte           16     9 (average)
  5000                           ; direct_byte           23     8 (fixed)
  5001                           ; jumptable            260     6 (fixed)
  5002                           ;	Chosen strategy is simple_byte
  5003                           
  5004                           	movf 0+(??_analogRead+0)+0,w
  5005  0CB1  0872               	opt asmopt_push
  5006                           	opt asmopt_off
  5007                           	xorlw	0^0	; case 0
  5008  0CB2  3A00               	skipnz
  5009  0CB3  1903               	goto	l364
  5010  0CB4  2C3F               	xorlw	1^0	; case 1
  5011  0CB5  3A01               	skipnz
  5012  0CB6  1903               	goto	l370
  5013  0CB7  2C54               	xorlw	2^1	; case 2
  5014  0CB8  3A03               	skipnz
  5015  0CB9  1903               	goto	l374
  5016  0CBA  2C69               	xorlw	3^2	; case 3
  5017  0CBB  3A01               	skipnz
  5018  0CBC  1903               	goto	l378
  5019  0CBD  2C7E               	xorlw	4^3	; case 4
  5020  0CBE  3A07               	skipnz
  5021  0CBF  1903               	goto	l382
  5022  0CC0  2C93               	goto	l368
  5023  0CC1  2CC2               	opt asmopt_pop
  5024                           
  5025                           	
  5026                           l369:	
  5027  0CC2                     	line	406
  5028                           	
  5029                           l368:	
  5030  0CC2                     	return
  5031  0CC2  0008               	opt stack 0
  5032                           GLOBAL	__end_of_analogRead
  5033                           	__end_of_analogRead:
  5034  0CC3                     	signat	_analogRead,4218
  5035                           	global	_USRead
  5036                           
  5037 ;; *************** function _USRead *****************
  5038 ;; Defined at:
  5039 ;;		line 15 in file "Ultrasonico.c"
  5040 ;; Parameters:    Size  Location     Type
  5041 ;;  trigger         1    wreg     unsigned char 
  5042 ;;  echo            1   37[BANK0 ] unsigned char 
  5043 ;; Auto vars:     Size  Location     Type
  5044 ;;  trigger         1   43[BANK0 ] unsigned char 
  5045 ;;  buffer          2   41[BANK0 ] unsigned int 
  5046 ;; Return value:  Size  Location     Type
  5047 ;;                  2   37[BANK0 ] unsigned int 
  5048 ;; Registers used:
  5049 ;;		wreg, fsr0l, fsr0h, status,2, status,0, btemp+1, pclath, cstack
  5050 ;; Tracked objects:
  5051 ;;		On entry : 0/0
  5052 ;;		On exit  : 0/0
  5053 ;;		Unchanged: 0/0
  5054 ;; Data sizes:     COMMON   BANK0   BANK1   BANK3   BANK2
  5055 ;;      Params:         0       2       0       0       0
  5056 ;;      Locals:         0       3       0       0       0
  5057 ;;      Temps:          0       2       0       0       0
  5058 ;;      Totals:         0       7       0       0       0
  5059 ;;Total ram usage:        7 bytes
  5060 ;; Hardware stack levels used:    1
  5061 ;; Hardware stack levels required when called:    1
  5062 ;; This function calls:
  5063 ;;		___fldiv
  5064 ;;		___fltol
  5065 ;;		___xxtofl
  5066 ;;		_digitalRead
  5067 ;;		_digitalWrite
  5068 ;; This function is called by:
  5069 ;;		_ProcessCommand
  5070 ;; This function uses a non-reentrant model
  5071 ;;
  5072                           psect	text13,local,class=CODE,delta=2,merge=1,group=0
  5073                           	file	"Ultrasonico.c"
  5074                           	line	15
  5075                           global __ptext13
  5076                           __ptext13:	;psect for function _USRead
  5077  0CC3                     psect	text13
  5078                           	file	"Ultrasonico.c"
  5079                           	line	15
  5080                           	global	__size_of_USRead
  5081                           	__size_of_USRead	equ	__end_of_USRead-_USRead
  5082  0094                     	
  5083                           _USRead:	
  5084  0CC3                     ;incstack = 0
  5085                           	opt	stack 4
  5086                           ; Regs used in _USRead: [wreg-fsr0h+status,2+status,0+btemp+1+pclath+cstack]
  5087                           ;USRead@trigger stored from wreg
  5088                           	bcf	status, 5	;RP0=0, select bank0
  5089  0CC3  1283               	bcf	status, 6	;RP1=0, select bank0
  5090  0CC4  1303               	movwf	(USRead@trigger)
  5091  0CC5  00CB               	line	17
  5092                           	
  5093                           l2961:	
  5094  0CC6                     ;Ultrasonico.c: 15: unsigned int USRead(char trigger, char echo);Ultrasonico.c: 16: {;Ul
                                 trasonico.c: 17:     unsigned int buffer = 0;
  5095                           	clrf	(USRead@buffer)
  5096  0CC6  01C9               	clrf	(USRead@buffer+1)
  5097  0CC7  01CA               	line	18
  5098                           ;Ultrasonico.c: 18:     TMR1H = 0x00;
  5099                           	clrf	(15)	;volatile
  5100  0CC8  018F               	line	19
  5101                           ;Ultrasonico.c: 19:     TMR1L = 0x00;
  5102                           	clrf	(14)	;volatile
  5103  0CC9  018E               	line	20
  5104                           	
  5105                           l2963:	
  5106  0CCA                     ;Ultrasonico.c: 20:     digitalWrite(trigger,1);
  5107                           	clrf	(digitalWrite@value)
  5108  0CCA  01F0               	incf	(digitalWrite@value),f
  5109  0CCB  0AF0               	movf	(USRead@trigger),w
  5110  0CCC  084B               	fcall	_digitalWrite
  5111  0CCD  120A  118A  2247  120A  158A  	line	21
  5112                           	
  5113                           l2965:	
  5114  0CD2                     ;Ultrasonico.c: 21:     _delay((unsigned long)((10)*(20000000/4000000.0)));
  5115                           	opt asmopt_push
  5116                           opt asmopt_off
  5117                           	movlw	15
  5118  0CD2  300F               	bcf	status, 5	;RP0=0, select bank0
  5119  0CD3  1283               	bcf	status, 6	;RP1=0, select bank0
  5120  0CD4  1303               movwf	((??_USRead+0)+0),f
  5121  0CD5  00C7               	u2367:
  5122  0CD6                     decfsz	(??_USRead+0)+0,f
  5123  0CD6  0BC7               	goto	u2367
  5124  0CD7  2CD6               	nop2
  5125  0CD8  2CD9               opt asmopt_pop
  5126                           
  5127                           	line	22
  5128                           	
  5129                           l2967:	
  5130  0CD9                     ;Ultrasonico.c: 22:     digitalWrite(trigger,0);
  5131                           	clrf	(digitalWrite@value)
  5132  0CD9  01F0               	bcf	status, 5	;RP0=0, select bank0
  5133  0CDA  1283               	bcf	status, 6	;RP1=0, select bank0
  5134  0CDB  1303               	movf	(USRead@trigger),w
  5135  0CDC  084B               	fcall	_digitalWrite
  5136  0CDD  120A  118A  2247  120A  158A  	line	23
  5137                           ;Ultrasonico.c: 23:     while(!digitalRead(echo));
  5138                           	goto	l2969
  5139  0CE2  2CE4               	
  5140                           l140:	
  5141  0CE3                     	goto	l2969
  5142  0CE3  2CE4               	
  5143                           l139:	
  5144  0CE4                     	
  5145                           l2969:	
  5146  0CE4                     	bcf	status, 5	;RP0=0, select bank0
  5147  0CE4  1283               	bcf	status, 6	;RP1=0, select bank0
  5148  0CE5  1303               	movf	(USRead@echo),w
  5149  0CE6  0845               	fcall	_digitalRead
  5150  0CE7  120A  118A  236A  120A  158A  	xorlw	0
  5151  0CEC  3A00               	skipnz
  5152  0CED  1903               	goto	u1921
  5153  0CEE  2CF0               	goto	u1920
  5154  0CEF  2CF1               u1921:
  5155  0CF0                     	goto	l2969
  5156  0CF0  2CE4               u1920:
  5157  0CF1                     	
  5158                           l141:	
  5159  0CF1                     	line	24
  5160                           ;Ultrasonico.c: 24:     TMR1ON = 1;
  5161                           	bcf	status, 5	;RP0=0, select bank0
  5162  0CF1  1283               	bcf	status, 6	;RP1=0, select bank0
  5163  0CF2  1303               	bsf	(128/8),(128)&7	;volatile
  5164  0CF3  1410               	line	25
  5165                           ;Ultrasonico.c: 25:     while(digitalRead(echo));
  5166                           	goto	l2971
  5167  0CF4  2CF6               	
  5168                           l143:	
  5169  0CF5                     	goto	l2971
  5170  0CF5  2CF6               	
  5171                           l142:	
  5172  0CF6                     	
  5173                           l2971:	
  5174  0CF6                     	bcf	status, 5	;RP0=0, select bank0
  5175  0CF6  1283               	bcf	status, 6	;RP1=0, select bank0
  5176  0CF7  1303               	movf	(USRead@echo),w
  5177  0CF8  0845               	fcall	_digitalRead
  5178  0CF9  120A  118A  236A  120A  158A  	xorlw	0
  5179  0CFE  3A00               	skipz
  5180  0CFF  1D03               	goto	u1931
  5181  0D00  2D02               	goto	u1930
  5182  0D01  2D03               u1931:
  5183  0D02                     	goto	l2971
  5184  0D02  2CF6               u1930:
  5185  0D03                     	
  5186                           l144:	
  5187  0D03                     	line	26
  5188                           ;Ultrasonico.c: 26:     TMR1ON = 0;
  5189                           	bcf	status, 5	;RP0=0, select bank0
  5190  0D03  1283               	bcf	status, 6	;RP1=0, select bank0
  5191  0D04  1303               	bcf	(128/8),(128)&7	;volatile
  5192  0D05  1010               	line	27
  5193                           	
  5194                           l2973:	
  5195  0D06                     ;Ultrasonico.c: 27:     buffer = (int)(((TMR1H << 8) + TMR1L) / 3.7);
  5196                           	movf	(15),w	;volatile
  5197  0D06  080F               	movwf	(??_USRead+0)+0
  5198  0D07  00C7               	clrf	(??_USRead+0)+0+1
  5199  0D08  01C8               	movf	(??_USRead+0)+0,w
  5200  0D09  0847               	movwf	(??_USRead+0)+1
  5201  0D0A  00C8               	clrf	(??_USRead+0)+0
  5202  0D0B  01C7               	movf	(14),w	;volatile
  5203  0D0C  080E               	addwf	0+(??_USRead+0)+0,w
  5204  0D0D  0747               	movwf	(___xxtofl@val)
  5205  0D0E  00F0               	movlw	0
  5206  0D0F  3000               	skipnc
  5207  0D10  1803               	movlw	1
  5208  0D11  3001               	addwf	1+(??_USRead+0)+0,w
  5209  0D12  0748               	movwf	1+(___xxtofl@val)
  5210  0D13  00F1               	clrf	(___xxtofl@val)+2
  5211  0D14  01F2               	btfsc	(___xxtofl@val)+1,7
  5212  0D15  1BF1               	decf	2+(___xxtofl@val),f
  5213  0D16  03F2               	movf	(___xxtofl@val)+2,w
  5214  0D17  0872               	movwf	3+(___xxtofl@val)
  5215  0D18  00F3               	movlw	low(01h)
  5216  0D19  3001               	fcall	___xxtofl
  5217  0D1A  120A  158A  273E  120A  158A  	movf	(3+(?___xxtofl)),w
  5218  0D1F  0873               	bcf	status, 5	;RP0=0, select bank0
  5219  0D20  1283               	bcf	status, 6	;RP1=0, select bank0
  5220  0D21  1303               	movwf	(___fldiv@b+3)
  5221  0D22  00A7               	movf	(2+(?___xxtofl)),w
  5222  0D23  0872               	movwf	(___fldiv@b+2)
  5223  0D24  00A6               	movf	(1+(?___xxtofl)),w
  5224  0D25  0871               	movwf	(___fldiv@b+1)
  5225  0D26  00A5               	movf	(0+(?___xxtofl)),w
  5226  0D27  0870               	movwf	(___fldiv@b)
  5227  0D28  00A4               
  5228                           	movlw	0x40
  5229  0D29  3040               	movwf	(___fldiv@a+3)
  5230  0D2A  00A3               	movlw	0x6c
  5231  0D2B  306C               	movwf	(___fldiv@a+2)
  5232  0D2C  00A2               	movlw	0xcc
  5233  0D2D  30CC               	movwf	(___fldiv@a+1)
  5234  0D2E  00A1               	movlw	0xcd
  5235  0D2F  30CD               	movwf	(___fldiv@a)
  5236  0D30  00A0               
  5237                           	fcall	___fldiv
  5238  0D31  120A  118A  25CD  120A  158A  	bcf	status, 5	;RP0=0, select bank0
  5239  0D36  1283               	bcf	status, 6	;RP1=0, select bank0
  5240  0D37  1303               	movf	(3+(?___fldiv)),w
  5241  0D38  0823               	movwf	(___fltol@f1+3)
  5242  0D39  00BD               	movf	(2+(?___fldiv)),w
  5243  0D3A  0822               	movwf	(___fltol@f1+2)
  5244  0D3B  00BC               	movf	(1+(?___fldiv)),w
  5245  0D3C  0821               	movwf	(___fltol@f1+1)
  5246  0D3D  00BB               	movf	(0+(?___fldiv)),w
  5247  0D3E  0820               	movwf	(___fltol@f1)
  5248  0D3F  00BA               
  5249                           	fcall	___fltol
  5250  0D40  120A  158A  2557  120A  158A  	bcf	status, 5	;RP0=0, select bank0
  5251  0D45  1283               	bcf	status, 6	;RP1=0, select bank0
  5252  0D46  1303               	movf	(1+(?___fltol)),w
  5253  0D47  083B               	movwf	(USRead@buffer+1)
  5254  0D48  00CA               	movf	(0+(?___fltol)),w
  5255  0D49  083A               	movwf	(USRead@buffer)
  5256  0D4A  00C9               	line	28
  5257                           	
  5258                           l2975:	
  5259  0D4B                     ;Ultrasonico.c: 28:     buffer -= 7;
  5260                           	movlw	07h
  5261  0D4B  3007               	subwf	(USRead@buffer),f
  5262  0D4C  02C9               	movlw	0
  5263  0D4D  3000               	skipc
  5264  0D4E  1C03               	decf	(USRead@buffer+1),f
  5265  0D4F  03CA               	subwf	(USRead@buffer+1),f
  5266  0D50  02CA               	line	29
  5267                           	
  5268                           l2977:	
  5269  0D51                     ;Ultrasonico.c: 29:     return buffer;
  5270                           	movf	(USRead@buffer+1),w
  5271  0D51  084A               	movwf	(?_USRead+1)
  5272  0D52  00C6               	movf	(USRead@buffer),w
  5273  0D53  0849               	movwf	(?_USRead)
  5274  0D54  00C5               	goto	l145
  5275  0D55  2D56               	
  5276                           l2979:	
  5277  0D56                     	line	30
  5278                           	
  5279                           l145:	
  5280  0D56                     	return
  5281  0D56  0008               	opt stack 0
  5282                           GLOBAL	__end_of_USRead
  5283                           	__end_of_USRead:
  5284  0D57                     	signat	_USRead,8314
  5285                           	global	_digitalWrite
  5286                           
  5287 ;; *************** function _digitalWrite *****************
  5288 ;; Defined at:
  5289 ;;		line 166 in file "Hormiga877.c"
  5290 ;; Parameters:    Size  Location     Type
  5291 ;;  pin             1    wreg     unsigned char 
  5292 ;;  value           1    0[COMMON] unsigned char 
  5293 ;; Auto vars:     Size  Location     Type
  5294 ;;  pin             1    3[COMMON] unsigned char 
  5295 ;; Return value:  Size  Location     Type
  5296 ;;                  1    wreg      void 
  5297 ;; Registers used:
  5298 ;;		wreg, fsr0l, fsr0h, status,2, status,0
  5299 ;; Tracked objects:
  5300 ;;		On entry : 0/0
  5301 ;;		On exit  : 0/0
  5302 ;;		Unchanged: 0/0
  5303 ;; Data sizes:     COMMON   BANK0   BANK1   BANK3   BANK2
  5304 ;;      Params:         1       0       0       0       0
  5305 ;;      Locals:         1       0       0       0       0
  5306 ;;      Temps:          2       0       0       0       0
  5307 ;;      Totals:         4       0       0       0       0
  5308 ;;Total ram usage:        4 bytes
  5309 ;; Hardware stack levels used:    1
  5310 ;; This function calls:
  5311 ;;		Nothing
  5312 ;; This function is called by:
  5313 ;;		_setup
  5314 ;;		_ProcessCommand
  5315 ;;		_USBegin
  5316 ;;		_USRead
  5317 ;;		_USReadB
  5318 ;; This function uses a non-reentrant model
  5319 ;;
  5320                           psect	text14,local,class=CODE,delta=2,merge=1,group=0
  5321                           	file	"Hormiga877.c"
  5322                           	line	166
  5323                           global __ptext14
  5324                           __ptext14:	;psect for function _digitalWrite
  5325  0247                     psect	text14
  5326                           	file	"Hormiga877.c"
  5327                           	line	166
  5328                           	global	__size_of_digitalWrite
  5329                           	__size_of_digitalWrite	equ	__end_of_digitalWrite-_digitalWrite
  5330  0123                     	
  5331                           _digitalWrite:	
  5332  0247                     ;incstack = 0
  5333                           	opt	stack 6
  5334                           ; Regs used in _digitalWrite: [wreg-fsr0h+status,2+status,0]
  5335                           ;digitalWrite@pin stored from wreg
  5336                           	movwf	(digitalWrite@pin)
  5337  0247  00F3               	line	168
  5338                           	
  5339                           l2329:	
  5340  0248                     ;Hormiga877.c: 166: void digitalWrite(char pin, char value);Hormiga877.c: 167: {;Hormiga
                                 877.c: 168:     switch(pin)
  5341                           	goto	l2387
  5342  0248  2B14               	line	170
  5343                           ;Hormiga877.c: 169:     {;Hormiga877.c: 170:         case 0:
  5344                           	
  5345                           l304:	
  5346  0249                     	line	171
  5347                           	
  5348                           l2331:	
  5349  0249                     ;Hormiga877.c: 171:             PORTCbits.RC7 = value;
  5350                           	rrf	(digitalWrite@value),w
  5351  0249  0C70               	bcf	status, 5	;RP0=0, select bank0
  5352  024A  1283               	bcf	status, 6	;RP1=0, select bank0
  5353  024B  1303               	skipc
  5354  024C  1C03               	bcf	(7),7	;volatile
  5355  024D  1387               	skipnc
  5356  024E  1803               	bsf	(7),7	;volatile
  5357  024F  1787               	line	172
  5358                           ;Hormiga877.c: 172:             break;
  5359                           	goto	l330
  5360  0250  2B69               	line	173
  5361                           ;Hormiga877.c: 173:         case 1:
  5362                           	
  5363                           l306:	
  5364  0251                     	line	174
  5365                           	
  5366                           l2333:	
  5367  0251                     ;Hormiga877.c: 174:             PORTCbits.RC6 = value;
  5368                           	rrf	(digitalWrite@value),w
  5369  0251  0C70               	bcf	status, 5	;RP0=0, select bank0
  5370  0252  1283               	bcf	status, 6	;RP1=0, select bank0
  5371  0253  1303               	skipc
  5372  0254  1C03               	bcf	(7),6	;volatile
  5373  0255  1307               	skipnc
  5374  0256  1803               	bsf	(7),6	;volatile
  5375  0257  1707               	line	175
  5376                           ;Hormiga877.c: 175:             break;
  5377                           	goto	l330
  5378  0258  2B69               	line	176
  5379                           ;Hormiga877.c: 176:         case 2:
  5380                           	
  5381                           l307:	
  5382  0259                     	line	177
  5383                           	
  5384                           l2335:	
  5385  0259                     ;Hormiga877.c: 177:             PORTCbits.RC5 = value;
  5386                           	rrf	(digitalWrite@value),w
  5387  0259  0C70               	bcf	status, 5	;RP0=0, select bank0
  5388  025A  1283               	bcf	status, 6	;RP1=0, select bank0
  5389  025B  1303               	skipc
  5390  025C  1C03               	bcf	(7),5	;volatile
  5391  025D  1287               	skipnc
  5392  025E  1803               	bsf	(7),5	;volatile
  5393  025F  1687               	line	178
  5394                           ;Hormiga877.c: 178:             break;
  5395                           	goto	l330
  5396  0260  2B69               	line	179
  5397                           ;Hormiga877.c: 179:         case 3:
  5398                           	
  5399                           l308:	
  5400  0261                     	line	180
  5401                           	
  5402                           l2337:	
  5403  0261                     ;Hormiga877.c: 180:             PORTCbits.RC4 = value;
  5404                           	rrf	(digitalWrite@value),w
  5405  0261  0C70               	bcf	status, 5	;RP0=0, select bank0
  5406  0262  1283               	bcf	status, 6	;RP1=0, select bank0
  5407  0263  1303               	skipc
  5408  0264  1C03               	bcf	(7),4	;volatile
  5409  0265  1207               	skipnc
  5410  0266  1803               	bsf	(7),4	;volatile
  5411  0267  1607               	line	181
  5412                           ;Hormiga877.c: 181:             break;
  5413                           	goto	l330
  5414  0268  2B69               	line	182
  5415                           ;Hormiga877.c: 182:         case 4:
  5416                           	
  5417                           l309:	
  5418  0269                     	line	183
  5419                           	
  5420                           l2339:	
  5421  0269                     ;Hormiga877.c: 183:             PORTCbits.RC3 = value;
  5422                           	rrf	(digitalWrite@value),w
  5423  0269  0C70               	bcf	status, 5	;RP0=0, select bank0
  5424  026A  1283               	bcf	status, 6	;RP1=0, select bank0
  5425  026B  1303               	skipc
  5426  026C  1C03               	bcf	(7),3	;volatile
  5427  026D  1187               	skipnc
  5428  026E  1803               	bsf	(7),3	;volatile
  5429  026F  1587               	line	184
  5430                           ;Hormiga877.c: 184:             break;
  5431                           	goto	l330
  5432  0270  2B69               	line	185
  5433                           ;Hormiga877.c: 185:         case 5:
  5434                           	
  5435                           l310:	
  5436  0271                     	line	186
  5437                           	
  5438                           l2341:	
  5439  0271                     ;Hormiga877.c: 186:             CCP1CON = 0x00;
  5440                           	bcf	status, 5	;RP0=0, select bank0
  5441  0271  1283               	bcf	status, 6	;RP1=0, select bank0
  5442  0272  1303               	clrf	(23)	;volatile
  5443  0273  0197               	line	187
  5444                           	
  5445                           l2343:	
  5446  0274                     ;Hormiga877.c: 187:             PORTCbits.RC2 = value;
  5447                           	rrf	(digitalWrite@value),w
  5448  0274  0C70               	skipc
  5449  0275  1C03               	bcf	(7),2	;volatile
  5450  0276  1107               	skipnc
  5451  0277  1803               	bsf	(7),2	;volatile
  5452  0278  1507               	line	188
  5453                           ;Hormiga877.c: 188:             break;
  5454                           	goto	l330
  5455  0279  2B69               	line	189
  5456                           ;Hormiga877.c: 189:         case 6:
  5457                           	
  5458                           l311:	
  5459  027A                     	line	190
  5460                           	
  5461                           l2345:	
  5462  027A                     ;Hormiga877.c: 190:             CCP2CON = 0x00;
  5463                           	bcf	status, 5	;RP0=0, select bank0
  5464  027A  1283               	bcf	status, 6	;RP1=0, select bank0
  5465  027B  1303               	clrf	(29)	;volatile
  5466  027C  019D               	line	191
  5467                           	
  5468                           l2347:	
  5469  027D                     ;Hormiga877.c: 191:             PORTCbits.RC1 = value;
  5470                           	rrf	(digitalWrite@value),w
  5471  027D  0C70               	skipc
  5472  027E  1C03               	bcf	(7),1	;volatile
  5473  027F  1087               	skipnc
  5474  0280  1803               	bsf	(7),1	;volatile
  5475  0281  1487               	line	192
  5476                           ;Hormiga877.c: 192:             break;
  5477                           	goto	l330
  5478  0282  2B69               	line	193
  5479                           ;Hormiga877.c: 193:         case 7:
  5480                           	
  5481                           l312:	
  5482  0283                     	line	194
  5483                           	
  5484                           l2349:	
  5485  0283                     ;Hormiga877.c: 194:             PORTCbits.RC0 = value;
  5486                           	rrf	(digitalWrite@value),w
  5487  0283  0C70               	bcf	status, 5	;RP0=0, select bank0
  5488  0284  1283               	bcf	status, 6	;RP1=0, select bank0
  5489  0285  1303               	skipc
  5490  0286  1C03               	bcf	(7),0	;volatile
  5491  0287  1007               	skipnc
  5492  0288  1803               	bsf	(7),0	;volatile
  5493  0289  1407               	line	195
  5494                           ;Hormiga877.c: 195:             break;
  5495                           	goto	l330
  5496  028A  2B69               	line	196
  5497                           ;Hormiga877.c: 196:         case 8:
  5498                           	
  5499                           l313:	
  5500  028B                     	line	197
  5501                           	
  5502                           l2351:	
  5503  028B                     ;Hormiga877.c: 197:             PORTBbits.RB0 = value;
  5504                           	rrf	(digitalWrite@value),w
  5505  028B  0C70               	bcf	status, 5	;RP0=0, select bank0
  5506  028C  1283               	bcf	status, 6	;RP1=0, select bank0
  5507  028D  1303               	skipc
  5508  028E  1C03               	bcf	(6),0	;volatile
  5509  028F  1006               	skipnc
  5510  0290  1803               	bsf	(6),0	;volatile
  5511  0291  1406               	line	198
  5512                           ;Hormiga877.c: 198:             break;
  5513                           	goto	l330
  5514  0292  2B69               	line	199
  5515                           ;Hormiga877.c: 199:         case 9:
  5516                           	
  5517                           l314:	
  5518  0293                     	line	200
  5519                           	
  5520                           l2353:	
  5521  0293                     ;Hormiga877.c: 200:             PORTBbits.RB1 = value;
  5522                           	rrf	(digitalWrite@value),w
  5523  0293  0C70               	bcf	status, 5	;RP0=0, select bank0
  5524  0294  1283               	bcf	status, 6	;RP1=0, select bank0
  5525  0295  1303               	skipc
  5526  0296  1C03               	bcf	(6),1	;volatile
  5527  0297  1086               	skipnc
  5528  0298  1803               	bsf	(6),1	;volatile
  5529  0299  1486               	line	201
  5530                           ;Hormiga877.c: 201:             break;
  5531                           	goto	l330
  5532  029A  2B69               	line	202
  5533                           ;Hormiga877.c: 202:         case 10:
  5534                           	
  5535                           l315:	
  5536  029B                     	line	203
  5537                           	
  5538                           l2355:	
  5539  029B                     ;Hormiga877.c: 203:             PORTBbits.RB2 = value;
  5540                           	rrf	(digitalWrite@value),w
  5541  029B  0C70               	bcf	status, 5	;RP0=0, select bank0
  5542  029C  1283               	bcf	status, 6	;RP1=0, select bank0
  5543  029D  1303               	skipc
  5544  029E  1C03               	bcf	(6),2	;volatile
  5545  029F  1106               	skipnc
  5546  02A0  1803               	bsf	(6),2	;volatile
  5547  02A1  1506               	line	204
  5548                           ;Hormiga877.c: 204:             break;
  5549                           	goto	l330
  5550  02A2  2B69               	line	205
  5551                           ;Hormiga877.c: 205:         case 11:
  5552                           	
  5553                           l316:	
  5554  02A3                     	line	206
  5555                           	
  5556                           l2357:	
  5557  02A3                     ;Hormiga877.c: 206:             PORTBbits.RB3 = value;
  5558                           	rrf	(digitalWrite@value),w
  5559  02A3  0C70               	bcf	status, 5	;RP0=0, select bank0
  5560  02A4  1283               	bcf	status, 6	;RP1=0, select bank0
  5561  02A5  1303               	skipc
  5562  02A6  1C03               	bcf	(6),3	;volatile
  5563  02A7  1186               	skipnc
  5564  02A8  1803               	bsf	(6),3	;volatile
  5565  02A9  1586               	line	207
  5566                           ;Hormiga877.c: 207:             break;
  5567                           	goto	l330
  5568  02AA  2B69               	line	208
  5569                           ;Hormiga877.c: 208:         case 12:
  5570                           	
  5571                           l317:	
  5572  02AB                     	line	209
  5573                           	
  5574                           l2359:	
  5575  02AB                     ;Hormiga877.c: 209:             PORTBbits.RB4 = value;
  5576                           	rrf	(digitalWrite@value),w
  5577  02AB  0C70               	bcf	status, 5	;RP0=0, select bank0
  5578  02AC  1283               	bcf	status, 6	;RP1=0, select bank0
  5579  02AD  1303               	skipc
  5580  02AE  1C03               	bcf	(6),4	;volatile
  5581  02AF  1206               	skipnc
  5582  02B0  1803               	bsf	(6),4	;volatile
  5583  02B1  1606               	line	210
  5584                           ;Hormiga877.c: 210:             break;
  5585                           	goto	l330
  5586  02B2  2B69               	line	211
  5587                           ;Hormiga877.c: 211:         case 13:
  5588                           	
  5589                           l318:	
  5590  02B3                     	line	212
  5591                           	
  5592                           l2361:	
  5593  02B3                     ;Hormiga877.c: 212:             PORTBbits.RB5 = value;
  5594                           	rrf	(digitalWrite@value),w
  5595  02B3  0C70               	bcf	status, 5	;RP0=0, select bank0
  5596  02B4  1283               	bcf	status, 6	;RP1=0, select bank0
  5597  02B5  1303               	skipc
  5598  02B6  1C03               	bcf	(6),5	;volatile
  5599  02B7  1286               	skipnc
  5600  02B8  1803               	bsf	(6),5	;volatile
  5601  02B9  1686               	line	213
  5602                           ;Hormiga877.c: 213:             break;
  5603                           	goto	l330
  5604  02BA  2B69               	line	214
  5605                           ;Hormiga877.c: 214:         case 14:
  5606                           	
  5607                           l319:	
  5608  02BB                     	line	215
  5609                           	
  5610                           l2363:	
  5611  02BB                     ;Hormiga877.c: 215:             PORTBbits.RB6 = value;
  5612                           	rrf	(digitalWrite@value),w
  5613  02BB  0C70               	bcf	status, 5	;RP0=0, select bank0
  5614  02BC  1283               	bcf	status, 6	;RP1=0, select bank0
  5615  02BD  1303               	skipc
  5616  02BE  1C03               	bcf	(6),6	;volatile
  5617  02BF  1306               	skipnc
  5618  02C0  1803               	bsf	(6),6	;volatile
  5619  02C1  1706               	line	216
  5620                           ;Hormiga877.c: 216:             break;
  5621                           	goto	l330
  5622  02C2  2B69               	line	217
  5623                           ;Hormiga877.c: 217:         case 15:
  5624                           	
  5625                           l320:	
  5626  02C3                     	line	218
  5627                           	
  5628                           l2365:	
  5629  02C3                     ;Hormiga877.c: 218:             PORTBbits.RB7 = value;
  5630                           	rrf	(digitalWrite@value),w
  5631  02C3  0C70               	bcf	status, 5	;RP0=0, select bank0
  5632  02C4  1283               	bcf	status, 6	;RP1=0, select bank0
  5633  02C5  1303               	skipc
  5634  02C6  1C03               	bcf	(6),7	;volatile
  5635  02C7  1386               	skipnc
  5636  02C8  1803               	bsf	(6),7	;volatile
  5637  02C9  1786               	line	219
  5638                           ;Hormiga877.c: 219:             break;
  5639                           	goto	l330
  5640  02CA  2B69               	line	220
  5641                           ;Hormiga877.c: 220:         case 16:
  5642                           	
  5643                           l321:	
  5644  02CB                     	line	221
  5645                           	
  5646                           l2367:	
  5647  02CB                     ;Hormiga877.c: 221:             PORTDbits.RD0 = value;
  5648                           	rrf	(digitalWrite@value),w
  5649  02CB  0C70               	bcf	status, 5	;RP0=0, select bank0
  5650  02CC  1283               	bcf	status, 6	;RP1=0, select bank0
  5651  02CD  1303               	skipc
  5652  02CE  1C03               	bcf	(8),0	;volatile
  5653  02CF  1008               	skipnc
  5654  02D0  1803               	bsf	(8),0	;volatile
  5655  02D1  1408               	line	222
  5656                           ;Hormiga877.c: 222:             break;
  5657                           	goto	l330
  5658  02D2  2B69               	line	223
  5659                           ;Hormiga877.c: 223:         case 17:
  5660                           	
  5661                           l322:	
  5662  02D3                     	line	224
  5663                           	
  5664                           l2369:	
  5665  02D3                     ;Hormiga877.c: 224:             PORTDbits.RD1 = value;
  5666                           	rrf	(digitalWrite@value),w
  5667  02D3  0C70               	bcf	status, 5	;RP0=0, select bank0
  5668  02D4  1283               	bcf	status, 6	;RP1=0, select bank0
  5669  02D5  1303               	skipc
  5670  02D6  1C03               	bcf	(8),1	;volatile
  5671  02D7  1088               	skipnc
  5672  02D8  1803               	bsf	(8),1	;volatile
  5673  02D9  1488               	line	225
  5674                           ;Hormiga877.c: 225:             break;
  5675                           	goto	l330
  5676  02DA  2B69               	line	226
  5677                           ;Hormiga877.c: 226:         case 18:
  5678                           	
  5679                           l323:	
  5680  02DB                     	line	227
  5681                           	
  5682                           l2371:	
  5683  02DB                     ;Hormiga877.c: 227:             PORTDbits.RD2 = value;
  5684                           	rrf	(digitalWrite@value),w
  5685  02DB  0C70               	bcf	status, 5	;RP0=0, select bank0
  5686  02DC  1283               	bcf	status, 6	;RP1=0, select bank0
  5687  02DD  1303               	skipc
  5688  02DE  1C03               	bcf	(8),2	;volatile
  5689  02DF  1108               	skipnc
  5690  02E0  1803               	bsf	(8),2	;volatile
  5691  02E1  1508               	line	228
  5692                           ;Hormiga877.c: 228:             break;
  5693                           	goto	l330
  5694  02E2  2B69               	line	229
  5695                           ;Hormiga877.c: 229:         case 19:
  5696                           	
  5697                           l324:	
  5698  02E3                     	line	230
  5699                           	
  5700                           l2373:	
  5701  02E3                     ;Hormiga877.c: 230:             PORTDbits.RD3 = value;
  5702                           	rrf	(digitalWrite@value),w
  5703  02E3  0C70               	bcf	status, 5	;RP0=0, select bank0
  5704  02E4  1283               	bcf	status, 6	;RP1=0, select bank0
  5705  02E5  1303               	skipc
  5706  02E6  1C03               	bcf	(8),3	;volatile
  5707  02E7  1188               	skipnc
  5708  02E8  1803               	bsf	(8),3	;volatile
  5709  02E9  1588               	line	231
  5710                           ;Hormiga877.c: 231:             break;
  5711                           	goto	l330
  5712  02EA  2B69               	line	232
  5713                           ;Hormiga877.c: 232:         case 20:
  5714                           	
  5715                           l325:	
  5716  02EB                     	line	233
  5717                           	
  5718                           l2375:	
  5719  02EB                     ;Hormiga877.c: 233:             PORTDbits.RD4 = value;
  5720                           	rrf	(digitalWrite@value),w
  5721  02EB  0C70               	bcf	status, 5	;RP0=0, select bank0
  5722  02EC  1283               	bcf	status, 6	;RP1=0, select bank0
  5723  02ED  1303               	skipc
  5724  02EE  1C03               	bcf	(8),4	;volatile
  5725  02EF  1208               	skipnc
  5726  02F0  1803               	bsf	(8),4	;volatile
  5727  02F1  1608               	line	234
  5728                           ;Hormiga877.c: 234:             break;
  5729                           	goto	l330
  5730  02F2  2B69               	line	235
  5731                           ;Hormiga877.c: 235:         case 21:
  5732                           	
  5733                           l326:	
  5734  02F3                     	line	236
  5735                           	
  5736                           l2377:	
  5737  02F3                     ;Hormiga877.c: 236:             PORTDbits.RD5 = value;
  5738                           	rrf	(digitalWrite@value),w
  5739  02F3  0C70               	bcf	status, 5	;RP0=0, select bank0
  5740  02F4  1283               	bcf	status, 6	;RP1=0, select bank0
  5741  02F5  1303               	skipc
  5742  02F6  1C03               	bcf	(8),5	;volatile
  5743  02F7  1288               	skipnc
  5744  02F8  1803               	bsf	(8),5	;volatile
  5745  02F9  1688               	line	237
  5746                           ;Hormiga877.c: 237:             break;
  5747                           	goto	l330
  5748  02FA  2B69               	line	238
  5749                           ;Hormiga877.c: 238:         case 22:
  5750                           	
  5751                           l327:	
  5752  02FB                     	line	239
  5753                           	
  5754                           l2379:	
  5755  02FB                     ;Hormiga877.c: 239:             PORTDbits.RD6 = value;
  5756                           	rrf	(digitalWrite@value),w
  5757  02FB  0C70               	bcf	status, 5	;RP0=0, select bank0
  5758  02FC  1283               	bcf	status, 6	;RP1=0, select bank0
  5759  02FD  1303               	skipc
  5760  02FE  1C03               	bcf	(8),6	;volatile
  5761  02FF  1308               	skipnc
  5762  0300  1803               	bsf	(8),6	;volatile
  5763  0301  1708               	line	240
  5764                           ;Hormiga877.c: 240:             break;
  5765                           	goto	l330
  5766  0302  2B69               	line	241
  5767                           ;Hormiga877.c: 241:         case 23:
  5768                           	
  5769                           l328:	
  5770  0303                     	line	242
  5771                           	
  5772                           l2381:	
  5773  0303                     ;Hormiga877.c: 242:             PORTDbits.RD7 = value;
  5774                           	rrf	(digitalWrite@value),w
  5775  0303  0C70               	bcf	status, 5	;RP0=0, select bank0
  5776  0304  1283               	bcf	status, 6	;RP1=0, select bank0
  5777  0305  1303               	skipc
  5778  0306  1C03               	bcf	(8),7	;volatile
  5779  0307  1388               	skipnc
  5780  0308  1803               	bsf	(8),7	;volatile
  5781  0309  1788               	line	243
  5782                           ;Hormiga877.c: 243:             break;
  5783                           	goto	l330
  5784  030A  2B69               	line	244
  5785                           ;Hormiga877.c: 244:         case 24:
  5786                           	
  5787                           l329:	
  5788  030B                     	line	245
  5789                           	
  5790                           l2383:	
  5791  030B                     ;Hormiga877.c: 245:             PORTAbits.RA4 = value;
  5792                           	rrf	(digitalWrite@value),w
  5793  030B  0C70               	bcf	status, 5	;RP0=0, select bank0
  5794  030C  1283               	bcf	status, 6	;RP1=0, select bank0
  5795  030D  1303               	skipc
  5796  030E  1C03               	bcf	(5),4	;volatile
  5797  030F  1205               	skipnc
  5798  0310  1803               	bsf	(5),4	;volatile
  5799  0311  1605               	line	246
  5800                           ;Hormiga877.c: 246:             break;
  5801                           	goto	l330
  5802  0312  2B69               	line	255
  5803                           	
  5804                           l2385:	
  5805  0313                     ;Hormiga877.c: 255:     }
  5806                           	goto	l330
  5807  0313  2B69               	
  5808                           l303:	
  5809  0314                     	
  5810                           l2387:	
  5811  0314                     	movf	(digitalWrite@pin),w
  5812  0314  0873               	movwf	(??_digitalWrite+0)+0
  5813  0315  00F1               	clrf	(??_digitalWrite+0)+0+1
  5814  0316  01F2               	; Switch on 2 bytes has been partitioned into a top level switch of size 1, and 1 sub-s
                                 witches
  5815                           ; Switch size 1, requested type "space"
  5816                           ; Number of cases is 1, Range of values is 0 to 0
  5817                           ; switch strategies available:
  5818                           ; Name         Instructions Cycles
  5819                           ; simple_byte            4     3 (average)
  5820                           ; direct_byte           11     8 (fixed)
  5821                           ; jumptable            260     6 (fixed)
  5822                           ;	Chosen strategy is simple_byte
  5823                           
  5824                           	movf 1+(??_digitalWrite+0)+0,w
  5825  0317  0872               	opt asmopt_push
  5826                           	opt asmopt_off
  5827                           	xorlw	0^0	; case 0
  5828  0318  3A00               	skipnz
  5829  0319  1903               	goto	l3533
  5830  031A  2B1C               	goto	l330
  5831  031B  2B69               	opt asmopt_pop
  5832                           	
  5833                           l3533:	
  5834  031C                     ; Switch size 1, requested type "space"
  5835                           ; Number of cases is 25, Range of values is 0 to 24
  5836                           ; switch strategies available:
  5837                           ; Name         Instructions Cycles
  5838                           ; simple_byte           76    39 (average)
  5839                           ; direct_byte           83     8 (fixed)
  5840                           ; jumptable            260     6 (fixed)
  5841                           ;	Chosen strategy is simple_byte
  5842                           
  5843                           	movf 0+(??_digitalWrite+0)+0,w
  5844  031C  0871               	opt asmopt_push
  5845                           	opt asmopt_off
  5846                           	xorlw	0^0	; case 0
  5847  031D  3A00               	skipnz
  5848  031E  1903               	goto	l2331
  5849  031F  2A49               	xorlw	1^0	; case 1
  5850  0320  3A01               	skipnz
  5851  0321  1903               	goto	l2333
  5852  0322  2A51               	xorlw	2^1	; case 2
  5853  0323  3A03               	skipnz
  5854  0324  1903               	goto	l2335
  5855  0325  2A59               	xorlw	3^2	; case 3
  5856  0326  3A01               	skipnz
  5857  0327  1903               	goto	l2337
  5858  0328  2A61               	xorlw	4^3	; case 4
  5859  0329  3A07               	skipnz
  5860  032A  1903               	goto	l2339
  5861  032B  2A69               	xorlw	5^4	; case 5
  5862  032C  3A01               	skipnz
  5863  032D  1903               	goto	l2341
  5864  032E  2A71               	xorlw	6^5	; case 6
  5865  032F  3A03               	skipnz
  5866  0330  1903               	goto	l2345
  5867  0331  2A7A               	xorlw	7^6	; case 7
  5868  0332  3A01               	skipnz
  5869  0333  1903               	goto	l2349
  5870  0334  2A83               	xorlw	8^7	; case 8
  5871  0335  3A0F               	skipnz
  5872  0336  1903               	goto	l2351
  5873  0337  2A8B               	xorlw	9^8	; case 9
  5874  0338  3A01               	skipnz
  5875  0339  1903               	goto	l2353
  5876  033A  2A93               	xorlw	10^9	; case 10
  5877  033B  3A03               	skipnz
  5878  033C  1903               	goto	l2355
  5879  033D  2A9B               	xorlw	11^10	; case 11
  5880  033E  3A01               	skipnz
  5881  033F  1903               	goto	l2357
  5882  0340  2AA3               	xorlw	12^11	; case 12
  5883  0341  3A07               	skipnz
  5884  0342  1903               	goto	l2359
  5885  0343  2AAB               	xorlw	13^12	; case 13
  5886  0344  3A01               	skipnz
  5887  0345  1903               	goto	l2361
  5888  0346  2AB3               	xorlw	14^13	; case 14
  5889  0347  3A03               	skipnz
  5890  0348  1903               	goto	l2363
  5891  0349  2ABB               	xorlw	15^14	; case 15
  5892  034A  3A01               	skipnz
  5893  034B  1903               	goto	l2365
  5894  034C  2AC3               	xorlw	16^15	; case 16
  5895  034D  3A1F               	skipnz
  5896  034E  1903               	goto	l2367
  5897  034F  2ACB               	xorlw	17^16	; case 17
  5898  0350  3A01               	skipnz
  5899  0351  1903               	goto	l2369
  5900  0352  2AD3               	xorlw	18^17	; case 18
  5901  0353  3A03               	skipnz
  5902  0354  1903               	goto	l2371
  5903  0355  2ADB               	xorlw	19^18	; case 19
  5904  0356  3A01               	skipnz
  5905  0357  1903               	goto	l2373
  5906  0358  2AE3               	xorlw	20^19	; case 20
  5907  0359  3A07               	skipnz
  5908  035A  1903               	goto	l2375
  5909  035B  2AEB               	xorlw	21^20	; case 21
  5910  035C  3A01               	skipnz
  5911  035D  1903               	goto	l2377
  5912  035E  2AF3               	xorlw	22^21	; case 22
  5913  035F  3A03               	skipnz
  5914  0360  1903               	goto	l2379
  5915  0361  2AFB               	xorlw	23^22	; case 23
  5916  0362  3A01               	skipnz
  5917  0363  1903               	goto	l2381
  5918  0364  2B03               	xorlw	24^23	; case 24
  5919  0365  3A0F               	skipnz
  5920  0366  1903               	goto	l2383
  5921  0367  2B0B               	goto	l330
  5922  0368  2B69               	opt asmopt_pop
  5923                           
  5924                           	
  5925                           l305:	
  5926  0369                     	line	256
  5927                           	
  5928                           l330:	
  5929  0369                     	return
  5930  0369  0008               	opt stack 0
  5931                           GLOBAL	__end_of_digitalWrite
  5932                           	__end_of_digitalWrite:
  5933  036A                     	signat	_digitalWrite,8313
  5934                           	global	_digitalRead
  5935                           
  5936 ;; *************** function _digitalRead *****************
  5937 ;; Defined at:
  5938 ;;		line 257 in file "Hormiga877.c"
  5939 ;; Parameters:    Size  Location     Type
  5940 ;;  pin             1    wreg     unsigned char 
  5941 ;; Auto vars:     Size  Location     Type
  5942 ;;  pin             1    2[COMMON] unsigned char 
  5943 ;; Return value:  Size  Location     Type
  5944 ;;                  1    wreg      unsigned char 
  5945 ;; Registers used:
  5946 ;;		wreg, fsr0l, fsr0h, status,2, status,0
  5947 ;; Tracked objects:
  5948 ;;		On entry : 0/0
  5949 ;;		On exit  : 0/0
  5950 ;;		Unchanged: 0/0
  5951 ;; Data sizes:     COMMON   BANK0   BANK1   BANK3   BANK2
  5952 ;;      Params:         0       0       0       0       0
  5953 ;;      Locals:         1       0       0       0       0
  5954 ;;      Temps:          2       0       0       0       0
  5955 ;;      Totals:         3       0       0       0       0
  5956 ;;Total ram usage:        3 bytes
  5957 ;; Hardware stack levels used:    1
  5958 ;; This function calls:
  5959 ;;		Nothing
  5960 ;; This function is called by:
  5961 ;;		_ProcessCommand
  5962 ;;		_USRead
  5963 ;;		_USReadB
  5964 ;; This function uses a non-reentrant model
  5965 ;;
  5966                           psect	text15,local,class=CODE,delta=2,merge=1,group=0
  5967                           	line	257
  5968                           global __ptext15
  5969                           __ptext15:	;psect for function _digitalRead
  5970  036A                     psect	text15
  5971                           	file	"Hormiga877.c"
  5972                           	line	257
  5973                           	global	__size_of_digitalRead
  5974                           	__size_of_digitalRead	equ	__end_of_digitalRead-_digitalRead
  5975  0129                     	
  5976                           _digitalRead:	
  5977  036A                     ;incstack = 0
  5978                           	opt	stack 5
  5979                           ; Regs used in _digitalRead: [wreg-fsr0h+status,2+status,0]
  5980                           ;digitalRead@pin stored from wreg
  5981                           	movwf	(digitalRead@pin)
  5982  036A  00F2               	line	259
  5983                           	
  5984                           l2393:	
  5985  036B                     ;Hormiga877.c: 257: char digitalRead(char pin);Hormiga877.c: 258: {;Hormiga877.c: 259:  
                                    switch(pin)
  5986                           	goto	l2547
  5987  036B  2C3D               	line	261
  5988                           ;Hormiga877.c: 260:     {;Hormiga877.c: 261:         case 0:
  5989                           	
  5990                           l334:	
  5991  036C                     	line	262
  5992                           	
  5993                           l2395:	
  5994  036C                     ;Hormiga877.c: 262:              return PORTCbits.RC7;
  5995                           	bcf	status, 5	;RP0=0, select bank0
  5996  036C  1283               	bcf	status, 6	;RP1=0, select bank0
  5997  036D  1303               	rlf	(7),w	;volatile
  5998  036E  0D07               	rlf	(7),w	;volatile
  5999  036F  0D07               	andlw	1
  6000  0370  3901               	goto	l335
  6001  0371  2C92               	
  6002                           l2397:	
  6003  0372                     	goto	l335
  6004  0372  2C92               	line	263
  6005                           	
  6006                           l2399:	
  6007  0373                     ;Hormiga877.c: 263:             break;
  6008                           	goto	l335
  6009  0373  2C92               	line	264
  6010                           ;Hormiga877.c: 264:         case 1:
  6011                           	
  6012                           l337:	
  6013  0374                     	line	265
  6014                           	
  6015                           l2401:	
  6016  0374                     ;Hormiga877.c: 265:             return PORTCbits.RC6;
  6017                           	bcf	status, 5	;RP0=0, select bank0
  6018  0374  1283               	bcf	status, 6	;RP1=0, select bank0
  6019  0375  1303               	swapf	(7),w	;volatile
  6020  0376  0E07               	movwf	(??_digitalRead+0)+0
  6021  0377  00F0               	rrf	(??_digitalRead+0)+0,f
  6022  0378  0CF0               	rrf	(??_digitalRead+0)+0,w
  6023  0379  0C70               	andlw	(1<<1)-1
  6024  037A  3901               	goto	l335
  6025  037B  2C92               	
  6026                           l2403:	
  6027  037C                     	goto	l335
  6028  037C  2C92               	line	266
  6029                           	
  6030                           l2405:	
  6031  037D                     ;Hormiga877.c: 266:             break;
  6032                           	goto	l335
  6033  037D  2C92               	line	267
  6034                           ;Hormiga877.c: 267:         case 2:
  6035                           	
  6036                           l338:	
  6037  037E                     	line	268
  6038                           	
  6039                           l2407:	
  6040  037E                     ;Hormiga877.c: 268:             return PORTCbits.RC5;
  6041                           	bcf	status, 5	;RP0=0, select bank0
  6042  037E  1283               	bcf	status, 6	;RP1=0, select bank0
  6043  037F  1303               	swapf	(7),w	;volatile
  6044  0380  0E07               	movwf	(??_digitalRead+0)+0
  6045  0381  00F0               	rrf	(??_digitalRead+0)+0,w
  6046  0382  0C70               	andlw	(1<<1)-1
  6047  0383  3901               	goto	l335
  6048  0384  2C92               	
  6049                           l2409:	
  6050  0385                     	goto	l335
  6051  0385  2C92               	line	269
  6052                           	
  6053                           l2411:	
  6054  0386                     ;Hormiga877.c: 269:             break;
  6055                           	goto	l335
  6056  0386  2C92               	line	270
  6057                           ;Hormiga877.c: 270:         case 3:
  6058                           	
  6059                           l339:	
  6060  0387                     	line	271
  6061                           	
  6062                           l2413:	
  6063  0387                     ;Hormiga877.c: 271:             return PORTCbits.RC4;
  6064                           	bcf	status, 5	;RP0=0, select bank0
  6065  0387  1283               	bcf	status, 6	;RP1=0, select bank0
  6066  0388  1303               	swapf	(7),w	;volatile
  6067  0389  0E07               	andlw	(1<<1)-1
  6068  038A  3901               	goto	l335
  6069  038B  2C92               	
  6070                           l2415:	
  6071  038C                     	goto	l335
  6072  038C  2C92               	line	272
  6073                           	
  6074                           l2417:	
  6075  038D                     ;Hormiga877.c: 272:             break;
  6076                           	goto	l335
  6077  038D  2C92               	line	273
  6078                           ;Hormiga877.c: 273:         case 4:
  6079                           	
  6080                           l340:	
  6081  038E                     	line	274
  6082                           	
  6083                           l2419:	
  6084  038E                     ;Hormiga877.c: 274:             return PORTCbits.RC3;
  6085                           	bcf	status, 5	;RP0=0, select bank0
  6086  038E  1283               	bcf	status, 6	;RP1=0, select bank0
  6087  038F  1303               	rrf	(7),w	;volatile
  6088  0390  0C07               	movwf	(??_digitalRead+0)+0
  6089  0391  00F0               	rrf	(??_digitalRead+0)+0,f
  6090  0392  0CF0               	rrf	(??_digitalRead+0)+0,w
  6091  0393  0C70               	andlw	(1<<1)-1
  6092  0394  3901               	goto	l335
  6093  0395  2C92               	
  6094                           l2421:	
  6095  0396                     	goto	l335
  6096  0396  2C92               	line	275
  6097                           	
  6098                           l2423:	
  6099  0397                     ;Hormiga877.c: 275:             break;
  6100                           	goto	l335
  6101  0397  2C92               	line	276
  6102                           ;Hormiga877.c: 276:         case 5:
  6103                           	
  6104                           l341:	
  6105  0398                     	line	277
  6106                           	
  6107                           l2425:	
  6108  0398                     ;Hormiga877.c: 277:             return PORTCbits.RC2;
  6109                           	bcf	status, 5	;RP0=0, select bank0
  6110  0398  1283               	bcf	status, 6	;RP1=0, select bank0
  6111  0399  1303               	rrf	(7),w	;volatile
  6112  039A  0C07               	movwf	(??_digitalRead+0)+0
  6113  039B  00F0               	rrf	(??_digitalRead+0)+0,w
  6114  039C  0C70               	andlw	(1<<1)-1
  6115  039D  3901               	goto	l335
  6116  039E  2C92               	
  6117                           l2427:	
  6118  039F                     	goto	l335
  6119  039F  2C92               	line	278
  6120                           	
  6121                           l2429:	
  6122  03A0                     ;Hormiga877.c: 278:             break;
  6123                           	goto	l335
  6124  03A0  2C92               	line	279
  6125                           ;Hormiga877.c: 279:         case 6:
  6126                           	
  6127                           l342:	
  6128  03A1                     	line	280
  6129                           	
  6130                           l2431:	
  6131  03A1                     ;Hormiga877.c: 280:             return PORTCbits.RC1;
  6132                           	bcf	status, 5	;RP0=0, select bank0
  6133  03A1  1283               	bcf	status, 6	;RP1=0, select bank0
  6134  03A2  1303               	rrf	(7),w	;volatile
  6135  03A3  0C07               	andlw	(1<<1)-1
  6136  03A4  3901               	goto	l335
  6137  03A5  2C92               	
  6138                           l2433:	
  6139  03A6                     	goto	l335
  6140  03A6  2C92               	line	281
  6141                           	
  6142                           l2435:	
  6143  03A7                     ;Hormiga877.c: 281:             break;
  6144                           	goto	l335
  6145  03A7  2C92               	line	282
  6146                           ;Hormiga877.c: 282:         case 7:
  6147                           	
  6148                           l343:	
  6149  03A8                     	line	283
  6150                           	
  6151                           l2437:	
  6152  03A8                     ;Hormiga877.c: 283:             return PORTCbits.RC0;
  6153                           	bcf	status, 5	;RP0=0, select bank0
  6154  03A8  1283               	bcf	status, 6	;RP1=0, select bank0
  6155  03A9  1303               	movf	(7),w	;volatile
  6156  03AA  0807               	andlw	(1<<1)-1
  6157  03AB  3901               	goto	l335
  6158  03AC  2C92               	
  6159                           l2439:	
  6160  03AD                     	goto	l335
  6161  03AD  2C92               	line	284
  6162                           	
  6163                           l2441:	
  6164  03AE                     ;Hormiga877.c: 284:             break;
  6165                           	goto	l335
  6166  03AE  2C92               	line	285
  6167                           ;Hormiga877.c: 285:         case 8:
  6168                           	
  6169                           l344:	
  6170  03AF                     	line	286
  6171                           	
  6172                           l2443:	
  6173  03AF                     ;Hormiga877.c: 286:             return PORTBbits.RB0;
  6174                           	bcf	status, 5	;RP0=0, select bank0
  6175  03AF  1283               	bcf	status, 6	;RP1=0, select bank0
  6176  03B0  1303               	movf	(6),w	;volatile
  6177  03B1  0806               	andlw	(1<<1)-1
  6178  03B2  3901               	goto	l335
  6179  03B3  2C92               	
  6180                           l2445:	
  6181  03B4                     	goto	l335
  6182  03B4  2C92               	line	287
  6183                           	
  6184                           l2447:	
  6185  03B5                     ;Hormiga877.c: 287:             break;
  6186                           	goto	l335
  6187  03B5  2C92               	line	288
  6188                           ;Hormiga877.c: 288:         case 9:
  6189                           	
  6190                           l345:	
  6191  03B6                     	line	289
  6192                           	
  6193                           l2449:	
  6194  03B6                     ;Hormiga877.c: 289:             return PORTBbits.RB1;
  6195                           	bcf	status, 5	;RP0=0, select bank0
  6196  03B6  1283               	bcf	status, 6	;RP1=0, select bank0
  6197  03B7  1303               	rrf	(6),w	;volatile
  6198  03B8  0C06               	andlw	(1<<1)-1
  6199  03B9  3901               	goto	l335
  6200  03BA  2C92               	
  6201                           l2451:	
  6202  03BB                     	goto	l335
  6203  03BB  2C92               	line	290
  6204                           	
  6205                           l2453:	
  6206  03BC                     ;Hormiga877.c: 290:             break;
  6207                           	goto	l335
  6208  03BC  2C92               	line	291
  6209                           ;Hormiga877.c: 291:         case 10:
  6210                           	
  6211                           l346:	
  6212  03BD                     	line	292
  6213                           	
  6214                           l2455:	
  6215  03BD                     ;Hormiga877.c: 292:             return PORTBbits.RB2;
  6216                           	bcf	status, 5	;RP0=0, select bank0
  6217  03BD  1283               	bcf	status, 6	;RP1=0, select bank0
  6218  03BE  1303               	rrf	(6),w	;volatile
  6219  03BF  0C06               	movwf	(??_digitalRead+0)+0
  6220  03C0  00F0               	rrf	(??_digitalRead+0)+0,w
  6221  03C1  0C70               	andlw	(1<<1)-1
  6222  03C2  3901               	goto	l335
  6223  03C3  2C92               	
  6224                           l2457:	
  6225  03C4                     	goto	l335
  6226  03C4  2C92               	line	293
  6227                           	
  6228                           l2459:	
  6229  03C5                     ;Hormiga877.c: 293:             break;
  6230                           	goto	l335
  6231  03C5  2C92               	line	294
  6232                           ;Hormiga877.c: 294:         case 11:
  6233                           	
  6234                           l347:	
  6235  03C6                     	line	295
  6236                           	
  6237                           l2461:	
  6238  03C6                     ;Hormiga877.c: 295:             return PORTBbits.RB3;
  6239                           	bcf	status, 5	;RP0=0, select bank0
  6240  03C6  1283               	bcf	status, 6	;RP1=0, select bank0
  6241  03C7  1303               	rrf	(6),w	;volatile
  6242  03C8  0C06               	movwf	(??_digitalRead+0)+0
  6243  03C9  00F0               	rrf	(??_digitalRead+0)+0,f
  6244  03CA  0CF0               	rrf	(??_digitalRead+0)+0,w
  6245  03CB  0C70               	andlw	(1<<1)-1
  6246  03CC  3901               	goto	l335
  6247  03CD  2C92               	
  6248                           l2463:	
  6249  03CE                     	goto	l335
  6250  03CE  2C92               	line	296
  6251                           	
  6252                           l2465:	
  6253  03CF                     ;Hormiga877.c: 296:             break;
  6254                           	goto	l335
  6255  03CF  2C92               	line	297
  6256                           ;Hormiga877.c: 297:         case 12:
  6257                           	
  6258                           l348:	
  6259  03D0                     	line	298
  6260                           	
  6261                           l2467:	
  6262  03D0                     ;Hormiga877.c: 298:             return PORTBbits.RB4;
  6263                           	bcf	status, 5	;RP0=0, select bank0
  6264  03D0  1283               	bcf	status, 6	;RP1=0, select bank0
  6265  03D1  1303               	swapf	(6),w	;volatile
  6266  03D2  0E06               	andlw	(1<<1)-1
  6267  03D3  3901               	goto	l335
  6268  03D4  2C92               	
  6269                           l2469:	
  6270  03D5                     	goto	l335
  6271  03D5  2C92               	line	299
  6272                           	
  6273                           l2471:	
  6274  03D6                     ;Hormiga877.c: 299:             break;
  6275                           	goto	l335
  6276  03D6  2C92               	line	300
  6277                           ;Hormiga877.c: 300:         case 13:
  6278                           	
  6279                           l349:	
  6280  03D7                     	line	301
  6281                           	
  6282                           l2473:	
  6283  03D7                     ;Hormiga877.c: 301:             return PORTBbits.RB5;
  6284                           	bcf	status, 5	;RP0=0, select bank0
  6285  03D7  1283               	bcf	status, 6	;RP1=0, select bank0
  6286  03D8  1303               	swapf	(6),w	;volatile
  6287  03D9  0E06               	movwf	(??_digitalRead+0)+0
  6288  03DA  00F0               	rrf	(??_digitalRead+0)+0,w
  6289  03DB  0C70               	andlw	(1<<1)-1
  6290  03DC  3901               	goto	l335
  6291  03DD  2C92               	
  6292                           l2475:	
  6293  03DE                     	goto	l335
  6294  03DE  2C92               	line	302
  6295                           	
  6296                           l2477:	
  6297  03DF                     ;Hormiga877.c: 302:             break;
  6298                           	goto	l335
  6299  03DF  2C92               	line	303
  6300                           ;Hormiga877.c: 303:         case 14:
  6301                           	
  6302                           l350:	
  6303  03E0                     	line	304
  6304                           	
  6305                           l2479:	
  6306  03E0                     ;Hormiga877.c: 304:             return PORTBbits.RB6;
  6307                           	bcf	status, 5	;RP0=0, select bank0
  6308  03E0  1283               	bcf	status, 6	;RP1=0, select bank0
  6309  03E1  1303               	swapf	(6),w	;volatile
  6310  03E2  0E06               	movwf	(??_digitalRead+0)+0
  6311  03E3  00F0               	rrf	(??_digitalRead+0)+0,f
  6312  03E4  0CF0               	rrf	(??_digitalRead+0)+0,w
  6313  03E5  0C70               	andlw	(1<<1)-1
  6314  03E6  3901               	goto	l335
  6315  03E7  2C92               	
  6316                           l2481:	
  6317  03E8                     	goto	l335
  6318  03E8  2C92               	line	305
  6319                           	
  6320                           l2483:	
  6321  03E9                     ;Hormiga877.c: 305:             break;
  6322                           	goto	l335
  6323  03E9  2C92               	line	306
  6324                           ;Hormiga877.c: 306:         case 15:
  6325                           	
  6326                           l351:	
  6327  03EA                     	line	307
  6328                           	
  6329                           l2485:	
  6330  03EA                     ;Hormiga877.c: 307:             return PORTBbits.RB7;
  6331                           	bcf	status, 5	;RP0=0, select bank0
  6332  03EA  1283               	bcf	status, 6	;RP1=0, select bank0
  6333  03EB  1303               	rlf	(6),w	;volatile
  6334  03EC  0D06               	rlf	(6),w	;volatile
  6335  03ED  0D06               	andlw	1
  6336  03EE  3901               	goto	l335
  6337  03EF  2C92               	
  6338                           l2487:	
  6339  03F0                     	goto	l335
  6340  03F0  2C92               	line	308
  6341                           	
  6342                           l2489:	
  6343  03F1                     ;Hormiga877.c: 308:             break;
  6344                           	goto	l335
  6345  03F1  2C92               	line	309
  6346                           ;Hormiga877.c: 309:         case 16:
  6347                           	
  6348                           l352:	
  6349  03F2                     	line	310
  6350                           	
  6351                           l2491:	
  6352  03F2                     ;Hormiga877.c: 310:             return PORTDbits.RD0;
  6353                           	bcf	status, 5	;RP0=0, select bank0
  6354  03F2  1283               	bcf	status, 6	;RP1=0, select bank0
  6355  03F3  1303               	movf	(8),w	;volatile
  6356  03F4  0808               	andlw	(1<<1)-1
  6357  03F5  3901               	goto	l335
  6358  03F6  2C92               	
  6359                           l2493:	
  6360  03F7                     	goto	l335
  6361  03F7  2C92               	line	311
  6362                           	
  6363                           l2495:	
  6364  03F8                     ;Hormiga877.c: 311:             break;
  6365                           	goto	l335
  6366  03F8  2C92               	line	312
  6367                           ;Hormiga877.c: 312:         case 17:
  6368                           	
  6369                           l353:	
  6370  03F9                     	line	313
  6371                           	
  6372                           l2497:	
  6373  03F9                     ;Hormiga877.c: 313:             return PORTDbits.RD1;
  6374                           	bcf	status, 5	;RP0=0, select bank0
  6375  03F9  1283               	bcf	status, 6	;RP1=0, select bank0
  6376  03FA  1303               	rrf	(8),w	;volatile
  6377  03FB  0C08               	andlw	(1<<1)-1
  6378  03FC  3901               	goto	l335
  6379  03FD  2C92               	
  6380                           l2499:	
  6381  03FE                     	goto	l335
  6382  03FE  2C92               	line	314
  6383                           	
  6384                           l2501:	
  6385  03FF                     ;Hormiga877.c: 314:             break;
  6386                           	goto	l335
  6387  03FF  2C92               	line	315
  6388                           ;Hormiga877.c: 315:         case 18:
  6389                           	
  6390                           l354:	
  6391  0400                     	line	316
  6392                           	
  6393                           l2503:	
  6394  0400                     ;Hormiga877.c: 316:             return PORTDbits.RD2;
  6395                           	bcf	status, 5	;RP0=0, select bank0
  6396  0400  1283               	bcf	status, 6	;RP1=0, select bank0
  6397  0401  1303               	rrf	(8),w	;volatile
  6398  0402  0C08               	movwf	(??_digitalRead+0)+0
  6399  0403  00F0               	rrf	(??_digitalRead+0)+0,w
  6400  0404  0C70               	andlw	(1<<1)-1
  6401  0405  3901               	goto	l335
  6402  0406  2C92               	
  6403                           l2505:	
  6404  0407                     	goto	l335
  6405  0407  2C92               	line	317
  6406                           	
  6407                           l2507:	
  6408  0408                     ;Hormiga877.c: 317:             break;
  6409                           	goto	l335
  6410  0408  2C92               	line	318
  6411                           ;Hormiga877.c: 318:         case 19:
  6412                           	
  6413                           l355:	
  6414  0409                     	line	319
  6415                           	
  6416                           l2509:	
  6417  0409                     ;Hormiga877.c: 319:             return PORTDbits.RD3;
  6418                           	bcf	status, 5	;RP0=0, select bank0
  6419  0409  1283               	bcf	status, 6	;RP1=0, select bank0
  6420  040A  1303               	rrf	(8),w	;volatile
  6421  040B  0C08               	movwf	(??_digitalRead+0)+0
  6422  040C  00F0               	rrf	(??_digitalRead+0)+0,f
  6423  040D  0CF0               	rrf	(??_digitalRead+0)+0,w
  6424  040E  0C70               	andlw	(1<<1)-1
  6425  040F  3901               	goto	l335
  6426  0410  2C92               	
  6427                           l2511:	
  6428  0411                     	goto	l335
  6429  0411  2C92               	line	320
  6430                           	
  6431                           l2513:	
  6432  0412                     ;Hormiga877.c: 320:             break;
  6433                           	goto	l335
  6434  0412  2C92               	line	321
  6435                           ;Hormiga877.c: 321:         case 20:
  6436                           	
  6437                           l356:	
  6438  0413                     	line	322
  6439                           	
  6440                           l2515:	
  6441  0413                     ;Hormiga877.c: 322:             return PORTDbits.RD4;
  6442                           	bcf	status, 5	;RP0=0, select bank0
  6443  0413  1283               	bcf	status, 6	;RP1=0, select bank0
  6444  0414  1303               	swapf	(8),w	;volatile
  6445  0415  0E08               	andlw	(1<<1)-1
  6446  0416  3901               	goto	l335
  6447  0417  2C92               	
  6448                           l2517:	
  6449  0418                     	goto	l335
  6450  0418  2C92               	line	323
  6451                           	
  6452                           l2519:	
  6453  0419                     ;Hormiga877.c: 323:             break;
  6454                           	goto	l335
  6455  0419  2C92               	line	324
  6456                           ;Hormiga877.c: 324:         case 21:
  6457                           	
  6458                           l357:	
  6459  041A                     	line	325
  6460                           	
  6461                           l2521:	
  6462  041A                     ;Hormiga877.c: 325:             return PORTDbits.RD5;
  6463                           	bcf	status, 5	;RP0=0, select bank0
  6464  041A  1283               	bcf	status, 6	;RP1=0, select bank0
  6465  041B  1303               	swapf	(8),w	;volatile
  6466  041C  0E08               	movwf	(??_digitalRead+0)+0
  6467  041D  00F0               	rrf	(??_digitalRead+0)+0,w
  6468  041E  0C70               	andlw	(1<<1)-1
  6469  041F  3901               	goto	l335
  6470  0420  2C92               	
  6471                           l2523:	
  6472  0421                     	goto	l335
  6473  0421  2C92               	line	326
  6474                           	
  6475                           l2525:	
  6476  0422                     ;Hormiga877.c: 326:             break;
  6477                           	goto	l335
  6478  0422  2C92               	line	327
  6479                           ;Hormiga877.c: 327:         case 22:
  6480                           	
  6481                           l358:	
  6482  0423                     	line	328
  6483                           	
  6484                           l2527:	
  6485  0423                     ;Hormiga877.c: 328:             return PORTDbits.RD6;
  6486                           	bcf	status, 5	;RP0=0, select bank0
  6487  0423  1283               	bcf	status, 6	;RP1=0, select bank0
  6488  0424  1303               	swapf	(8),w	;volatile
  6489  0425  0E08               	movwf	(??_digitalRead+0)+0
  6490  0426  00F0               	rrf	(??_digitalRead+0)+0,f
  6491  0427  0CF0               	rrf	(??_digitalRead+0)+0,w
  6492  0428  0C70               	andlw	(1<<1)-1
  6493  0429  3901               	goto	l335
  6494  042A  2C92               	
  6495                           l2529:	
  6496  042B                     	goto	l335
  6497  042B  2C92               	line	329
  6498                           	
  6499                           l2531:	
  6500  042C                     ;Hormiga877.c: 329:             break;
  6501                           	goto	l335
  6502  042C  2C92               	line	330
  6503                           ;Hormiga877.c: 330:         case 23:
  6504                           	
  6505                           l359:	
  6506  042D                     	line	331
  6507                           	
  6508                           l2533:	
  6509  042D                     ;Hormiga877.c: 331:             return PORTDbits.RD7;
  6510                           	bcf	status, 5	;RP0=0, select bank0
  6511  042D  1283               	bcf	status, 6	;RP1=0, select bank0
  6512  042E  1303               	rlf	(8),w	;volatile
  6513  042F  0D08               	rlf	(8),w	;volatile
  6514  0430  0D08               	andlw	1
  6515  0431  3901               	goto	l335
  6516  0432  2C92               	
  6517                           l2535:	
  6518  0433                     	goto	l335
  6519  0433  2C92               	line	332
  6520                           	
  6521                           l2537:	
  6522  0434                     ;Hormiga877.c: 332:             break;
  6523                           	goto	l335
  6524  0434  2C92               	line	333
  6525                           ;Hormiga877.c: 333:         case 24:
  6526                           	
  6527                           l360:	
  6528  0435                     	line	334
  6529                           	
  6530                           l2539:	
  6531  0435                     ;Hormiga877.c: 334:             return PORTAbits.RA4;
  6532                           	bcf	status, 5	;RP0=0, select bank0
  6533  0435  1283               	bcf	status, 6	;RP1=0, select bank0
  6534  0436  1303               	swapf	(5),w	;volatile
  6535  0437  0E05               	andlw	(1<<1)-1
  6536  0438  3901               	goto	l335
  6537  0439  2C92               	
  6538                           l2541:	
  6539  043A                     	goto	l335
  6540  043A  2C92               	line	335
  6541                           	
  6542                           l2543:	
  6543  043B                     ;Hormiga877.c: 335:             break;
  6544                           	goto	l335
  6545  043B  2C92               	line	344
  6546                           	
  6547                           l2545:	
  6548  043C                     ;Hormiga877.c: 344:     }
  6549                           	goto	l335
  6550  043C  2C92               	
  6551                           l333:	
  6552  043D                     	
  6553                           l2547:	
  6554  043D                     	movf	(digitalRead@pin),w
  6555  043D  0872               	movwf	(??_digitalRead+0)+0
  6556  043E  00F0               	clrf	(??_digitalRead+0)+0+1
  6557  043F  01F1               	; Switch on 2 bytes has been partitioned into a top level switch of size 1, and 1 sub-s
                                 witches
  6558                           ; Switch size 1, requested type "space"
  6559                           ; Number of cases is 1, Range of values is 0 to 0
  6560                           ; switch strategies available:
  6561                           ; Name         Instructions Cycles
  6562                           ; simple_byte            4     3 (average)
  6563                           ; direct_byte           11     8 (fixed)
  6564                           ; jumptable            260     6 (fixed)
  6565                           ;	Chosen strategy is simple_byte
  6566                           
  6567                           	movf 1+(??_digitalRead+0)+0,w
  6568  0440  0871               	opt asmopt_push
  6569                           	opt asmopt_off
  6570                           	xorlw	0^0	; case 0
  6571  0441  3A00               	skipnz
  6572  0442  1903               	goto	l3535
  6573  0443  2C45               	goto	l335
  6574  0444  2C92               	opt asmopt_pop
  6575                           	
  6576                           l3535:	
  6577  0445                     ; Switch size 1, requested type "space"
  6578                           ; Number of cases is 25, Range of values is 0 to 24
  6579                           ; switch strategies available:
  6580                           ; Name         Instructions Cycles
  6581                           ; simple_byte           76    39 (average)
  6582                           ; direct_byte           83     8 (fixed)
  6583                           ; jumptable            260     6 (fixed)
  6584                           ;	Chosen strategy is simple_byte
  6585                           
  6586                           	movf 0+(??_digitalRead+0)+0,w
  6587  0445  0870               	opt asmopt_push
  6588                           	opt asmopt_off
  6589                           	xorlw	0^0	; case 0
  6590  0446  3A00               	skipnz
  6591  0447  1903               	goto	l2395
  6592  0448  2B6C               	xorlw	1^0	; case 1
  6593  0449  3A01               	skipnz
  6594  044A  1903               	goto	l2401
  6595  044B  2B74               	xorlw	2^1	; case 2
  6596  044C  3A03               	skipnz
  6597  044D  1903               	goto	l2407
  6598  044E  2B7E               	xorlw	3^2	; case 3
  6599  044F  3A01               	skipnz
  6600  0450  1903               	goto	l2413
  6601  0451  2B87               	xorlw	4^3	; case 4
  6602  0452  3A07               	skipnz
  6603  0453  1903               	goto	l2419
  6604  0454  2B8E               	xorlw	5^4	; case 5
  6605  0455  3A01               	skipnz
  6606  0456  1903               	goto	l2425
  6607  0457  2B98               	xorlw	6^5	; case 6
  6608  0458  3A03               	skipnz
  6609  0459  1903               	goto	l2431
  6610  045A  2BA1               	xorlw	7^6	; case 7
  6611  045B  3A01               	skipnz
  6612  045C  1903               	goto	l2437
  6613  045D  2BA8               	xorlw	8^7	; case 8
  6614  045E  3A0F               	skipnz
  6615  045F  1903               	goto	l2443
  6616  0460  2BAF               	xorlw	9^8	; case 9
  6617  0461  3A01               	skipnz
  6618  0462  1903               	goto	l2449
  6619  0463  2BB6               	xorlw	10^9	; case 10
  6620  0464  3A03               	skipnz
  6621  0465  1903               	goto	l2455
  6622  0466  2BBD               	xorlw	11^10	; case 11
  6623  0467  3A01               	skipnz
  6624  0468  1903               	goto	l2461
  6625  0469  2BC6               	xorlw	12^11	; case 12
  6626  046A  3A07               	skipnz
  6627  046B  1903               	goto	l2467
  6628  046C  2BD0               	xorlw	13^12	; case 13
  6629  046D  3A01               	skipnz
  6630  046E  1903               	goto	l2473
  6631  046F  2BD7               	xorlw	14^13	; case 14
  6632  0470  3A03               	skipnz
  6633  0471  1903               	goto	l2479
  6634  0472  2BE0               	xorlw	15^14	; case 15
  6635  0473  3A01               	skipnz
  6636  0474  1903               	goto	l2485
  6637  0475  2BEA               	xorlw	16^15	; case 16
  6638  0476  3A1F               	skipnz
  6639  0477  1903               	goto	l2491
  6640  0478  2BF2               	xorlw	17^16	; case 17
  6641  0479  3A01               	skipnz
  6642  047A  1903               	goto	l2497
  6643  047B  2BF9               	xorlw	18^17	; case 18
  6644  047C  3A03               	skipnz
  6645  047D  1903               	goto	l2503
  6646  047E  2C00               	xorlw	19^18	; case 19
  6647  047F  3A01               	skipnz
  6648  0480  1903               	goto	l2509
  6649  0481  2C09               	xorlw	20^19	; case 20
  6650  0482  3A07               	skipnz
  6651  0483  1903               	goto	l2515
  6652  0484  2C13               	xorlw	21^20	; case 21
  6653  0485  3A01               	skipnz
  6654  0486  1903               	goto	l2521
  6655  0487  2C1A               	xorlw	22^21	; case 22
  6656  0488  3A03               	skipnz
  6657  0489  1903               	goto	l2527
  6658  048A  2C23               	xorlw	23^22	; case 23
  6659  048B  3A01               	skipnz
  6660  048C  1903               	goto	l2533
  6661  048D  2C2D               	xorlw	24^23	; case 24
  6662  048E  3A0F               	skipnz
  6663  048F  1903               	goto	l2539
  6664  0490  2C35               	goto	l335
  6665  0491  2C92               	opt asmopt_pop
  6666                           
  6667                           	
  6668                           l336:	
  6669  0492                     	line	345
  6670                           	
  6671                           l335:	
  6672  0492                     	return
  6673  0492  0008               	opt stack 0
  6674                           GLOBAL	__end_of_digitalRead
  6675                           	__end_of_digitalRead:
  6676  0493                     	signat	_digitalRead,4217
  6677                           	global	___xxtofl
  6678                           
  6679 ;; *************** function ___xxtofl *****************
  6680 ;; Defined at:
  6681 ;;		line 10 in file "C:\Program Files (x86)\Microchip\xc8\v2.00\pic\sources\c90\common\xxtofl.c"
  6682 ;; Parameters:    Size  Location     Type
  6683 ;;  sign            1    wreg     unsigned char 
  6684 ;;  val             4    0[COMMON] long 
  6685 ;; Auto vars:     Size  Location     Type
  6686 ;;  sign            1    8[COMMON] unsigned char 
  6687 ;;  arg             4   10[COMMON] unsigned long 
  6688 ;;  exp             1    9[COMMON] unsigned char 
  6689 ;; Return value:  Size  Location     Type
  6690 ;;                  4    0[COMMON] unsigned char 
  6691 ;; Registers used:
  6692 ;;		wreg, status,2, status,0
  6693 ;; Tracked objects:
  6694 ;;		On entry : 0/0
  6695 ;;		On exit  : 0/0
  6696 ;;		Unchanged: 0/0
  6697 ;; Data sizes:     COMMON   BANK0   BANK1   BANK3   BANK2
  6698 ;;      Params:         4       0       0       0       0
  6699 ;;      Locals:         6       0       0       0       0
  6700 ;;      Temps:          4       0       0       0       0
  6701 ;;      Totals:        14       0       0       0       0
  6702 ;;Total ram usage:       14 bytes
  6703 ;; Hardware stack levels used:    1
  6704 ;; This function calls:
  6705 ;;		Nothing
  6706 ;; This function is called by:
  6707 ;;		_USRead
  6708 ;; This function uses a non-reentrant model
  6709 ;;
  6710                           psect	text16,local,class=CODE,delta=2,merge=1,group=1
  6711                           	file	"C:\Program Files (x86)\Microchip\xc8\v2.00\pic\sources\c90\common\xxtofl.c"
  6712                           	line	10
  6713                           global __ptext16
  6714                           __ptext16:	;psect for function ___xxtofl
  6715  0F3E                     psect	text16
  6716                           	file	"C:\Program Files (x86)\Microchip\xc8\v2.00\pic\sources\c90\common\xxtofl.c"
  6717                           	line	10
  6718                           	global	__size_of___xxtofl
  6719                           	__size_of___xxtofl	equ	__end_of___xxtofl-___xxtofl
  6720  00C2                     	
  6721                           ___xxtofl:	
  6722  0F3E                     ;incstack = 0
  6723                           	opt	stack 4
  6724                           ; Regs used in ___xxtofl: [wreg+status,2+status,0]
  6725                           ;___xxtofl@sign stored from wreg
  6726                           	movwf	(___xxtofl@sign)
  6727  0F3E  00F8               	line	15
  6728                           	
  6729                           l2749:	
  6730  0F3F                     	movf	((___xxtofl@sign)),w
  6731  0F3F  0878               	btfsc	status,2
  6732  0F40  1903               	goto	u1661
  6733  0F41  2F43               	goto	u1660
  6734  0F42  2F44               u1661:
  6735  0F43                     	goto	l2755
  6736  0F43  2F58               u1660:
  6737  0F44                     	
  6738                           l2751:	
  6739  0F44                     	btfss	(___xxtofl@val+3),7
  6740  0F44  1FF3               	goto	u1671
  6741  0F45  2F47               	goto	u1670
  6742  0F46  2F48               u1671:
  6743  0F47                     	goto	l2755
  6744  0F47  2F58               u1670:
  6745  0F48                     	line	16
  6746                           	
  6747                           l2753:	
  6748  0F48                     	comf	(___xxtofl@val)+0,w
  6749  0F48  0970               	movwf	(___xxtofl@arg)
  6750  0F49  00FA               	comf	(___xxtofl@val)+1,w
  6751  0F4A  0971               	movwf	(___xxtofl@arg+1)
  6752  0F4B  00FB               	comf	(___xxtofl@val)+2,w
  6753  0F4C  0972               	movwf	(___xxtofl@arg+2)
  6754  0F4D  00FC               	comf	(___xxtofl@val)+3,w
  6755  0F4E  0973               	movwf	(___xxtofl@arg+3)
  6756  0F4F  00FD               	incf	(___xxtofl@arg),f
  6757  0F50  0AFA               	skipnz
  6758  0F51  1903               	incf	(___xxtofl@arg+1),f
  6759  0F52  0AFB               	skipnz
  6760  0F53  1903               	incf	(___xxtofl@arg+2),f
  6761  0F54  0AFC               	skipnz
  6762  0F55  1903               	incf	(___xxtofl@arg+3),f
  6763  0F56  0AFD               	line	17
  6764                           	goto	l974
  6765  0F57  2F60               	line	18
  6766                           	
  6767                           l973:	
  6768  0F58                     	line	19
  6769                           	
  6770                           l2755:	
  6771  0F58                     	movf	(___xxtofl@val+3),w
  6772  0F58  0873               	movwf	(___xxtofl@arg+3)
  6773  0F59  00FD               	movf	(___xxtofl@val+2),w
  6774  0F5A  0872               	movwf	(___xxtofl@arg+2)
  6775  0F5B  00FC               	movf	(___xxtofl@val+1),w
  6776  0F5C  0871               	movwf	(___xxtofl@arg+1)
  6777  0F5D  00FB               	movf	(___xxtofl@val),w
  6778  0F5E  0870               	movwf	(___xxtofl@arg)
  6779  0F5F  00FA               
  6780                           	line	20
  6781                           	
  6782                           l974:	
  6783  0F60                     	line	21
  6784                           	movf	(___xxtofl@val+3),w
  6785  0F60  0873               	iorwf	(___xxtofl@val+2),w
  6786  0F61  0472               	iorwf	(___xxtofl@val+1),w
  6787  0F62  0471               	iorwf	(___xxtofl@val),w
  6788  0F63  0470               	skipz
  6789  0F64  1D03               	goto	u1681
  6790  0F65  2F67               	goto	u1680
  6791  0F66  2F68               u1681:
  6792  0F67                     	goto	l2761
  6793  0F67  2F72               u1680:
  6794  0F68                     	line	22
  6795                           	
  6796                           l2757:	
  6797  0F68                     	movlw	0x0
  6798  0F68  3000               	movwf	(?___xxtofl+3)
  6799  0F69  00F3               	movlw	0x0
  6800  0F6A  3000               	movwf	(?___xxtofl+2)
  6801  0F6B  00F2               	movlw	0x0
  6802  0F6C  3000               	movwf	(?___xxtofl+1)
  6803  0F6D  00F1               	movlw	0x0
  6804  0F6E  3000               	movwf	(?___xxtofl)
  6805  0F6F  00F0               
  6806                           	goto	l976
  6807  0F70  2FFF               	
  6808                           l2759:	
  6809  0F71                     	goto	l976
  6810  0F71  2FFF               	
  6811                           l975:	
  6812  0F72                     	line	23
  6813                           	
  6814                           l2761:	
  6815  0F72                     	movlw	low(096h)
  6816  0F72  3096               	movwf	(??___xxtofl+0)+0
  6817  0F73  00F4               	movf	(??___xxtofl+0)+0,w
  6818  0F74  0874               	movwf	(___xxtofl@exp)
  6819  0F75  00F9               	line	24
  6820                           	goto	l2765
  6821  0F76  2F85               	
  6822                           l978:	
  6823  0F77                     	line	25
  6824                           	
  6825                           l2763:	
  6826  0F77                     	movlw	low(01h)
  6827  0F77  3001               	movwf	(??___xxtofl+0)+0
  6828  0F78  00F4               	movf	(??___xxtofl+0)+0,w
  6829  0F79  0874               	addwf	(___xxtofl@exp),f
  6830  0F7A  07F9               	line	26
  6831                           	movlw	01h
  6832  0F7B  3001               u1695:
  6833  0F7C                     	clrc
  6834  0F7C  1003               	rrf	(___xxtofl@arg+3),f
  6835  0F7D  0CFD               	rrf	(___xxtofl@arg+2),f
  6836  0F7E  0CFC               	rrf	(___xxtofl@arg+1),f
  6837  0F7F  0CFB               	rrf	(___xxtofl@arg),f
  6838  0F80  0CFA               	addlw	-1
  6839  0F81  3EFF               	skipz
  6840  0F82  1D03               	goto	u1695
  6841  0F83  2F7C               
  6842                           	goto	l2765
  6843  0F84  2F85               	line	27
  6844                           	
  6845                           l977:	
  6846  0F85                     	line	24
  6847                           	
  6848                           l2765:	
  6849  0F85                     	movlw	high highword(0FE000000h)
  6850  0F85  30FE               	andwf	(___xxtofl@arg+3),w
  6851  0F86  057D               	btfss	status,2
  6852  0F87  1D03               	goto	u1701
  6853  0F88  2F8A               	goto	u1700
  6854  0F89  2F8B               u1701:
  6855  0F8A                     	goto	l2763
  6856  0F8A  2F77               u1700:
  6857  0F8B                     	goto	l980
  6858  0F8B  2FA8               	
  6859                           l979:	
  6860  0F8C                     	line	28
  6861                           	goto	l980
  6862  0F8C  2FA8               	
  6863                           l981:	
  6864  0F8D                     	line	29
  6865                           	
  6866                           l2767:	
  6867  0F8D                     	movlw	low(01h)
  6868  0F8D  3001               	movwf	(??___xxtofl+0)+0
  6869  0F8E  00F4               	movf	(??___xxtofl+0)+0,w
  6870  0F8F  0874               	addwf	(___xxtofl@exp),f
  6871  0F90  07F9               	line	30
  6872                           	
  6873                           l2769:	
  6874  0F91                     	movlw	01h
  6875  0F91  3001               	addwf	(___xxtofl@arg),f
  6876  0F92  07FA               	movlw	0
  6877  0F93  3000               	skipnc
  6878  0F94  1803               movlw 1
  6879  0F95  3001               	addwf	(___xxtofl@arg+1),f
  6880  0F96  07FB               	movlw	0
  6881  0F97  3000               	skipnc
  6882  0F98  1803               movlw 1
  6883  0F99  3001               	addwf	(___xxtofl@arg+2),f
  6884  0F9A  07FC               	movlw	0
  6885  0F9B  3000               	skipnc
  6886  0F9C  1803               movlw 1
  6887  0F9D  3001               	addwf	(___xxtofl@arg+3),f
  6888  0F9E  07FD               	line	31
  6889                           	
  6890                           l2771:	
  6891  0F9F                     	movlw	01h
  6892  0F9F  3001               u1715:
  6893  0FA0                     	clrc
  6894  0FA0  1003               	rrf	(___xxtofl@arg+3),f
  6895  0FA1  0CFD               	rrf	(___xxtofl@arg+2),f
  6896  0FA2  0CFC               	rrf	(___xxtofl@arg+1),f
  6897  0FA3  0CFB               	rrf	(___xxtofl@arg),f
  6898  0FA4  0CFA               	addlw	-1
  6899  0FA5  3EFF               	skipz
  6900  0FA6  1D03               	goto	u1715
  6901  0FA7  2FA0               
  6902                           	line	32
  6903                           	
  6904                           l980:	
  6905  0FA8                     	line	28
  6906                           	movlw	high highword(0FF000000h)
  6907  0FA8  30FF               	andwf	(___xxtofl@arg+3),w
  6908  0FA9  057D               	btfss	status,2
  6909  0FAA  1D03               	goto	u1721
  6910  0FAB  2FAD               	goto	u1720
  6911  0FAC  2FAE               u1721:
  6912  0FAD                     	goto	l2767
  6913  0FAD  2F8D               u1720:
  6914  0FAE                     	goto	l2775
  6915  0FAE  2FBC               	
  6916                           l982:	
  6917  0FAF                     	line	33
  6918                           	goto	l2775
  6919  0FAF  2FBC               	
  6920                           l984:	
  6921  0FB0                     	line	34
  6922                           	
  6923                           l2773:	
  6924  0FB0                     	movlw	01h
  6925  0FB0  3001               	subwf	(___xxtofl@exp),f
  6926  0FB1  02F9               	line	35
  6927                           	movlw	01h
  6928  0FB2  3001               	movwf	(??___xxtofl+0)+0
  6929  0FB3  00F4               u1735:
  6930  0FB4                     	clrc
  6931  0FB4  1003               	rlf	(___xxtofl@arg),f
  6932  0FB5  0DFA               	rlf	(___xxtofl@arg+1),f
  6933  0FB6  0DFB               	rlf	(___xxtofl@arg+2),f
  6934  0FB7  0DFC               	rlf	(___xxtofl@arg+3),f
  6935  0FB8  0DFD               	decfsz	(??___xxtofl+0)+0
  6936  0FB9  0BF4               	goto	u1735
  6937  0FBA  2FB4               	goto	l2775
  6938  0FBB  2FBC               	line	36
  6939                           	
  6940                           l983:	
  6941  0FBC                     	line	33
  6942                           	
  6943                           l2775:	
  6944  0FBC                     	btfsc	(___xxtofl@arg+2),(23)&7
  6945  0FBC  1BFC               	goto	u1741
  6946  0FBD  2FBF               	goto	u1740
  6947  0FBE  2FC0               u1741:
  6948  0FBF                     	goto	l987
  6949  0FBF  2FC7               u1740:
  6950  0FC0                     	
  6951                           l2777:	
  6952  0FC0                     	movlw	low(02h)
  6953  0FC0  3002               	subwf	(___xxtofl@exp),w
  6954  0FC1  0279               	skipnc
  6955  0FC2  1803               	goto	u1751
  6956  0FC3  2FC5               	goto	u1750
  6957  0FC4  2FC6               u1751:
  6958  0FC5                     	goto	l2773
  6959  0FC5  2FB0               u1750:
  6960  0FC6                     	goto	l987
  6961  0FC6  2FC7               	
  6962                           l986:	
  6963  0FC7                     	
  6964                           l987:	
  6965  0FC7                     	line	37
  6966                           	btfsc	(___xxtofl@exp),(0)&7
  6967  0FC7  1879               	goto	u1761
  6968  0FC8  2FCA               	goto	u1760
  6969  0FC9  2FCB               u1761:
  6970  0FCA                     	goto	l988
  6971  0FCA  2FD3               u1760:
  6972  0FCB                     	line	38
  6973                           	
  6974                           l2779:	
  6975  0FCB                     	movlw	0FFh
  6976  0FCB  30FF               	andwf	(___xxtofl@arg),f
  6977  0FCC  05FA               	movlw	0FFh
  6978  0FCD  30FF               	andwf	(___xxtofl@arg+1),f
  6979  0FCE  05FB               	movlw	07Fh
  6980  0FCF  307F               	andwf	(___xxtofl@arg+2),f
  6981  0FD0  05FC               	movlw	0FFh
  6982  0FD1  30FF               	andwf	(___xxtofl@arg+3),f
  6983  0FD2  05FD               	
  6984                           l988:	
  6985  0FD3                     	line	39
  6986                           	clrc
  6987  0FD3  1003               	rrf	(___xxtofl@exp),f
  6988  0FD4  0CF9               
  6989                           	line	40
  6990                           	
  6991                           l2781:	
  6992  0FD5                     	movf	(___xxtofl@exp),w
  6993  0FD5  0879               	movwf	(??___xxtofl+0)+0
  6994  0FD6  00F4               	clrf	(??___xxtofl+0)+0+1
  6995  0FD7  01F5               	clrf	(??___xxtofl+0)+0+2
  6996  0FD8  01F6               	clrf	(??___xxtofl+0)+0+3
  6997  0FD9  01F7               	movlw	018h
  6998  0FDA  3018               u1775:
  6999  0FDB                     	clrc
  7000  0FDB  1003               	rlf	(??___xxtofl+0)+0,f
  7001  0FDC  0DF4               	rlf	(??___xxtofl+0)+1,f
  7002  0FDD  0DF5               	rlf	(??___xxtofl+0)+2,f
  7003  0FDE  0DF6               	rlf	(??___xxtofl+0)+3,f
  7004  0FDF  0DF7               u1770:
  7005  0FE0                     	addlw	-1
  7006  0FE0  3EFF               	skipz
  7007  0FE1  1D03               	goto	u1775
  7008  0FE2  2FDB               	movf	0+(??___xxtofl+0)+0,w
  7009  0FE3  0874               	iorwf	(___xxtofl@arg),f
  7010  0FE4  04FA               	movf	1+(??___xxtofl+0)+0,w
  7011  0FE5  0875               	iorwf	(___xxtofl@arg+1),f
  7012  0FE6  04FB               	movf	2+(??___xxtofl+0)+0,w
  7013  0FE7  0876               	iorwf	(___xxtofl@arg+2),f
  7014  0FE8  04FC               	movf	3+(??___xxtofl+0)+0,w
  7015  0FE9  0877               	iorwf	(___xxtofl@arg+3),f
  7016  0FEA  04FD               	line	41
  7017                           	
  7018                           l2783:	
  7019  0FEB                     	movf	((___xxtofl@sign)),w
  7020  0FEB  0878               	btfsc	status,2
  7021  0FEC  1903               	goto	u1781
  7022  0FED  2FEF               	goto	u1780
  7023  0FEE  2FF0               u1781:
  7024  0FEF                     	goto	l2789
  7025  0FEF  2FF6               u1780:
  7026  0FF0                     	
  7027                           l2785:	
  7028  0FF0                     	btfss	(___xxtofl@val+3),7
  7029  0FF0  1FF3               	goto	u1791
  7030  0FF1  2FF3               	goto	u1790
  7031  0FF2  2FF4               u1791:
  7032  0FF3                     	goto	l2789
  7033  0FF3  2FF6               u1790:
  7034  0FF4                     	line	42
  7035                           	
  7036                           l2787:	
  7037  0FF4                     	bsf	(___xxtofl@arg)+(31/8),(31)&7
  7038  0FF4  17FD               	goto	l2789
  7039  0FF5  2FF6               	
  7040                           l989:	
  7041  0FF6                     	line	43
  7042                           	
  7043                           l2789:	
  7044  0FF6                     	movf	(___xxtofl@arg+3),w
  7045  0FF6  087D               	movwf	(?___xxtofl+3)
  7046  0FF7  00F3               	movf	(___xxtofl@arg+2),w
  7047  0FF8  087C               	movwf	(?___xxtofl+2)
  7048  0FF9  00F2               	movf	(___xxtofl@arg+1),w
  7049  0FFA  087B               	movwf	(?___xxtofl+1)
  7050  0FFB  00F1               	movf	(___xxtofl@arg),w
  7051  0FFC  087A               	movwf	(?___xxtofl)
  7052  0FFD  00F0               
  7053                           	goto	l976
  7054  0FFE  2FFF               	
  7055                           l2791:	
  7056  0FFF                     	line	44
  7057                           	
  7058                           l976:	
  7059  0FFF                     	return
  7060  0FFF  0008               	opt stack 0
  7061                           GLOBAL	__end_of___xxtofl
  7062                           	__end_of___xxtofl:
  7063  1000                     	signat	___xxtofl,8316
  7064                           	global	___fltol
  7065                           
  7066 ;; *************** function ___fltol *****************
  7067 ;; Defined at:
  7068 ;;		line 43 in file "C:\Program Files (x86)\Microchip\xc8\v2.00\pic\sources\c90\common\fltol.c"
  7069 ;; Parameters:    Size  Location     Type
  7070 ;;  f1              4   26[BANK0 ] unsigned char 
  7071 ;; Auto vars:     Size  Location     Type
  7072 ;;  exp1            1   36[BANK0 ] unsigned char 
  7073 ;;  sign1           1   35[BANK0 ] unsigned char 
  7074 ;; Return value:  Size  Location     Type
  7075 ;;                  4   26[BANK0 ] long 
  7076 ;; Registers used:
  7077 ;;		wreg, status,2, status,0
  7078 ;; Tracked objects:
  7079 ;;		On entry : 0/0
  7080 ;;		On exit  : 0/0
  7081 ;;		Unchanged: 0/0
  7082 ;; Data sizes:     COMMON   BANK0   BANK1   BANK3   BANK2
  7083 ;;      Params:         0       4       0       0       0
  7084 ;;      Locals:         0       2       0       0       0
  7085 ;;      Temps:          0       5       0       0       0
  7086 ;;      Totals:         0      11       0       0       0
  7087 ;;Total ram usage:       11 bytes
  7088 ;; Hardware stack levels used:    1
  7089 ;; This function calls:
  7090 ;;		Nothing
  7091 ;; This function is called by:
  7092 ;;		_USRead
  7093 ;; This function uses a non-reentrant model
  7094 ;;
  7095                           psect	text17,local,class=CODE,delta=2,merge=1,group=1
  7096                           	file	"C:\Program Files (x86)\Microchip\xc8\v2.00\pic\sources\c90\common\fltol.c"
  7097                           	line	43
  7098                           global __ptext17
  7099                           __ptext17:	;psect for function ___fltol
  7100  0D57                     psect	text17
  7101                           	file	"C:\Program Files (x86)\Microchip\xc8\v2.00\pic\sources\c90\common\fltol.c"
  7102                           	line	43
  7103                           	global	__size_of___fltol
  7104                           	__size_of___fltol	equ	__end_of___fltol-___fltol
  7105  009C                     	
  7106                           ___fltol:	
  7107  0D57                     ;incstack = 0
  7108                           	opt	stack 4
  7109                           ; Regs used in ___fltol: [wreg+status,2+status,0]
  7110                           	line	47
  7111                           	
  7112                           l2571:	
  7113  0D57                     	bcf	status, 5	;RP0=0, select bank0
  7114  0D57  1283               	bcf	status, 6	;RP1=0, select bank0
  7115  0D58  1303               	movf	(___fltol@f1),w
  7116  0D59  083A               	movwf	(??___fltol+0)+0
  7117  0D5A  00BE               	movf	(___fltol@f1+1),w
  7118  0D5B  083B               	movwf	((??___fltol+0)+0+1)
  7119  0D5C  00BF               	movf	(___fltol@f1+2),w
  7120  0D5D  083C               	movwf	((??___fltol+0)+0+2)
  7121  0D5E  00C0               	movf	(___fltol@f1+3),w
  7122  0D5F  083D               	movwf	((??___fltol+0)+0+3)
  7123  0D60  00C1               	clrc
  7124  0D61  1003               	rlf	(??___fltol+0)+2,w
  7125  0D62  0D40               	rlf	(??___fltol+0)+3,w
  7126  0D63  0D41               	movwf	(??___fltol+4)+0
  7127  0D64  00C2               	movf	(??___fltol+4)+0,w
  7128  0D65  0842               	movwf	(___fltol@exp1)
  7129  0D66  00C4               	movf	(((___fltol@exp1))),w
  7130  0D67  0844               	btfss	status,2
  7131  0D68  1D03               	goto	u1271
  7132  0D69  2D6B               	goto	u1270
  7133  0D6A  2D6C               u1271:
  7134  0D6B                     	goto	l2577
  7135  0D6B  2D76               u1270:
  7136  0D6C                     	line	48
  7137                           	
  7138                           l2573:	
  7139  0D6C                     	movlw	high highword(0)
  7140  0D6C  3000               	movwf	(?___fltol+3)
  7141  0D6D  00BD               	movlw	low highword(0)
  7142  0D6E  3000               	movwf	(?___fltol+2)
  7143  0D6F  00BC               	movlw	high(0)
  7144  0D70  3000               	movwf	(?___fltol+1)
  7145  0D71  00BB               	movlw	low(0)
  7146  0D72  3000               	movwf	(?___fltol)
  7147  0D73  00BA               
  7148                           	goto	l752
  7149  0D74  2DF2               	
  7150                           l2575:	
  7151  0D75                     	goto	l752
  7152  0D75  2DF2               	
  7153                           l751:	
  7154  0D76                     	line	49
  7155                           	
  7156                           l2577:	
  7157  0D76                     	movf	(___fltol@f1),w
  7158  0D76  083A               	movwf	(??___fltol+0)+0
  7159  0D77  00BE               	movf	(___fltol@f1+1),w
  7160  0D78  083B               	movwf	((??___fltol+0)+0+1)
  7161  0D79  00BF               	movf	(___fltol@f1+2),w
  7162  0D7A  083C               	movwf	((??___fltol+0)+0+2)
  7163  0D7B  00C0               	movf	(___fltol@f1+3),w
  7164  0D7C  083D               	movwf	((??___fltol+0)+0+3)
  7165  0D7D  00C1               	movlw	01Fh
  7166  0D7E  301F               u1285:
  7167  0D7F                     	clrc
  7168  0D7F  1003               	rrf	(??___fltol+0)+3,f
  7169  0D80  0CC1               	rrf	(??___fltol+0)+2,f
  7170  0D81  0CC0               	rrf	(??___fltol+0)+1,f
  7171  0D82  0CBF               	rrf	(??___fltol+0)+0,f
  7172  0D83  0CBE               u1280:
  7173  0D84                     	addlw	-1
  7174  0D84  3EFF               	skipz
  7175  0D85  1D03               	goto	u1285
  7176  0D86  2D7F               	movf	0+(??___fltol+0)+0,w
  7177  0D87  083E               	movwf	(??___fltol+4)+0
  7178  0D88  00C2               	movf	(??___fltol+4)+0,w
  7179  0D89  0842               	movwf	(___fltol@sign1)
  7180  0D8A  00C3               	line	50
  7181                           	
  7182                           l2579:	
  7183  0D8B                     	bsf	(___fltol@f1)+(23/8),(23)&7
  7184  0D8B  17BC               	line	51
  7185                           	
  7186                           l2581:	
  7187  0D8C                     	movlw	0FFh
  7188  0D8C  30FF               	andwf	(___fltol@f1),f
  7189  0D8D  05BA               	movlw	0FFh
  7190  0D8E  30FF               	andwf	(___fltol@f1+1),f
  7191  0D8F  05BB               	movlw	0FFh
  7192  0D90  30FF               	andwf	(___fltol@f1+2),f
  7193  0D91  05BC               	movlw	0
  7194  0D92  3000               	andwf	(___fltol@f1+3),f
  7195  0D93  05BD               	line	52
  7196                           	
  7197                           l2583:	
  7198  0D94                     	movlw	096h
  7199  0D94  3096               	subwf	(___fltol@exp1),f
  7200  0D95  02C4               	line	53
  7201                           	
  7202                           l2585:	
  7203  0D96                     	btfss	(___fltol@exp1),7
  7204  0D96  1FC4               	goto	u1291
  7205  0D97  2D99               	goto	u1290
  7206  0D98  2D9A               u1291:
  7207  0D99                     	goto	l2595
  7208  0D99  2DBF               u1290:
  7209  0D9A                     	line	54
  7210                           	
  7211                           l2587:	
  7212  0D9A                     	movf	(___fltol@exp1),w
  7213  0D9A  0844               	xorlw	80h
  7214  0D9B  3A80               	addlw	-((-23)^80h)
  7215  0D9C  3E97               	skipnc
  7216  0D9D  1803               	goto	u1301
  7217  0D9E  2DA0               	goto	u1300
  7218  0D9F  2DA1               u1301:
  7219  0DA0                     	goto	l2593
  7220  0DA0  2DAC               u1300:
  7221  0DA1                     	line	55
  7222                           	
  7223                           l2589:	
  7224  0DA1                     	movlw	high highword(0)
  7225  0DA1  3000               	movwf	(?___fltol+3)
  7226  0DA2  00BD               	movlw	low highword(0)
  7227  0DA3  3000               	movwf	(?___fltol+2)
  7228  0DA4  00BC               	movlw	high(0)
  7229  0DA5  3000               	movwf	(?___fltol+1)
  7230  0DA6  00BB               	movlw	low(0)
  7231  0DA7  3000               	movwf	(?___fltol)
  7232  0DA8  00BA               
  7233                           	goto	l752
  7234  0DA9  2DF2               	
  7235                           l2591:	
  7236  0DAA                     	goto	l752
  7237  0DAA  2DF2               	
  7238                           l754:	
  7239  0DAB                     	goto	l2593
  7240  0DAB  2DAC               	line	56
  7241                           	
  7242                           l755:	
  7243  0DAC                     	line	57
  7244                           	
  7245                           l2593:	
  7246  0DAC                     	movlw	01h
  7247  0DAC  3001               u1315:
  7248  0DAD                     	clrc
  7249  0DAD  1003               	rrf	(___fltol@f1+3),f
  7250  0DAE  0CBD               	rrf	(___fltol@f1+2),f
  7251  0DAF  0CBC               	rrf	(___fltol@f1+1),f
  7252  0DB0  0CBB               	rrf	(___fltol@f1),f
  7253  0DB1  0CBA               	addlw	-1
  7254  0DB2  3EFF               	skipz
  7255  0DB3  1D03               	goto	u1315
  7256  0DB4  2DAD               
  7257                           	line	58
  7258                           	movlw	low(01h)
  7259  0DB5  3001               	movwf	(??___fltol+0)+0
  7260  0DB6  00BE               	movf	(??___fltol+0)+0,w
  7261  0DB7  083E               	addwf	(___fltol@exp1),f
  7262  0DB8  07C4               	btfss	status,2
  7263  0DB9  1D03               	goto	u1321
  7264  0DBA  2DBC               	goto	u1320
  7265  0DBB  2DBD               u1321:
  7266  0DBC                     	goto	l2593
  7267  0DBC  2DAC               u1320:
  7268  0DBD                     	goto	l2603
  7269  0DBD  2DE2               	
  7270                           l756:	
  7271  0DBE                     	line	59
  7272                           	goto	l2603
  7273  0DBE  2DE2               	
  7274                           l753:	
  7275  0DBF                     	line	60
  7276                           	
  7277                           l2595:	
  7278  0DBF                     	movlw	low(020h)
  7279  0DBF  3020               	subwf	(___fltol@exp1),w
  7280  0DC0  0244               	skipc
  7281  0DC1  1C03               	goto	u1331
  7282  0DC2  2DC4               	goto	u1330
  7283  0DC3  2DC5               u1331:
  7284  0DC4                     	goto	l759
  7285  0DC4  2DDB               u1330:
  7286  0DC5                     	line	61
  7287                           	
  7288                           l2597:	
  7289  0DC5                     	movlw	high highword(0)
  7290  0DC5  3000               	movwf	(?___fltol+3)
  7291  0DC6  00BD               	movlw	low highword(0)
  7292  0DC7  3000               	movwf	(?___fltol+2)
  7293  0DC8  00BC               	movlw	high(0)
  7294  0DC9  3000               	movwf	(?___fltol+1)
  7295  0DCA  00BB               	movlw	low(0)
  7296  0DCB  3000               	movwf	(?___fltol)
  7297  0DCC  00BA               
  7298                           	goto	l752
  7299  0DCD  2DF2               	
  7300                           l2599:	
  7301  0DCE                     	goto	l752
  7302  0DCE  2DF2               	
  7303                           l758:	
  7304  0DCF                     	line	62
  7305                           	goto	l759
  7306  0DCF  2DDB               	
  7307                           l760:	
  7308  0DD0                     	line	63
  7309                           	
  7310                           l2601:	
  7311  0DD0                     	movlw	01h
  7312  0DD0  3001               	movwf	(??___fltol+0)+0
  7313  0DD1  00BE               u1345:
  7314  0DD2                     	clrc
  7315  0DD2  1003               	rlf	(___fltol@f1),f
  7316  0DD3  0DBA               	rlf	(___fltol@f1+1),f
  7317  0DD4  0DBB               	rlf	(___fltol@f1+2),f
  7318  0DD5  0DBC               	rlf	(___fltol@f1+3),f
  7319  0DD6  0DBD               	decfsz	(??___fltol+0)+0
  7320  0DD7  0BBE               	goto	u1345
  7321  0DD8  2DD2               	line	64
  7322                           	movlw	01h
  7323  0DD9  3001               	subwf	(___fltol@exp1),f
  7324  0DDA  02C4               	line	65
  7325                           	
  7326                           l759:	
  7327  0DDB                     	line	62
  7328                           	movf	((___fltol@exp1)),w
  7329  0DDB  0844               	btfss	status,2
  7330  0DDC  1D03               	goto	u1351
  7331  0DDD  2DDF               	goto	u1350
  7332  0DDE  2DE0               u1351:
  7333  0DDF                     	goto	l2601
  7334  0DDF  2DD0               u1350:
  7335  0DE0                     	goto	l2603
  7336  0DE0  2DE2               	
  7337                           l761:	
  7338  0DE1                     	goto	l2603
  7339  0DE1  2DE2               	line	66
  7340                           	
  7341                           l757:	
  7342  0DE2                     	line	67
  7343                           	
  7344                           l2603:	
  7345  0DE2                     	movf	((___fltol@sign1)),w
  7346  0DE2  0843               	btfsc	status,2
  7347  0DE3  1903               	goto	u1361
  7348  0DE4  2DE6               	goto	u1360
  7349  0DE5  2DE7               u1361:
  7350  0DE6                     	goto	l762
  7351  0DE6  2DF2               u1360:
  7352  0DE7                     	line	68
  7353                           	
  7354                           l2605:	
  7355  0DE7                     	comf	(___fltol@f1),f
  7356  0DE7  09BA               	comf	(___fltol@f1+1),f
  7357  0DE8  09BB               	comf	(___fltol@f1+2),f
  7358  0DE9  09BC               	comf	(___fltol@f1+3),f
  7359  0DEA  09BD               	incf	(___fltol@f1),f
  7360  0DEB  0ABA               	skipnz
  7361  0DEC  1903               	incf	(___fltol@f1+1),f
  7362  0DED  0ABB               	skipnz
  7363  0DEE  1903               	incf	(___fltol@f1+2),f
  7364  0DEF  0ABC               	skipnz
  7365  0DF0  1903               	incf	(___fltol@f1+3),f
  7366  0DF1  0ABD               	
  7367                           l762:	
  7368  0DF2                     	line	69
  7369                           	line	70
  7370                           	
  7371                           l752:	
  7372  0DF2                     	return
  7373  0DF2  0008               	opt stack 0
  7374                           GLOBAL	__end_of___fltol
  7375                           	__end_of___fltol:
  7376  0DF3                     	signat	___fltol,4220
  7377                           	global	___fldiv
  7378                           
  7379 ;; *************** function ___fldiv *****************
  7380 ;; Defined at:
  7381 ;;		line 8 in file "C:\Program Files (x86)\Microchip\xc8\v2.00\pic\sources\c90\common\sprcdiv.c"
  7382 ;; Parameters:    Size  Location     Type
  7383 ;;  a               4    0[BANK0 ] long 
  7384 ;;  b               4    4[BANK0 ] long 
  7385 ;; Auto vars:     Size  Location     Type
  7386 ;;  grs             4   20[BANK0 ] unsigned long 
  7387 ;;  rem             4   13[BANK0 ] unsigned long 
  7388 ;;  new_exp         2   18[BANK0 ] int 
  7389 ;;  aexp            1   25[BANK0 ] unsigned char 
  7390 ;;  bexp            1   24[BANK0 ] unsigned char 
  7391 ;;  sign            1   17[BANK0 ] unsigned char 
  7392 ;; Return value:  Size  Location     Type
  7393 ;;                  4    0[BANK0 ] unsigned char 
  7394 ;; Registers used:
  7395 ;;		wreg, status,2, status,0, btemp+1
  7396 ;; Tracked objects:
  7397 ;;		On entry : 0/0
  7398 ;;		On exit  : 0/0
  7399 ;;		Unchanged: 0/0
  7400 ;; Data sizes:     COMMON   BANK0   BANK1   BANK3   BANK2
  7401 ;;      Params:         0       8       0       0       0
  7402 ;;      Locals:         0      13       0       0       0
  7403 ;;      Temps:          0       5       0       0       0
  7404 ;;      Totals:         0      26       0       0       0
  7405 ;;Total ram usage:       26 bytes
  7406 ;; Hardware stack levels used:    1
  7407 ;; This function calls:
  7408 ;;		Nothing
  7409 ;; This function is called by:
  7410 ;;		_USRead
  7411 ;; This function uses a non-reentrant model
  7412 ;;
  7413                           psect	text18,local,class=CODE,delta=2,merge=1,group=1
  7414                           	file	"C:\Program Files (x86)\Microchip\xc8\v2.00\pic\sources\c90\common\sprcdiv.c"
  7415                           	line	8
  7416                           global __ptext18
  7417                           __ptext18:	;psect for function ___fldiv
  7418  05CD                     psect	text18
  7419                           	file	"C:\Program Files (x86)\Microchip\xc8\v2.00\pic\sources\c90\common\sprcdiv.c"
  7420                           	line	8
  7421                           	global	__size_of___fldiv
  7422                           	__size_of___fldiv	equ	__end_of___fldiv-___fldiv
  7423  0209                     	
  7424                           ___fldiv:	
  7425  05CD                     ;incstack = 0
  7426                           	opt	stack 4
  7427                           ; Regs used in ___fldiv: [wreg+status,2+status,0+btemp+1]
  7428                           	line	26
  7429                           	
  7430                           l2607:	
  7431  05CD                     	bcf	status, 5	;RP0=0, select bank0
  7432  05CD  1283               	bcf	status, 6	;RP1=0, select bank0
  7433  05CE  1303               	movf	0+(___fldiv@b)+03h,w
  7434  05CF  0827               	andlw	080h
  7435  05D0  3980               	movwf	(??___fldiv+0)+0
  7436  05D1  00A8               	movf	(??___fldiv+0)+0,w
  7437  05D2  0828               	movwf	(___fldiv@sign)
  7438  05D3  00B1               	line	27
  7439                           	
  7440                           l2609:	
  7441  05D4                     	movf	0+(___fldiv@b)+03h,w
  7442  05D4  0827               	movwf	(??___fldiv+0)+0
  7443  05D5  00A8               	addwf	(??___fldiv+0)+0,w
  7444  05D6  0728               	movwf	(??___fldiv+1)+0
  7445  05D7  00A9               	movf	(??___fldiv+1)+0,w
  7446  05D8  0829               	movwf	(___fldiv@bexp)
  7447  05D9  00B8               	line	28
  7448                           	
  7449                           l2611:	
  7450  05DA                     	btfss	0+(___fldiv@b)+02h,(7)&7
  7451  05DA  1FA6               	goto	u1371
  7452  05DB  2DDD               	goto	u1370
  7453  05DC  2DDE               u1371:
  7454  05DD                     	goto	l2615
  7455  05DD  2DE0               u1370:
  7456  05DE                     	line	29
  7457                           	
  7458                           l2613:	
  7459  05DE                     	bsf	(___fldiv@bexp)+(0/8),(0)&7
  7460  05DE  1438               	goto	l2615
  7461  05DF  2DE0               	line	30
  7462                           	
  7463                           l908:	
  7464  05E0                     	line	33
  7465                           	
  7466                           l2615:	
  7467  05E0                     	movf	((___fldiv@bexp)),w
  7468  05E0  0838               	btfsc	status,2
  7469  05E1  1903               	goto	u1381
  7470  05E2  2DE4               	goto	u1380
  7471  05E3  2DE5               u1381:
  7472  05E4                     	goto	l2625
  7473  05E4  2DF6               u1380:
  7474  05E5                     	line	35
  7475                           	
  7476                           l2617:	
  7477  05E5                     		incf	((___fldiv@bexp)),w
  7478  05E5  0A38               	btfss	status,2
  7479  05E6  1D03               	goto	u1391
  7480  05E7  2DE9               	goto	u1390
  7481  05E8  2DEA               u1391:
  7482  05E9                     	goto	l2621
  7483  05E9  2DF3               u1390:
  7484  05EA                     	line	37
  7485                           	
  7486                           l2619:	
  7487  05EA                     	movlw	0x0
  7488  05EA  3000               	movwf	(___fldiv@b+3)
  7489  05EB  00A7               	movlw	0x0
  7490  05EC  3000               	movwf	(___fldiv@b+2)
  7491  05ED  00A6               	movlw	0x0
  7492  05EE  3000               	movwf	(___fldiv@b+1)
  7493  05EF  00A5               	movlw	0x0
  7494  05F0  3000               	movwf	(___fldiv@b)
  7495  05F1  00A4               
  7496                           	goto	l2621
  7497  05F2  2DF3               	line	38
  7498                           	
  7499                           l910:	
  7500  05F3                     	line	40
  7501                           	
  7502                           l2621:	
  7503  05F3                     	bsf	(___fldiv@b)+(23/8),(23)&7
  7504  05F3  17A6               	line	42
  7505                           	
  7506                           l2623:	
  7507  05F4                     	clrf	0+(___fldiv@b)+03h
  7508  05F4  01A7               	line	43
  7509                           	goto	l2627
  7510  05F5  2DFF               	line	44
  7511                           	
  7512                           l909:	
  7513  05F6                     	line	46
  7514                           	
  7515                           l2625:	
  7516  05F6                     	movlw	0x0
  7517  05F6  3000               	movwf	(___fldiv@b+3)
  7518  05F7  00A7               	movlw	0x0
  7519  05F8  3000               	movwf	(___fldiv@b+2)
  7520  05F9  00A6               	movlw	0x0
  7521  05FA  3000               	movwf	(___fldiv@b+1)
  7522  05FB  00A5               	movlw	0x0
  7523  05FC  3000               	movwf	(___fldiv@b)
  7524  05FD  00A4               
  7525                           	goto	l2627
  7526  05FE  2DFF               	line	47
  7527                           	
  7528                           l911:	
  7529  05FF                     	line	49
  7530                           	
  7531                           l2627:	
  7532  05FF                     	movf	0+(___fldiv@a)+03h,w
  7533  05FF  0823               	andlw	080h
  7534  0600  3980               	movwf	(??___fldiv+0)+0
  7535  0601  00A8               	movf	(??___fldiv+0)+0,w
  7536  0602  0828               	xorwf	(___fldiv@sign),f
  7537  0603  06B1               	line	50
  7538                           	
  7539                           l2629:	
  7540  0604                     	movf	0+(___fldiv@a)+03h,w
  7541  0604  0823               	movwf	(??___fldiv+0)+0
  7542  0605  00A8               	addwf	(??___fldiv+0)+0,w
  7543  0606  0728               	movwf	(??___fldiv+1)+0
  7544  0607  00A9               	movf	(??___fldiv+1)+0,w
  7545  0608  0829               	movwf	(___fldiv@aexp)
  7546  0609  00B9               	line	51
  7547                           	
  7548                           l2631:	
  7549  060A                     	btfss	0+(___fldiv@a)+02h,(7)&7
  7550  060A  1FA2               	goto	u1401
  7551  060B  2E0D               	goto	u1400
  7552  060C  2E0E               u1401:
  7553  060D                     	goto	l2635
  7554  060D  2E10               u1400:
  7555  060E                     	line	52
  7556                           	
  7557                           l2633:	
  7558  060E                     	bsf	(___fldiv@aexp)+(0/8),(0)&7
  7559  060E  1439               	goto	l2635
  7560  060F  2E10               	line	53
  7561                           	
  7562                           l912:	
  7563  0610                     	line	56
  7564                           	
  7565                           l2635:	
  7566  0610                     	movf	((___fldiv@aexp)),w
  7567  0610  0839               	btfsc	status,2
  7568  0611  1903               	goto	u1411
  7569  0612  2E14               	goto	u1410
  7570  0613  2E15               u1411:
  7571  0614                     	goto	l2645
  7572  0614  2E26               u1410:
  7573  0615                     	line	58
  7574                           	
  7575                           l2637:	
  7576  0615                     		incf	((___fldiv@aexp)),w
  7577  0615  0A39               	btfss	status,2
  7578  0616  1D03               	goto	u1421
  7579  0617  2E19               	goto	u1420
  7580  0618  2E1A               u1421:
  7581  0619                     	goto	l2641
  7582  0619  2E23               u1420:
  7583  061A                     	line	60
  7584                           	
  7585                           l2639:	
  7586  061A                     	movlw	0x0
  7587  061A  3000               	movwf	(___fldiv@a+3)
  7588  061B  00A3               	movlw	0x0
  7589  061C  3000               	movwf	(___fldiv@a+2)
  7590  061D  00A2               	movlw	0x0
  7591  061E  3000               	movwf	(___fldiv@a+1)
  7592  061F  00A1               	movlw	0x0
  7593  0620  3000               	movwf	(___fldiv@a)
  7594  0621  00A0               
  7595                           	goto	l2641
  7596  0622  2E23               	line	61
  7597                           	
  7598                           l914:	
  7599  0623                     	line	63
  7600                           	
  7601                           l2641:	
  7602  0623                     	bsf	(___fldiv@a)+(23/8),(23)&7
  7603  0623  17A2               	line	65
  7604                           	
  7605                           l2643:	
  7606  0624                     	clrf	0+(___fldiv@a)+03h
  7607  0624  01A3               	line	66
  7608                           	goto	l915
  7609  0625  2E2E               	line	67
  7610                           	
  7611                           l913:	
  7612  0626                     	line	69
  7613                           	
  7614                           l2645:	
  7615  0626                     	movlw	0x0
  7616  0626  3000               	movwf	(___fldiv@a+3)
  7617  0627  00A3               	movlw	0x0
  7618  0628  3000               	movwf	(___fldiv@a+2)
  7619  0629  00A2               	movlw	0x0
  7620  062A  3000               	movwf	(___fldiv@a+1)
  7621  062B  00A1               	movlw	0x0
  7622  062C  3000               	movwf	(___fldiv@a)
  7623  062D  00A0               
  7624                           	line	70
  7625                           	
  7626                           l915:	
  7627  062E                     	line	75
  7628                           	movf	(___fldiv@a+3),w
  7629  062E  0823               	iorwf	(___fldiv@a+2),w
  7630  062F  0422               	iorwf	(___fldiv@a+1),w
  7631  0630  0421               	iorwf	(___fldiv@a),w
  7632  0631  0420               	skipz
  7633  0632  1D03               	goto	u1431
  7634  0633  2E35               	goto	u1430
  7635  0634  2E36               u1431:
  7636  0635                     	goto	l2655
  7637  0635  2E50               u1430:
  7638  0636                     	line	76
  7639                           	
  7640                           l2647:	
  7641  0636                     	movlw	high highword(0)
  7642  0636  3000               	movwf	(___fldiv@b+3)
  7643  0637  00A7               	movlw	low highword(0)
  7644  0638  3000               	movwf	(___fldiv@b+2)
  7645  0639  00A6               	movlw	high(0)
  7646  063A  3000               	movwf	(___fldiv@b+1)
  7647  063B  00A5               	movlw	low(0)
  7648  063C  3000               	movwf	(___fldiv@b)
  7649  063D  00A4               
  7650                           	line	77
  7651                           	movlw	080h
  7652  063E  3080               	iorwf	0+(___fldiv@b)+02h,f
  7653  063F  04A6               	movlw	07Fh
  7654  0640  307F               	iorwf	1+(___fldiv@b)+02h,f
  7655  0641  04A7               	line	78
  7656                           	
  7657                           l2649:	
  7658  0642                     	movf	(___fldiv@sign),w
  7659  0642  0831               	movwf	(??___fldiv+0)+0
  7660  0643  00A8               	movf	(??___fldiv+0)+0,w
  7661  0644  0828               	iorwf	0+(___fldiv@b)+03h,f
  7662  0645  04A7               	line	79
  7663                           	
  7664                           l2651:	
  7665  0646                     	movf	(___fldiv@b+3),w
  7666  0646  0827               	movwf	(?___fldiv+3)
  7667  0647  00A3               	movf	(___fldiv@b+2),w
  7668  0648  0826               	movwf	(?___fldiv+2)
  7669  0649  00A2               	movf	(___fldiv@b+1),w
  7670  064A  0825               	movwf	(?___fldiv+1)
  7671  064B  00A1               	movf	(___fldiv@b),w
  7672  064C  0824               	movwf	(?___fldiv)
  7673  064D  00A0               
  7674                           	goto	l917
  7675  064E  2FD5               	
  7676                           l2653:	
  7677  064F                     	goto	l917
  7678  064F  2FD5               	line	80
  7679                           	
  7680                           l916:	
  7681  0650                     	line	83
  7682                           	
  7683                           l2655:	
  7684  0650                     	movf	((___fldiv@bexp)),w
  7685  0650  0838               	btfss	status,2
  7686  0651  1D03               	goto	u1441
  7687  0652  2E54               	goto	u1440
  7688  0653  2E55               u1441:
  7689  0654                     	goto	l2661
  7690  0654  2E67               u1440:
  7691  0655                     	line	84
  7692                           	
  7693                           l2657:	
  7694  0655                     	movlw	high highword(0)
  7695  0655  3000               	movwf	(___fldiv@b+3)
  7696  0656  00A7               	movlw	low highword(0)
  7697  0657  3000               	movwf	(___fldiv@b+2)
  7698  0658  00A6               	movlw	high(0)
  7699  0659  3000               	movwf	(___fldiv@b+1)
  7700  065A  00A5               	movlw	low(0)
  7701  065B  3000               	movwf	(___fldiv@b)
  7702  065C  00A4               
  7703                           	line	85
  7704                           	movf	(___fldiv@b+3),w
  7705  065D  0827               	movwf	(?___fldiv+3)
  7706  065E  00A3               	movf	(___fldiv@b+2),w
  7707  065F  0826               	movwf	(?___fldiv+2)
  7708  0660  00A2               	movf	(___fldiv@b+1),w
  7709  0661  0825               	movwf	(?___fldiv+1)
  7710  0662  00A1               	movf	(___fldiv@b),w
  7711  0663  0824               	movwf	(?___fldiv)
  7712  0664  00A0               
  7713                           	goto	l917
  7714  0665  2FD5               	
  7715                           l2659:	
  7716  0666                     	goto	l917
  7717  0666  2FD5               	line	86
  7718                           	
  7719                           l918:	
  7720  0667                     	line	89
  7721                           	
  7722                           l2661:	
  7723  0667                     	movf	(___fldiv@aexp),w
  7724  0667  0839               	movwf	(??___fldiv+0)+0
  7725  0668  00A8               	clrf	(??___fldiv+0)+0+1
  7726  0669  01A9               	comf	(??___fldiv+0)+0,f
  7727  066A  09A8               	comf	(??___fldiv+0)+1,f
  7728  066B  09A9               	incf	(??___fldiv+0)+0,f
  7729  066C  0AA8               	skipnz
  7730  066D  1903               	incf	(??___fldiv+0)+1,f
  7731  066E  0AA9               	movf	(___fldiv@bexp),w
  7732  066F  0838               	addwf	0+(??___fldiv+0)+0,w
  7733  0670  0728               	movwf	(??___fldiv+2)+0
  7734  0671  00AA               	movf	1+(??___fldiv+0)+0,w
  7735  0672  0829               	skipnc
  7736  0673  1803               	incf	1+(??___fldiv+0)+0,w
  7737  0674  0A29               	movwf	((??___fldiv+2)+0)+1
  7738  0675  00AB               	movf	0+(??___fldiv+2)+0,w
  7739  0676  082A               	addlw	low(07Fh)
  7740  0677  3E7F               	movwf	(___fldiv@new_exp)
  7741  0678  00B2               	movf	1+(??___fldiv+2)+0,w
  7742  0679  082B               	skipnc
  7743  067A  1803               	addlw	1
  7744  067B  3E01               	addlw	high(07Fh)
  7745  067C  3E00               	movwf	1+(___fldiv@new_exp)
  7746  067D  00B3               	line	92
  7747                           	
  7748                           l2663:	
  7749  067E                     	movf	(___fldiv@b+3),w
  7750  067E  0827               	movwf	(___fldiv@rem+3)
  7751  067F  00B0               	movf	(___fldiv@b+2),w
  7752  0680  0826               	movwf	(___fldiv@rem+2)
  7753  0681  00AF               	movf	(___fldiv@b+1),w
  7754  0682  0825               	movwf	(___fldiv@rem+1)
  7755  0683  00AE               	movf	(___fldiv@b),w
  7756  0684  0824               	movwf	(___fldiv@rem)
  7757  0685  00AD               
  7758                           	line	93
  7759                           	
  7760                           l2665:	
  7761  0686                     	movlw	high highword(0)
  7762  0686  3000               	movwf	(___fldiv@b+3)
  7763  0687  00A7               	movlw	low highword(0)
  7764  0688  3000               	movwf	(___fldiv@b+2)
  7765  0689  00A6               	movlw	high(0)
  7766  068A  3000               	movwf	(___fldiv@b+1)
  7767  068B  00A5               	movlw	low(0)
  7768  068C  3000               	movwf	(___fldiv@b)
  7769  068D  00A4               
  7770                           	line	94
  7771                           	
  7772                           l2667:	
  7773  068E                     	movlw	high highword(0)
  7774  068E  3000               	movwf	(___fldiv@grs+3)
  7775  068F  00B7               	movlw	low highword(0)
  7776  0690  3000               	movwf	(___fldiv@grs+2)
  7777  0691  00B6               	movlw	high(0)
  7778  0692  3000               	movwf	(___fldiv@grs+1)
  7779  0693  00B5               	movlw	low(0)
  7780  0694  3000               	movwf	(___fldiv@grs)
  7781  0695  00B4               
  7782                           	line	96
  7783                           	
  7784                           l2669:	
  7785  0696                     	clrf	(___fldiv@aexp)
  7786  0696  01B9               	line	97
  7787                           	goto	l2689
  7788  0697  2EE6               	
  7789                           l920:	
  7790  0698                     	line	100
  7791                           	
  7792                           l2671:	
  7793  0698                     	movf	((___fldiv@aexp)),w
  7794  0698  0839               	btfsc	status,2
  7795  0699  1903               	goto	u1451
  7796  069A  2E9C               	goto	u1450
  7797  069B  2E9D               u1451:
  7798  069C                     	goto	l2681
  7799  069C  2EBF               u1450:
  7800  069D                     	line	101
  7801                           	
  7802                           l2673:	
  7803  069D                     	movlw	01h
  7804  069D  3001               	movwf	(??___fldiv+0)+0
  7805  069E  00A8               u1465:
  7806  069F                     	clrc
  7807  069F  1003               	rlf	(___fldiv@rem),f
  7808  06A0  0DAD               	rlf	(___fldiv@rem+1),f
  7809  06A1  0DAE               	rlf	(___fldiv@rem+2),f
  7810  06A2  0DAF               	rlf	(___fldiv@rem+3),f
  7811  06A3  0DB0               	decfsz	(??___fldiv+0)+0
  7812  06A4  0BA8               	goto	u1465
  7813  06A5  2E9F               	line	102
  7814                           	movlw	01h
  7815  06A6  3001               	movwf	(??___fldiv+0)+0
  7816  06A7  00A8               u1475:
  7817  06A8                     	clrc
  7818  06A8  1003               	rlf	(___fldiv@b),f
  7819  06A9  0DA4               	rlf	(___fldiv@b+1),f
  7820  06AA  0DA5               	rlf	(___fldiv@b+2),f
  7821  06AB  0DA6               	rlf	(___fldiv@b+3),f
  7822  06AC  0DA7               	decfsz	(??___fldiv+0)+0
  7823  06AD  0BA8               	goto	u1475
  7824  06AE  2EA8               	line	103
  7825                           	
  7826                           l2675:	
  7827  06AF                     	btfss	(___fldiv@grs+3),(31)&7
  7828  06AF  1FB7               	goto	u1481
  7829  06B0  2EB2               	goto	u1480
  7830  06B1  2EB3               u1481:
  7831  06B2                     	goto	l2679
  7832  06B2  2EB5               u1480:
  7833  06B3                     	line	104
  7834                           	
  7835                           l2677:	
  7836  06B3                     	bsf	(___fldiv@b)+(0/8),(0)&7
  7837  06B3  1424               	goto	l2679
  7838  06B4  2EB5               	line	105
  7839                           	
  7840                           l922:	
  7841  06B5                     	line	106
  7842                           	
  7843                           l2679:	
  7844  06B5                     	movlw	01h
  7845  06B5  3001               	movwf	(??___fldiv+0)+0
  7846  06B6  00A8               u1495:
  7847  06B7                     	clrc
  7848  06B7  1003               	rlf	(___fldiv@grs),f
  7849  06B8  0DB4               	rlf	(___fldiv@grs+1),f
  7850  06B9  0DB5               	rlf	(___fldiv@grs+2),f
  7851  06BA  0DB6               	rlf	(___fldiv@grs+3),f
  7852  06BB  0DB7               	decfsz	(??___fldiv+0)+0
  7853  06BC  0BA8               	goto	u1495
  7854  06BD  2EB7               	goto	l2681
  7855  06BE  2EBF               	line	107
  7856                           	
  7857                           l921:	
  7858  06BF                     	line	112
  7859                           	
  7860                           l2681:	
  7861  06BF                     	movf	(___fldiv@a+3),w
  7862  06BF  0823               	subwf	(___fldiv@rem+3),w
  7863  06C0  0230               	skipz
  7864  06C1  1D03               	goto	u1505
  7865  06C2  2ECD               	movf	(___fldiv@a+2),w
  7866  06C3  0822               	subwf	(___fldiv@rem+2),w
  7867  06C4  022F               	skipz
  7868  06C5  1D03               	goto	u1505
  7869  06C6  2ECD               	movf	(___fldiv@a+1),w
  7870  06C7  0821               	subwf	(___fldiv@rem+1),w
  7871  06C8  022E               	skipz
  7872  06C9  1D03               	goto	u1505
  7873  06CA  2ECD               	movf	(___fldiv@a),w
  7874  06CB  0820               	subwf	(___fldiv@rem),w
  7875  06CC  022D               u1505:
  7876  06CD                     	skipc
  7877  06CD  1C03               	goto	u1501
  7878  06CE  2ED0               	goto	u1500
  7879  06CF  2ED1               u1501:
  7880  06D0                     	goto	l2687
  7881  06D0  2EE1               u1500:
  7882  06D1                     	line	115
  7883                           	
  7884                           l2683:	
  7885  06D1                     	bsf	(___fldiv@grs)+(30/8),(30)&7
  7886  06D1  1737               	line	116
  7887                           	
  7888                           l2685:	
  7889  06D2                     	movf	(___fldiv@a),w
  7890  06D2  0820               	subwf	(___fldiv@rem),f
  7891  06D3  02AD               	movf	(___fldiv@a+1),w
  7892  06D4  0821               	skipc
  7893  06D5  1C03               	incfsz	(___fldiv@a+1),w
  7894  06D6  0F21               	subwf	(___fldiv@rem+1),f
  7895  06D7  02AE               	movf	(___fldiv@a+2),w
  7896  06D8  0822               	skipc
  7897  06D9  1C03               	incfsz	(___fldiv@a+2),w
  7898  06DA  0F22               	subwf	(___fldiv@rem+2),f
  7899  06DB  02AF               	movf	(___fldiv@a+3),w
  7900  06DC  0823               	skipc
  7901  06DD  1C03               	incfsz	(___fldiv@a+3),w
  7902  06DE  0F23               	subwf	(___fldiv@rem+3),f
  7903  06DF  02B0               	goto	l2687
  7904  06E0  2EE1               	line	117
  7905                           	
  7906                           l923:	
  7907  06E1                     	line	118
  7908                           	
  7909                           l2687:	
  7910  06E1                     	movlw	low(01h)
  7911  06E1  3001               	movwf	(??___fldiv+0)+0
  7912  06E2  00A8               	movf	(??___fldiv+0)+0,w
  7913  06E3  0828               	addwf	(___fldiv@aexp),f
  7914  06E4  07B9               	goto	l2689
  7915  06E5  2EE6               	line	119
  7916                           	
  7917                           l919:	
  7918  06E6                     	line	97
  7919                           	
  7920                           l2689:	
  7921  06E6                     	movlw	low(01Ah)
  7922  06E6  301A               	subwf	(___fldiv@aexp),w
  7923  06E7  0239               	skipc
  7924  06E8  1C03               	goto	u1511
  7925  06E9  2EEB               	goto	u1510
  7926  06EA  2EEC               u1511:
  7927  06EB                     	goto	l2671
  7928  06EB  2E98               u1510:
  7929  06EC                     	goto	l2691
  7930  06EC  2EED               	
  7931                           l924:	
  7932  06ED                     	line	122
  7933                           	
  7934                           l2691:	
  7935  06ED                     	movf	(___fldiv@rem+3),w
  7936  06ED  0830               	iorwf	(___fldiv@rem+2),w
  7937  06EE  042F               	iorwf	(___fldiv@rem+1),w
  7938  06EF  042E               	iorwf	(___fldiv@rem),w
  7939  06F0  042D               	skipnz
  7940  06F1  1903               	goto	u1521
  7941  06F2  2EF4               	goto	u1520
  7942  06F3  2EF5               u1521:
  7943  06F4                     	goto	l2705
  7944  06F4  2F17               u1520:
  7945  06F5                     	line	123
  7946                           	
  7947                           l2693:	
  7948  06F5                     	bsf	(___fldiv@grs)+(0/8),(0)&7
  7949  06F5  1434               	goto	l2705
  7950  06F6  2F17               	line	124
  7951                           	
  7952                           l925:	
  7953  06F7                     	line	127
  7954                           	goto	l2705
  7955  06F7  2F17               	
  7956                           l927:	
  7957  06F8                     	line	128
  7958                           	
  7959                           l2695:	
  7960  06F8                     	movlw	01h
  7961  06F8  3001               	movwf	(??___fldiv+0)+0
  7962  06F9  00A8               u1535:
  7963  06FA                     	clrc
  7964  06FA  1003               	rlf	(___fldiv@b),f
  7965  06FB  0DA4               	rlf	(___fldiv@b+1),f
  7966  06FC  0DA5               	rlf	(___fldiv@b+2),f
  7967  06FD  0DA6               	rlf	(___fldiv@b+3),f
  7968  06FE  0DA7               	decfsz	(??___fldiv+0)+0
  7969  06FF  0BA8               	goto	u1535
  7970  0700  2EFA               	line	129
  7971                           	
  7972                           l2697:	
  7973  0701                     	btfss	(___fldiv@grs+3),(31)&7
  7974  0701  1FB7               	goto	u1541
  7975  0702  2F04               	goto	u1540
  7976  0703  2F05               u1541:
  7977  0704                     	goto	l2701
  7978  0704  2F07               u1540:
  7979  0705                     	line	130
  7980                           	
  7981                           l2699:	
  7982  0705                     	bsf	(___fldiv@b)+(0/8),(0)&7
  7983  0705  1424               	goto	l2701
  7984  0706  2F07               	line	131
  7985                           	
  7986                           l928:	
  7987  0707                     	line	132
  7988                           	
  7989                           l2701:	
  7990  0707                     	movlw	01h
  7991  0707  3001               	movwf	(??___fldiv+0)+0
  7992  0708  00A8               u1555:
  7993  0709                     	clrc
  7994  0709  1003               	rlf	(___fldiv@grs),f
  7995  070A  0DB4               	rlf	(___fldiv@grs+1),f
  7996  070B  0DB5               	rlf	(___fldiv@grs+2),f
  7997  070C  0DB6               	rlf	(___fldiv@grs+3),f
  7998  070D  0DB7               	decfsz	(??___fldiv+0)+0
  7999  070E  0BA8               	goto	u1555
  8000  070F  2F09               	line	133
  8001                           	
  8002                           l2703:	
  8003  0710                     	movlw	0FFh
  8004  0710  30FF               	addwf	(___fldiv@new_exp),f
  8005  0711  07B2               	skipnc
  8006  0712  1803               	incf	(___fldiv@new_exp+1),f
  8007  0713  0AB3               	movlw	0FFh
  8008  0714  30FF               	addwf	(___fldiv@new_exp+1),f
  8009  0715  07B3               	goto	l2705
  8010  0716  2F17               	line	134
  8011                           	
  8012                           l926:	
  8013  0717                     	line	127
  8014                           	
  8015                           l2705:	
  8016  0717                     	btfss	(___fldiv@b+2),(23)&7
  8017  0717  1FA6               	goto	u1561
  8018  0718  2F1A               	goto	u1560
  8019  0719  2F1B               u1561:
  8020  071A                     	goto	l2695
  8021  071A  2EF8               u1560:
  8022  071B                     	goto	l2707
  8023  071B  2F1C               	
  8024                           l929:	
  8025  071C                     	line	139
  8026                           	
  8027                           l2707:	
  8028  071C                     	clrf	(___fldiv@aexp)
  8029  071C  01B9               	line	140
  8030                           	
  8031                           l2709:	
  8032  071D                     	btfss	(___fldiv@grs+3),(31)&7
  8033  071D  1FB7               	goto	u1571
  8034  071E  2F20               	goto	u1570
  8035  071F  2F21               u1571:
  8036  0720                     	goto	l2717
  8037  0720  2F41               u1570:
  8038  0721                     	line	141
  8039                           	
  8040                           l2711:	
  8041  0721                     	movlw	0FFh
  8042  0721  30FF               	andwf	(___fldiv@grs),w
  8043  0722  0534               	movwf	(??___fldiv+0)+0
  8044  0723  00A8               	movlw	0FFh
  8045  0724  30FF               	andwf	(___fldiv@grs+1),w
  8046  0725  0535               	movwf	((??___fldiv+0)+0+1)
  8047  0726  00A9               	movlw	0FFh
  8048  0727  30FF               	andwf	(___fldiv@grs+2),w
  8049  0728  0536               	movwf	((??___fldiv+0)+0+2)
  8050  0729  00AA               	movlw	07Fh
  8051  072A  307F               	andwf	(___fldiv@grs+3),w
  8052  072B  0537               	movwf	((??___fldiv+0)+0+3)
  8053  072C  00AB               	movf	3+(??___fldiv+0)+0,w
  8054  072D  082B               	iorwf	2+(??___fldiv+0)+0,w
  8055  072E  042A               	iorwf	1+(??___fldiv+0)+0,w
  8056  072F  0429               	iorwf	0+(??___fldiv+0)+0,w
  8057  0730  0428               	skipnz
  8058  0731  1903               	goto	u1581
  8059  0732  2F34               	goto	u1580
  8060  0733  2F35               u1581:
  8061  0734                     	goto	l931
  8062  0734  2F38               u1580:
  8063  0735                     	line	142
  8064                           	
  8065                           l2713:	
  8066  0735                     	clrf	(___fldiv@aexp)
  8067  0735  01B9               	incf	(___fldiv@aexp),f
  8068  0736  0AB9               	line	143
  8069                           	goto	l2717
  8070  0737  2F41               	line	144
  8071                           	
  8072                           l931:	
  8073  0738                     	line	145
  8074                           	btfss	(___fldiv@b),(0)&7
  8075  0738  1C24               	goto	u1591
  8076  0739  2F3B               	goto	u1590
  8077  073A  2F3C               u1591:
  8078  073B                     	goto	l2717
  8079  073B  2F41               u1590:
  8080  073C                     	line	146
  8081                           	
  8082                           l2715:	
  8083  073C                     	clrf	(___fldiv@aexp)
  8084  073C  01B9               	incf	(___fldiv@aexp),f
  8085  073D  0AB9               	goto	l2717
  8086  073E  2F41               	line	147
  8087                           	
  8088                           l933:	
  8089  073F                     	goto	l2717
  8090  073F  2F41               	line	148
  8091                           	
  8092                           l932:	
  8093  0740                     	goto	l2717
  8094  0740  2F41               	line	149
  8095                           	
  8096                           l930:	
  8097  0741                     	line	150
  8098                           	
  8099                           l2717:	
  8100  0741                     	movf	((___fldiv@aexp)),w
  8101  0741  0839               	btfsc	status,2
  8102  0742  1903               	goto	u1601
  8103  0743  2F45               	goto	u1600
  8104  0744  2F46               u1601:
  8105  0745                     	goto	l2727
  8106  0745  2F79               u1600:
  8107  0746                     	line	151
  8108                           	
  8109                           l2719:	
  8110  0746                     	movlw	01h
  8111  0746  3001               	addwf	(___fldiv@b),f
  8112  0747  07A4               	movlw	0
  8113  0748  3000               	skipnc
  8114  0749  1803               movlw 1
  8115  074A  3001               	addwf	(___fldiv@b+1),f
  8116  074B  07A5               	movlw	0
  8117  074C  3000               	skipnc
  8118  074D  1803               movlw 1
  8119  074E  3001               	addwf	(___fldiv@b+2),f
  8120  074F  07A6               	movlw	0
  8121  0750  3000               	skipnc
  8122  0751  1803               movlw 1
  8123  0752  3001               	addwf	(___fldiv@b+3),f
  8124  0753  07A7               	line	152
  8125                           	
  8126                           l2721:	
  8127  0754                     	btfss	(___fldiv@b+3),(24)&7
  8128  0754  1C27               	goto	u1611
  8129  0755  2F57               	goto	u1610
  8130  0756  2F58               u1611:
  8131  0757                     	goto	l2727
  8132  0757  2F79               u1610:
  8133  0758                     	line	153
  8134                           	
  8135                           l2723:	
  8136  0758                     	movf	(___fldiv@b),w
  8137  0758  0824               	movwf	(??___fldiv+0)+0
  8138  0759  00A8               	movf	(___fldiv@b+1),w
  8139  075A  0825               	movwf	((??___fldiv+0)+0+1)
  8140  075B  00A9               	movf	(___fldiv@b+2),w
  8141  075C  0826               	movwf	((??___fldiv+0)+0+2)
  8142  075D  00AA               	movf	(___fldiv@b+3),w
  8143  075E  0827               	movwf	((??___fldiv+0)+0+3)
  8144  075F  00AB               	movlw	01h
  8145  0760  3001               	movwf	(??___fldiv+4)+0
  8146  0761  00AC               u1625:
  8147  0762                     	rlf	(??___fldiv+0)+3,w
  8148  0762  0D2B               	rrf	(??___fldiv+0)+3,f
  8149  0763  0CAB               	rrf	(??___fldiv+0)+2,f
  8150  0764  0CAA               	rrf	(??___fldiv+0)+1,f
  8151  0765  0CA9               	rrf	(??___fldiv+0)+0,f
  8152  0766  0CA8               u1620:
  8153  0767                     	decfsz	(??___fldiv+4)+0,f
  8154  0767  0BAC               	goto	u1625
  8155  0768  2F62               	movf	3+(??___fldiv+0)+0,w
  8156  0769  082B               	movwf	(___fldiv@b+3)
  8157  076A  00A7               	movf	2+(??___fldiv+0)+0,w
  8158  076B  082A               	movwf	(___fldiv@b+2)
  8159  076C  00A6               	movf	1+(??___fldiv+0)+0,w
  8160  076D  0829               	movwf	(___fldiv@b+1)
  8161  076E  00A5               	movf	0+(??___fldiv+0)+0,w
  8162  076F  0828               	movwf	(___fldiv@b)
  8163  0770  00A4               
  8164                           	line	154
  8165                           	
  8166                           l2725:	
  8167  0771                     	movlw	01h
  8168  0771  3001               	addwf	(___fldiv@new_exp),f
  8169  0772  07B2               	skipnc
  8170  0773  1803               	incf	(___fldiv@new_exp+1),f
  8171  0774  0AB3               	movlw	0
  8172  0775  3000               	addwf	(___fldiv@new_exp+1),f
  8173  0776  07B3               	goto	l2727
  8174  0777  2F79               	line	155
  8175                           	
  8176                           l935:	
  8177  0778                     	goto	l2727
  8178  0778  2F79               	line	156
  8179                           	
  8180                           l934:	
  8181  0779                     	line	159
  8182                           	
  8183                           l2727:	
  8184  0779                     	movf	(___fldiv@new_exp+1),w
  8185  0779  0833               	xorlw	80h
  8186  077A  3A80               	movwf	btemp+1
  8187  077B  00FF               	movlw	(0)^80h
  8188  077C  3080               	subwf	btemp+1,w
  8189  077D  027F               	skipz
  8190  077E  1D03               	goto	u1635
  8191  077F  2F82               	movlw	0FFh
  8192  0780  30FF               	subwf	(___fldiv@new_exp),w
  8193  0781  0232               u1635:
  8194  0782                     
  8195                           	skipc
  8196  0782  1C03               	goto	u1631
  8197  0783  2F85               	goto	u1630
  8198  0784  2F86               u1631:
  8199  0785                     	goto	l2731
  8200  0785  2F95               u1630:
  8201  0786                     	line	160
  8202                           	
  8203                           l2729:	
  8204  0786                     	movlw	0FFh
  8205  0786  30FF               	bcf	status, 5	;RP0=0, select bank0
  8206  0787  1283               	bcf	status, 6	;RP1=0, select bank0
  8207  0788  1303               	movwf	(___fldiv@new_exp)
  8208  0789  00B2               	movlw	0
  8209  078A  3000               	movwf	((___fldiv@new_exp))+1
  8210  078B  00B3               	line	161
  8211                           	movlw	high highword(0)
  8212  078C  3000               	movwf	(___fldiv@b+3)
  8213  078D  00A7               	movlw	low highword(0)
  8214  078E  3000               	movwf	(___fldiv@b+2)
  8215  078F  00A6               	movlw	high(0)
  8216  0790  3000               	movwf	(___fldiv@b+1)
  8217  0791  00A5               	movlw	low(0)
  8218  0792  3000               	movwf	(___fldiv@b)
  8219  0793  00A4               
  8220                           	goto	l2731
  8221  0794  2F95               	line	162
  8222                           	
  8223                           l936:	
  8224  0795                     	line	165
  8225                           	
  8226                           l2731:	
  8227  0795                     	bcf	status, 5	;RP0=0, select bank0
  8228  0795  1283               	bcf	status, 6	;RP1=0, select bank0
  8229  0796  1303               	movf	(___fldiv@new_exp+1),w
  8230  0797  0833               	xorlw	80h
  8231  0798  3A80               	movwf	btemp+1
  8232  0799  00FF               	movlw	(0)^80h
  8233  079A  3080               	subwf	btemp+1,w
  8234  079B  027F               	skipz
  8235  079C  1D03               	goto	u1645
  8236  079D  2FA0               	movlw	01h
  8237  079E  3001               	subwf	(___fldiv@new_exp),w
  8238  079F  0232               u1645:
  8239  07A0                     
  8240                           	skipnc
  8241  07A0  1803               	goto	u1641
  8242  07A1  2FA3               	goto	u1640
  8243  07A2  2FA4               u1641:
  8244  07A3                     	goto	l937
  8245  07A3  2FB1               u1640:
  8246  07A4                     	line	166
  8247                           	
  8248                           l2733:	
  8249  07A4                     	bcf	status, 5	;RP0=0, select bank0
  8250  07A4  1283               	bcf	status, 6	;RP1=0, select bank0
  8251  07A5  1303               	clrf	(___fldiv@new_exp)
  8252  07A6  01B2               	clrf	(___fldiv@new_exp+1)
  8253  07A7  01B3               	line	167
  8254                           	
  8255                           l2735:	
  8256  07A8                     	movlw	high highword(0)
  8257  07A8  3000               	movwf	(___fldiv@b+3)
  8258  07A9  00A7               	movlw	low highword(0)
  8259  07AA  3000               	movwf	(___fldiv@b+2)
  8260  07AB  00A6               	movlw	high(0)
  8261  07AC  3000               	movwf	(___fldiv@b+1)
  8262  07AD  00A5               	movlw	low(0)
  8263  07AE  3000               	movwf	(___fldiv@b)
  8264  07AF  00A4               
  8265                           	line	169
  8266                           	
  8267                           l2737:	
  8268  07B0                     	clrf	(___fldiv@sign)
  8269  07B0  01B1               	line	170
  8270                           	
  8271                           l937:	
  8272  07B1                     	line	173
  8273                           	bcf	status, 5	;RP0=0, select bank0
  8274  07B1  1283               	bcf	status, 6	;RP1=0, select bank0
  8275  07B2  1303               	movf	(___fldiv@new_exp),w
  8276  07B3  0832               	movwf	(??___fldiv+0)+0
  8277  07B4  00A8               	movf	(??___fldiv+0)+0,w
  8278  07B5  0828               	movwf	(___fldiv@bexp)
  8279  07B6  00B8               	line	175
  8280                           	
  8281                           l2739:	
  8282  07B7                     	btfss	(___fldiv@bexp),(0)&7
  8283  07B7  1C38               	goto	u1651
  8284  07B8  2FBA               	goto	u1650
  8285  07B9  2FBB               u1651:
  8286  07BA                     	goto	l2743
  8287  07BA  2FBD               u1650:
  8288  07BB                     	line	176
  8289                           	
  8290                           l2741:	
  8291  07BB                     	bsf	0+(___fldiv@b)+02h+(7/8),(7)&7
  8292  07BB  17A6               	line	177
  8293                           	goto	l939
  8294  07BC  2FC1               	line	179
  8295                           	
  8296                           l938:	
  8297  07BD                     	line	180
  8298                           	
  8299                           l2743:	
  8300  07BD                     	movlw	low(07Fh)
  8301  07BD  307F               	movwf	(??___fldiv+0)+0
  8302  07BE  00A8               	movf	(??___fldiv+0)+0,w
  8303  07BF  0828               	andwf	0+(___fldiv@b)+02h,f
  8304  07C0  05A6               	line	181
  8305                           	
  8306                           l939:	
  8307  07C1                     	line	182
  8308                           	movf	(___fldiv@bexp),w
  8309  07C1  0838               	movwf	(??___fldiv+0)+0
  8310  07C2  00A8               	clrc
  8311  07C3  1003               	rrf	(??___fldiv+0)+0,w
  8312  07C4  0C28               	movwf	(??___fldiv+1)+0
  8313  07C5  00A9               	movf	(??___fldiv+1)+0,w
  8314  07C6  0829               	movwf	0+(___fldiv@b)+03h
  8315  07C7  00A7               	line	183
  8316                           	movf	(___fldiv@sign),w
  8317  07C8  0831               	movwf	(??___fldiv+0)+0
  8318  07C9  00A8               	movf	(??___fldiv+0)+0,w
  8319  07CA  0828               	iorwf	0+(___fldiv@b)+03h,f
  8320  07CB  04A7               	line	184
  8321                           	
  8322                           l2745:	
  8323  07CC                     	movf	(___fldiv@b+3),w
  8324  07CC  0827               	movwf	(?___fldiv+3)
  8325  07CD  00A3               	movf	(___fldiv@b+2),w
  8326  07CE  0826               	movwf	(?___fldiv+2)
  8327  07CF  00A2               	movf	(___fldiv@b+1),w
  8328  07D0  0825               	movwf	(?___fldiv+1)
  8329  07D1  00A1               	movf	(___fldiv@b),w
  8330  07D2  0824               	movwf	(?___fldiv)
  8331  07D3  00A0               
  8332                           	goto	l917
  8333  07D4  2FD5               	
  8334                           l2747:	
  8335  07D5                     	line	185
  8336                           	
  8337                           l917:	
  8338  07D5                     	return
  8339  07D5  0008               	opt stack 0
  8340                           GLOBAL	__end_of___fldiv
  8341                           	__end_of___fldiv:
  8342  07D6                     	signat	___fldiv,8316
  8343                           	global	_PBRead
  8344                           
  8345 ;; *************** function _PBRead *****************
  8346 ;; Defined at:
  8347 ;;		line 425 in file "Hormiga877.c"
  8348 ;; Parameters:    Size  Location     Type
  8349 ;;  pin             1    wreg     unsigned char 
  8350 ;; Auto vars:     Size  Location     Type
  8351 ;;  pin             1    9[COMMON] unsigned char 
  8352 ;; Return value:  Size  Location     Type
  8353 ;;                  1    wreg      unsigned char 
  8354 ;; Registers used:
  8355 ;;		wreg, fsr0l, fsr0h, status,2, status,0, btemp+1, pclath, cstack
  8356 ;; Tracked objects:
  8357 ;;		On entry : 0/0
  8358 ;;		On exit  : 0/0
  8359 ;;		Unchanged: 0/0
  8360 ;; Data sizes:     COMMON   BANK0   BANK1   BANK3   BANK2
  8361 ;;      Params:         0       0       0       0       0
  8362 ;;      Locals:         1       0       0       0       0
  8363 ;;      Temps:          2       0       0       0       0
  8364 ;;      Totals:         3       0       0       0       0
  8365 ;;Total ram usage:        3 bytes
  8366 ;; Hardware stack levels used:    1
  8367 ;; Hardware stack levels required when called:    1
  8368 ;; This function calls:
  8369 ;;		_delay
  8370 ;; This function is called by:
  8371 ;;		_ProcessCommand
  8372 ;; This function uses a non-reentrant model
  8373 ;;
  8374                           psect	text19,local,class=CODE,delta=2,merge=1,group=0
  8375                           	file	"Hormiga877.c"
  8376                           	line	425
  8377                           global __ptext19
  8378                           __ptext19:	;psect for function _PBRead
  8379  0BD6                     psect	text19
  8380                           	file	"Hormiga877.c"
  8381                           	line	425
  8382                           	global	__size_of_PBRead
  8383                           	__size_of_PBRead	equ	__end_of_PBRead-_PBRead
  8384  0067                     	
  8385                           _PBRead:	
  8386  0BD6                     ;incstack = 0
  8387                           	opt	stack 4
  8388                           ; Regs used in _PBRead: [wreg-fsr0h+status,2+status,0+btemp+1+pclath+cstack]
  8389                           ;PBRead@pin stored from wreg
  8390                           	movwf	(PBRead@pin)
  8391  0BD6  00F9               	line	427
  8392                           	
  8393                           l2915:	
  8394  0BD7                     ;Hormiga877.c: 425: char PBRead(char pin);Hormiga877.c: 426: {;Hormiga877.c: 427:     sw
                                 itch(pin)
  8395                           	goto	l2955
  8396  0BD7  2C29               	line	429
  8397                           ;Hormiga877.c: 428:     {;Hormiga877.c: 429:         case 0:
  8398                           	
  8399                           l396:	
  8400  0BD8                     	line	430
  8401                           ;Hormiga877.c: 430:             if(PORTEbits.RE0)
  8402                           	bcf	status, 5	;RP0=0, select bank0
  8403  0BD8  1283               	bcf	status, 6	;RP1=0, select bank0
  8404  0BD9  1303               	btfss	(9),0	;volatile
  8405  0BDA  1C09               	goto	u1891
  8406  0BDB  2BDD               	goto	u1890
  8407  0BDC  2BDE               u1891:
  8408  0BDD                     	goto	l2925
  8409  0BDD  2BEE               u1890:
  8410  0BDE                     	line	432
  8411                           	
  8412                           l2917:	
  8413  0BDE                     ;Hormiga877.c: 431:             {;Hormiga877.c: 432:                 delay(100);
  8414                           	movlw	064h
  8415  0BDE  3064               	movwf	(delay@milis)
  8416  0BDF  00F0               	movlw	0
  8417  0BE0  3000               	movwf	((delay@milis))+1
  8418  0BE1  00F1               	fcall	_delay
  8419  0BE2  120A  158A  2325  120A  158A  	line	433
  8420                           	
  8421                           l2919:	
  8422  0BE7                     ;Hormiga877.c: 433:                 return (PORTEbits.RE0) ? 1 : 0;
  8423                           	bcf	status, 5	;RP0=0, select bank0
  8424  0BE7  1283               	bcf	status, 6	;RP1=0, select bank0
  8425  0BE8  1303               	movf	(9),w	;volatile
  8426  0BE9  0809               	andlw	(1<<1)-1
  8427  0BEA  3901               	goto	l398
  8428  0BEB  2C3C               	
  8429                           l2921:	
  8430  0BEC                     	goto	l398
  8431  0BEC  2C3C               	line	434
  8432                           	
  8433                           l2923:	
  8434  0BED                     ;Hormiga877.c: 434:             }
  8435                           	goto	l398
  8436  0BED  2C3C               	line	435
  8437                           ;Hormiga877.c: 435:             else
  8438                           	
  8439                           l397:	
  8440  0BEE                     	line	437
  8441                           	
  8442                           l2925:	
  8443  0BEE                     ;Hormiga877.c: 436:             {;Hormiga877.c: 437:                 return 0;
  8444                           	movlw	low(0)
  8445  0BEE  3000               	goto	l398
  8446  0BEF  2C3C               	
  8447                           l2927:	
  8448  0BF0                     	goto	l398
  8449  0BF0  2C3C               	line	438
  8450                           ;Hormiga877.c: 438:             }
  8451                           	
  8452                           l399:	
  8453  0BF1                     	line	439
  8454                           ;Hormiga877.c: 439:             break;
  8455                           	goto	l398
  8456  0BF1  2C3C               	line	440
  8457                           ;Hormiga877.c: 440:         case 1:
  8458                           	
  8459                           l401:	
  8460  0BF2                     	line	441
  8461                           ;Hormiga877.c: 441:             if(PORTEbits.RE1)
  8462                           	bcf	status, 5	;RP0=0, select bank0
  8463  0BF2  1283               	bcf	status, 6	;RP1=0, select bank0
  8464  0BF3  1303               	btfss	(9),1	;volatile
  8465  0BF4  1C89               	goto	u1901
  8466  0BF5  2BF7               	goto	u1900
  8467  0BF6  2BF8               u1901:
  8468  0BF7                     	goto	l2937
  8469  0BF7  2C08               u1900:
  8470  0BF8                     	line	443
  8471                           	
  8472                           l2929:	
  8473  0BF8                     ;Hormiga877.c: 442:             {;Hormiga877.c: 443:                 delay(100);
  8474                           	movlw	064h
  8475  0BF8  3064               	movwf	(delay@milis)
  8476  0BF9  00F0               	movlw	0
  8477  0BFA  3000               	movwf	((delay@milis))+1
  8478  0BFB  00F1               	fcall	_delay
  8479  0BFC  120A  158A  2325  120A  158A  	line	444
  8480                           	
  8481                           l2931:	
  8482  0C01                     ;Hormiga877.c: 444:                 return (PORTEbits.RE1) ? 1 : 0;
  8483                           	bcf	status, 5	;RP0=0, select bank0
  8484  0C01  1283               	bcf	status, 6	;RP1=0, select bank0
  8485  0C02  1303               	rrf	(9),w	;volatile
  8486  0C03  0C09               	andlw	(1<<1)-1
  8487  0C04  3901               	goto	l398
  8488  0C05  2C3C               	
  8489                           l2933:	
  8490  0C06                     	goto	l398
  8491  0C06  2C3C               	line	445
  8492                           	
  8493                           l2935:	
  8494  0C07                     ;Hormiga877.c: 445:             }
  8495                           	goto	l398
  8496  0C07  2C3C               	line	446
  8497                           ;Hormiga877.c: 446:             else
  8498                           	
  8499                           l402:	
  8500  0C08                     	line	448
  8501                           	
  8502                           l2937:	
  8503  0C08                     ;Hormiga877.c: 447:             {;Hormiga877.c: 448:                 return 0;
  8504                           	movlw	low(0)
  8505  0C08  3000               	goto	l398
  8506  0C09  2C3C               	
  8507                           l2939:	
  8508  0C0A                     	goto	l398
  8509  0C0A  2C3C               	line	449
  8510                           ;Hormiga877.c: 449:             }
  8511                           	
  8512                           l403:	
  8513  0C0B                     	line	450
  8514                           ;Hormiga877.c: 450:             break;
  8515                           	goto	l398
  8516  0C0B  2C3C               	line	451
  8517                           ;Hormiga877.c: 451:         case 2:
  8518                           	
  8519                           l404:	
  8520  0C0C                     	line	452
  8521                           ;Hormiga877.c: 452:             if(PORTEbits.RE2)
  8522                           	bcf	status, 5	;RP0=0, select bank0
  8523  0C0C  1283               	bcf	status, 6	;RP1=0, select bank0
  8524  0C0D  1303               	btfss	(9),2	;volatile
  8525  0C0E  1D09               	goto	u1911
  8526  0C0F  2C11               	goto	u1910
  8527  0C10  2C12               u1911:
  8528  0C11                     	goto	l2949
  8529  0C11  2C24               u1910:
  8530  0C12                     	line	454
  8531                           	
  8532                           l2941:	
  8533  0C12                     ;Hormiga877.c: 453:             {;Hormiga877.c: 454:                 delay(120);
  8534                           	movlw	078h
  8535  0C12  3078               	movwf	(delay@milis)
  8536  0C13  00F0               	movlw	0
  8537  0C14  3000               	movwf	((delay@milis))+1
  8538  0C15  00F1               	fcall	_delay
  8539  0C16  120A  158A  2325  120A  158A  	line	455
  8540                           	
  8541                           l2943:	
  8542  0C1B                     ;Hormiga877.c: 455:                 return (PORTEbits.RE2) ? 1 : 0;
  8543                           	bcf	status, 5	;RP0=0, select bank0
  8544  0C1B  1283               	bcf	status, 6	;RP1=0, select bank0
  8545  0C1C  1303               	rrf	(9),w	;volatile
  8546  0C1D  0C09               	movwf	(??_PBRead+0)+0
  8547  0C1E  00F7               	rrf	(??_PBRead+0)+0,w
  8548  0C1F  0C77               	andlw	(1<<1)-1
  8549  0C20  3901               	goto	l398
  8550  0C21  2C3C               	
  8551                           l2945:	
  8552  0C22                     	goto	l398
  8553  0C22  2C3C               	line	456
  8554                           	
  8555                           l2947:	
  8556  0C23                     ;Hormiga877.c: 456:             }
  8557                           	goto	l398
  8558  0C23  2C3C               	line	457
  8559                           ;Hormiga877.c: 457:             else
  8560                           	
  8561                           l405:	
  8562  0C24                     	line	459
  8563                           	
  8564                           l2949:	
  8565  0C24                     ;Hormiga877.c: 458:             {;Hormiga877.c: 459:                 return 0;
  8566                           	movlw	low(0)
  8567  0C24  3000               	goto	l398
  8568  0C25  2C3C               	
  8569                           l2951:	
  8570  0C26                     	goto	l398
  8571  0C26  2C3C               	line	460
  8572                           ;Hormiga877.c: 460:             }
  8573                           	
  8574                           l406:	
  8575  0C27                     	line	461
  8576                           ;Hormiga877.c: 461:             break;
  8577                           	goto	l398
  8578  0C27  2C3C               	line	462
  8579                           	
  8580                           l2953:	
  8581  0C28                     ;Hormiga877.c: 462:     }
  8582                           	goto	l398
  8583  0C28  2C3C               	
  8584                           l395:	
  8585  0C29                     	
  8586                           l2955:	
  8587  0C29                     	movf	(PBRead@pin),w
  8588  0C29  0879               	movwf	(??_PBRead+0)+0
  8589  0C2A  00F7               	clrf	(??_PBRead+0)+0+1
  8590  0C2B  01F8               	; Switch on 2 bytes has been partitioned into a top level switch of size 1, and 1 sub-s
                                 witches
  8591                           ; Switch size 1, requested type "space"
  8592                           ; Number of cases is 1, Range of values is 0 to 0
  8593                           ; switch strategies available:
  8594                           ; Name         Instructions Cycles
  8595                           ; simple_byte            4     3 (average)
  8596                           ; direct_byte           11     8 (fixed)
  8597                           ; jumptable            260     6 (fixed)
  8598                           ;	Chosen strategy is simple_byte
  8599                           
  8600                           	movf 1+(??_PBRead+0)+0,w
  8601  0C2C  0878               	opt asmopt_push
  8602                           	opt asmopt_off
  8603                           	xorlw	0^0	; case 0
  8604  0C2D  3A00               	skipnz
  8605  0C2E  1903               	goto	l3537
  8606  0C2F  2C31               	goto	l398
  8607  0C30  2C3C               	opt asmopt_pop
  8608                           	
  8609                           l3537:	
  8610  0C31                     ; Switch size 1, requested type "space"
  8611                           ; Number of cases is 3, Range of values is 0 to 2
  8612                           ; switch strategies available:
  8613                           ; Name         Instructions Cycles
  8614                           ; simple_byte           10     6 (average)
  8615                           ; direct_byte           17     8 (fixed)
  8616                           ; jumptable            260     6 (fixed)
  8617                           ;	Chosen strategy is simple_byte
  8618                           
  8619                           	movf 0+(??_PBRead+0)+0,w
  8620  0C31  0877               	opt asmopt_push
  8621                           	opt asmopt_off
  8622                           	xorlw	0^0	; case 0
  8623  0C32  3A00               	skipnz
  8624  0C33  1903               	goto	l396
  8625  0C34  2BD8               	xorlw	1^0	; case 1
  8626  0C35  3A01               	skipnz
  8627  0C36  1903               	goto	l401
  8628  0C37  2BF2               	xorlw	2^1	; case 2
  8629  0C38  3A03               	skipnz
  8630  0C39  1903               	goto	l404
  8631  0C3A  2C0C               	goto	l398
  8632  0C3B  2C3C               	opt asmopt_pop
  8633                           
  8634                           	
  8635                           l400:	
  8636  0C3C                     	line	463
  8637                           	
  8638                           l398:	
  8639  0C3C                     	return
  8640  0C3C  0008               	opt stack 0
  8641                           GLOBAL	__end_of_PBRead
  8642                           	__end_of_PBRead:
  8643  0C3D                     	signat	_PBRead,4217
  8644                           	global	_delay
  8645                           
  8646 ;; *************** function _delay *****************
  8647 ;; Defined at:
  8648 ;;		line 576 in file "Hormiga877.c"
  8649 ;; Parameters:    Size  Location     Type
  8650 ;;  milis           2    0[COMMON] const int 
  8651 ;; Auto vars:     Size  Location     Type
  8652 ;;  i               2    5[COMMON] int 
  8653 ;;  j               2    3[COMMON] int 
  8654 ;; Return value:  Size  Location     Type
  8655 ;;                  1    wreg      void 
  8656 ;; Registers used:
  8657 ;;		wreg, status,2, btemp+1
  8658 ;; Tracked objects:
  8659 ;;		On entry : 0/0
  8660 ;;		On exit  : 0/0
  8661 ;;		Unchanged: 0/0
  8662 ;; Data sizes:     COMMON   BANK0   BANK1   BANK3   BANK2
  8663 ;;      Params:         2       0       0       0       0
  8664 ;;      Locals:         4       0       0       0       0
  8665 ;;      Temps:          1       0       0       0       0
  8666 ;;      Totals:         7       0       0       0       0
  8667 ;;Total ram usage:        7 bytes
  8668 ;; Hardware stack levels used:    1
  8669 ;; This function calls:
  8670 ;;		Nothing
  8671 ;; This function is called by:
  8672 ;;		_PBRead
  8673 ;; This function uses a non-reentrant model
  8674 ;;
  8675                           psect	text20,local,class=CODE,delta=2,merge=1,group=0
  8676                           	line	576
  8677                           global __ptext20
  8678                           __ptext20:	;psect for function _delay
  8679  0B25                     psect	text20
  8680                           	file	"Hormiga877.c"
  8681                           	line	576
  8682                           	global	__size_of_delay
  8683                           	__size_of_delay	equ	__end_of_delay-_delay
  8684  004E                     	
  8685                           _delay:	
  8686  0B25                     ;incstack = 0
  8687                           	opt	stack 4
  8688                           ; Regs used in _delay: [wreg+status,2+btemp+1]
  8689                           	line	578
  8690                           	
  8691                           l2553:	
  8692  0B25                     ;Hormiga877.c: 576: void delay(const int milis);Hormiga877.c: 577: {;Hormiga877.c: 578: 
                                     for(int j=0;j<milis;j++)
  8693                           	clrf	(delay@j)
  8694  0B25  01F3               	clrf	(delay@j+1)
  8695  0B26  01F4               	
  8696                           l2555:	
  8697  0B27                     	movf	(delay@j+1),w
  8698  0B27  0874               	xorlw	80h
  8699  0B28  3A80               	movwf	(??_delay+0)+0
  8700  0B29  00F2               	movf	(delay@milis+1),w
  8701  0B2A  0871               	xorlw	80h
  8702  0B2B  3A80               	subwf	(??_delay+0)+0,w
  8703  0B2C  0272               	skipz
  8704  0B2D  1D03               	goto	u1235
  8705  0B2E  2B31               	movf	(delay@milis),w
  8706  0B2F  0870               	subwf	(delay@j),w
  8707  0B30  0273               u1235:
  8708  0B31                     
  8709                           	skipc
  8710  0B31  1C03               	goto	u1231
  8711  0B32  2B34               	goto	u1230
  8712  0B33  2B35               u1231:
  8713  0B34                     	goto	l2559
  8714  0B34  2B37               u1230:
  8715  0B35                     	goto	l475
  8716  0B35  2B72               	
  8717                           l2557:	
  8718  0B36                     	goto	l475
  8719  0B36  2B72               	
  8720                           l471:	
  8721  0B37                     	line	581
  8722                           	
  8723                           l2559:	
  8724  0B37                     ;Hormiga877.c: 579:     {;Hormiga877.c: 581:         for(int i=0;i<235;i++)
  8725                           	clrf	(delay@i)
  8726  0B37  01F5               	clrf	(delay@i+1)
  8727  0B38  01F6               	
  8728                           l2561:	
  8729  0B39                     	movf	(delay@i+1),w
  8730  0B39  0876               	xorlw	80h
  8731  0B3A  3A80               	movwf	btemp+1
  8732  0B3B  00FF               	movlw	(0)^80h
  8733  0B3C  3080               	subwf	btemp+1,w
  8734  0B3D  027F               	skipz
  8735  0B3E  1D03               	goto	u1245
  8736  0B3F  2B42               	movlw	0EBh
  8737  0B40  30EB               	subwf	(delay@i),w
  8738  0B41  0275               u1245:
  8739  0B42                     
  8740                           	skipc
  8741  0B42  1C03               	goto	u1241
  8742  0B43  2B45               	goto	u1240
  8743  0B44  2B46               u1241:
  8744  0B45                     	goto	l473
  8745  0B45  2B48               u1240:
  8746  0B46                     	goto	l2569
  8747  0B46  2B5D               	
  8748                           l2563:	
  8749  0B47                     	goto	l2569
  8750  0B47  2B5D               	
  8751                           l473:	
  8752  0B48                     	line	583
  8753                           # 583 "Hormiga877.c"
  8754                           NOP ;# 
  8755  0B48  0000               psect	text20
  8756                           	line	584
  8757                           	
  8758                           l2565:	
  8759  0B49                     ;Hormiga877.c: 584:         }
  8760                           	movlw	01h
  8761  0B49  3001               	addwf	(delay@i),f
  8762  0B4A  07F5               	skipnc
  8763  0B4B  1803               	incf	(delay@i+1),f
  8764  0B4C  0AF6               	movlw	0
  8765  0B4D  3000               	addwf	(delay@i+1),f
  8766  0B4E  07F6               	
  8767                           l2567:	
  8768  0B4F                     	movf	(delay@i+1),w
  8769  0B4F  0876               	xorlw	80h
  8770  0B50  3A80               	movwf	btemp+1
  8771  0B51  00FF               	movlw	(0)^80h
  8772  0B52  3080               	subwf	btemp+1,w
  8773  0B53  027F               	skipz
  8774  0B54  1D03               	goto	u1255
  8775  0B55  2B58               	movlw	0EBh
  8776  0B56  30EB               	subwf	(delay@i),w
  8777  0B57  0275               u1255:
  8778  0B58                     
  8779                           	skipc
  8780  0B58  1C03               	goto	u1251
  8781  0B59  2B5B               	goto	u1250
  8782  0B5A  2B5C               u1251:
  8783  0B5B                     	goto	l473
  8784  0B5B  2B48               u1250:
  8785  0B5C                     	goto	l2569
  8786  0B5C  2B5D               	
  8787                           l474:	
  8788  0B5D                     	line	585
  8789                           	
  8790                           l2569:	
  8791  0B5D                     ;Hormiga877.c: 585:     }
  8792                           	movlw	01h
  8793  0B5D  3001               	addwf	(delay@j),f
  8794  0B5E  07F3               	skipnc
  8795  0B5F  1803               	incf	(delay@j+1),f
  8796  0B60  0AF4               	movlw	0
  8797  0B61  3000               	addwf	(delay@j+1),f
  8798  0B62  07F4               	movf	(delay@j+1),w
  8799  0B63  0874               	xorlw	80h
  8800  0B64  3A80               	movwf	(??_delay+0)+0
  8801  0B65  00F2               	movf	(delay@milis+1),w
  8802  0B66  0871               	xorlw	80h
  8803  0B67  3A80               	subwf	(??_delay+0)+0,w
  8804  0B68  0272               	skipz
  8805  0B69  1D03               	goto	u1265
  8806  0B6A  2B6D               	movf	(delay@milis),w
  8807  0B6B  0870               	subwf	(delay@j),w
  8808  0B6C  0273               u1265:
  8809  0B6D                     
  8810                           	skipc
  8811  0B6D  1C03               	goto	u1261
  8812  0B6E  2B70               	goto	u1260
  8813  0B6F  2B71               u1261:
  8814  0B70                     	goto	l2559
  8815  0B70  2B37               u1260:
  8816  0B71                     	goto	l475
  8817  0B71  2B72               	
  8818                           l472:	
  8819  0B72                     	line	586
  8820                           	
  8821                           l475:	
  8822  0B72                     	return
  8823  0B72  0008               	opt stack 0
  8824                           GLOBAL	__end_of_delay
  8825                           	__end_of_delay:
  8826  0B73                     	signat	_delay,4217
  8827                           	global	_Initialization
  8828                           
  8829 ;; *************** function _Initialization *****************
  8830 ;; Defined at:
  8831 ;;		line 14 in file "Hormiga877.c"
  8832 ;; Parameters:    Size  Location     Type
  8833 ;;		None
  8834 ;; Auto vars:     Size  Location     Type
  8835 ;;		None
  8836 ;; Return value:  Size  Location     Type
  8837 ;;                  1    wreg      void 
  8838 ;; Registers used:
  8839 ;;		wreg, status,2, status,0, pclath, cstack
  8840 ;; Tracked objects:
  8841 ;;		On entry : 0/0
  8842 ;;		On exit  : 0/0
  8843 ;;		Unchanged: 0/0
  8844 ;; Data sizes:     COMMON   BANK0   BANK1   BANK3   BANK2
  8845 ;;      Params:         0       0       0       0       0
  8846 ;;      Locals:         0       0       0       0       0
  8847 ;;      Temps:          0       0       0       0       0
  8848 ;;      Totals:         0       0       0       0       0
  8849 ;;Total ram usage:        0 bytes
  8850 ;; Hardware stack levels used:    1
  8851 ;; Hardware stack levels required when called:    1
  8852 ;; This function calls:
  8853 ;;		_PWMConfiguration
  8854 ;; This function is called by:
  8855 ;;		_main
  8856 ;; This function uses a non-reentrant model
  8857 ;;
  8858                           psect	text21,local,class=CODE,delta=2,merge=1,group=0
  8859                           	line	14
  8860                           global __ptext21
  8861                           __ptext21:	;psect for function _Initialization
  8862  0013                     psect	text21
  8863                           	file	"Hormiga877.c"
  8864                           	line	14
  8865                           	global	__size_of_Initialization
  8866                           	__size_of_Initialization	equ	__end_of_Initialization-_Initialization
  8867  002C                     	
  8868                           _Initialization:	
  8869  0013                     ;incstack = 0
  8870                           	opt	stack 6
  8871                           ; Regs used in _Initialization: [wreg+status,2+status,0+pclath+cstack]
  8872                           	line	17
  8873                           	
  8874                           l2057:	
  8875  0013                     ;Hormiga877.c: 17:     ADCON0 = 0x81;
  8876                           	movlw	low(081h)
  8877  0013  3081               	bcf	status, 5	;RP0=0, select bank0
  8878  0014  1283               	bcf	status, 6	;RP1=0, select bank0
  8879  0015  1303               	movwf	(31)	;volatile
  8880  0016  009F               	line	18
  8881                           ;Hormiga877.c: 18:     ADCON1 = 0xC2;
  8882                           	movlw	low(0C2h)
  8883  0017  30C2               	bsf	status, 5	;RP0=1, select bank1
  8884  0018  1683               	bcf	status, 6	;RP1=0, select bank1
  8885  0019  1303               	movwf	(159)^080h	;volatile
  8886  001A  009F               	line	20
  8887                           # 20 "Hormiga877.c"
  8888                           CLRF PORTA ;# 
  8889  001B  0185               	line	21
  8890                           # 21 "Hormiga877.c"
  8891                           MOVLW 0x3F ;# 
  8892  001C  303F               	line	22
  8893                           # 22 "Hormiga877.c"
  8894                           MOVWF TRISA ;# 
  8895  001D  0085               psect	text21
  8896                           	line	23
  8897                           	
  8898                           l2059:	
  8899  001E                     ;Hormiga877.c: 23:     PORTB = 0x00;
  8900                           	bcf	status, 5	;RP0=0, select bank0
  8901  001E  1283               	bcf	status, 6	;RP1=0, select bank0
  8902  001F  1303               	clrf	(6)	;volatile
  8903  0020  0186               	line	24
  8904                           	
  8905                           l2061:	
  8906  0021                     ;Hormiga877.c: 24:     TRISB &= 0x00;
  8907                           	bsf	status, 5	;RP0=1, select bank1
  8908  0021  1683               	bcf	status, 6	;RP1=0, select bank1
  8909  0022  1303               	clrf	(134)^080h	;volatile
  8910  0023  0186               	line	25
  8911                           	
  8912                           l2063:	
  8913  0024                     ;Hormiga877.c: 25:     PORTB = 0x00;
  8914                           	bcf	status, 5	;RP0=0, select bank0
  8915  0024  1283               	bcf	status, 6	;RP1=0, select bank0
  8916  0025  1303               	clrf	(6)	;volatile
  8917  0026  0186               	line	27
  8918                           	
  8919                           l2065:	
  8920  0027                     ;Hormiga877.c: 27:     PORTC = 0x00;
  8921                           	clrf	(7)	;volatile
  8922  0027  0187               	line	28
  8923                           	
  8924                           l2067:	
  8925  0028                     ;Hormiga877.c: 28:     TRISC = 0x00;
  8926                           	bsf	status, 5	;RP0=1, select bank1
  8927  0028  1683               	bcf	status, 6	;RP1=0, select bank1
  8928  0029  1303               	clrf	(135)^080h	;volatile
  8929  002A  0187               	line	29
  8930                           	
  8931                           l2069:	
  8932  002B                     ;Hormiga877.c: 29:     PORTC = 0x00;
  8933                           	bcf	status, 5	;RP0=0, select bank0
  8934  002B  1283               	bcf	status, 6	;RP1=0, select bank0
  8935  002C  1303               	clrf	(7)	;volatile
  8936  002D  0187               	line	34
  8937                           	
  8938                           l2071:	
  8939  002E                     ;Hormiga877.c: 34:     PWMConfiguration();
  8940                           	fcall	_PWMConfiguration
  8941  002E  120A  118A  2004  120A  118A  	line	36
  8942                           # 36 "Hormiga877.c"
  8943                           CLRF PORTD ;# 
  8944  0033  0188               	line	37
  8945                           # 37 "Hormiga877.c"
  8946                           MOVLW 0x00 ;# 
  8947  0034  3000               	line	38
  8948                           # 38 "Hormiga877.c"
  8949                           MOVF TRISD ;# 
  8950  0035  0888               	line	39
  8951                           # 39 "Hormiga877.c"
  8952                           CLRF PORTD ;# 
  8953  0036  0188               psect	text21
  8954                           	line	40
  8955                           	
  8956                           l2073:	
  8957  0037                     ;Hormiga877.c: 40:     PORTE = 0x00;
  8958                           	bcf	status, 5	;RP0=0, select bank0
  8959  0037  1283               	bcf	status, 6	;RP1=0, select bank0
  8960  0038  1303               	clrf	(9)	;volatile
  8961  0039  0189               	line	41
  8962                           	
  8963                           l2075:	
  8964  003A                     ;Hormiga877.c: 41:     TRISE = 0x07;
  8965                           	movlw	low(07h)
  8966  003A  3007               	bsf	status, 5	;RP0=1, select bank1
  8967  003B  1683               	bcf	status, 6	;RP1=0, select bank1
  8968  003C  1303               	movwf	(137)^080h	;volatile
  8969  003D  0089               	line	42
  8970                           	
  8971                           l264:	
  8972  003E                     	return
  8973  003E  0008               	opt stack 0
  8974                           GLOBAL	__end_of_Initialization
  8975                           	__end_of_Initialization:
  8976  003F                     	signat	_Initialization,89
  8977                           	global	_PWMConfiguration
  8978                           
  8979 ;; *************** function _PWMConfiguration *****************
  8980 ;; Defined at:
  8981 ;;		line 44 in file "Hormiga877.c"
  8982 ;; Parameters:    Size  Location     Type
  8983 ;;		None
  8984 ;; Auto vars:     Size  Location     Type
  8985 ;;		None
  8986 ;; Return value:  Size  Location     Type
  8987 ;;                  1    wreg      void 
  8988 ;; Registers used:
  8989 ;;		wreg, status,2
  8990 ;; Tracked objects:
  8991 ;;		On entry : 0/0
  8992 ;;		On exit  : 0/0
  8993 ;;		Unchanged: 0/0
  8994 ;; Data sizes:     COMMON   BANK0   BANK1   BANK3   BANK2
  8995 ;;      Params:         0       0       0       0       0
  8996 ;;      Locals:         0       0       0       0       0
  8997 ;;      Temps:          0       0       0       0       0
  8998 ;;      Totals:         0       0       0       0       0
  8999 ;;Total ram usage:        0 bytes
  9000 ;; Hardware stack levels used:    1
  9001 ;; This function calls:
  9002 ;;		Nothing
  9003 ;; This function is called by:
  9004 ;;		_Initialization
  9005 ;; This function uses a non-reentrant model
  9006 ;;
  9007                           psect	text22,local,class=CODE,delta=2,merge=1,group=0
  9008                           	line	44
  9009                           global __ptext22
  9010                           __ptext22:	;psect for function _PWMConfiguration
  9011  0004                     psect	text22
  9012                           	file	"Hormiga877.c"
  9013                           	line	44
  9014                           	global	__size_of_PWMConfiguration
  9015                           	__size_of_PWMConfiguration	equ	__end_of_PWMConfiguration-_PWMConfiguration
  9016  000F                     	
  9017                           _PWMConfiguration:	
  9018  0004                     ;incstack = 0
  9019                           	opt	stack 6
  9020                           ; Regs used in _PWMConfiguration: [wreg+status,2]
  9021                           	line	46
  9022                           	
  9023                           l1957:	
  9024  0004                     ;Hormiga877.c: 46:     PR2 = 0xFF;
  9025                           	movlw	low(0FFh)
  9026  0004  30FF               	bsf	status, 5	;RP0=1, select bank1
  9027  0005  1683               	bcf	status, 6	;RP1=0, select bank1
  9028  0006  1303               	movwf	(146)^080h	;volatile
  9029  0007  0092               	line	47
  9030                           ;Hormiga877.c: 47:     T2CON = 0x05;
  9031                           	movlw	low(05h)
  9032  0008  3005               	bcf	status, 5	;RP0=0, select bank0
  9033  0009  1283               	bcf	status, 6	;RP1=0, select bank0
  9034  000A  1303               	movwf	(18)	;volatile
  9035  000B  0092               	line	48
  9036                           	
  9037                           l1959:	
  9038  000C                     ;Hormiga877.c: 48:     CCPR2L = 0x00;
  9039                           	clrf	(27)	;volatile
  9040  000C  019B               	line	49
  9041                           	
  9042                           l1961:	
  9043  000D                     ;Hormiga877.c: 49:     CCPR1L = 0x00;
  9044                           	clrf	(21)	;volatile
  9045  000D  0195               	line	50
  9046                           ;Hormiga877.c: 50:     CCP1CON = 0x0C;
  9047                           	movlw	low(0Ch)
  9048  000E  300C               	movwf	(23)	;volatile
  9049  000F  0097               	line	51
  9050                           ;Hormiga877.c: 51:     CCP2CON = 0x0C;
  9051                           	movlw	low(0Ch)
  9052  0010  300C               	movwf	(29)	;volatile
  9053  0011  009D               	line	52
  9054                           	
  9055                           l267:	
  9056  0012                     	return
  9057  0012  0008               	opt stack 0
  9058                           GLOBAL	__end_of_PWMConfiguration
  9059                           	__end_of_PWMConfiguration:
  9060  0013                     	signat	_PWMConfiguration,89
  9061                           global	___latbits
  9062                           ___latbits	equ	2
  9063  0002                     	global	btemp
  9064                           	btemp set 07Eh
  9065  007E                     
  9066                           	DABS	1,126,2	;btemp
  9067                           	global	wtemp0
  9068                           	wtemp0 set btemp+0
  9069  007E                     	end


Data Sizes:
    Strings     0
    Constant    0
    Data        4
    BSS         14
    Persistent  0
    Stack       0

Auto Spaces:
    Space          Size  Autos    Used
    COMMON           14     14      14
    BANK0            80     59      77
    BANK1            80      0       0
    BANK3            96      0       0
    BANK2            96      0       0

Pointer List with Targets:

    None.

Critical Paths under _main in COMMON

    _main->_setup
    _setup->_SerialBegin
    _USBegin->_digitalWrite
    _USBegin->_pinMode
    _SerialBegin->___aldiv
    _USRead->___xxtofl
    ___fltol->___xxtofl
    ___fldiv->___xxtofl
    _PBRead->_delay

Critical Paths under _main in BANK0

    _main->_loop
    _setup->_SerialBegin
    _SerialBegin->___aldiv
    _loop->_ProcessCommand
    _ProcessCommand->_USRead
    _USRead->___fltol
    ___fltol->___fldiv

Critical Paths under _main in BANK1

    None.

Critical Paths under _main in BANK3

    None.

Critical Paths under _main in BANK2

    None.

Call Graph Tables:

 ---------------------------------------------------------------------------------
 (Depth) Function   	        Calls       Base Space   Used Autos Params    Refs
 ---------------------------------------------------------------------------------
 (0) _main                                                 0     0      0   12101
                     _Initialization
                               _loop
                              _setup
 ---------------------------------------------------------------------------------
 (1) _setup                                                1     1      0    5068
                                             13 COMMON     1     1      0
                        _SerialBegin
                         _SerialRead
                        _SerialWrite
                            _USBegin
                       _digitalWrite
                            _pinMode
 ---------------------------------------------------------------------------------
 (2) _USBegin                                              2     1      1    2198
                                              4 COMMON     2     1      1
                       _digitalWrite
                            _pinMode
 ---------------------------------------------------------------------------------
 (2) _SerialBegin                                         10     6      4     792
                                              9 COMMON     4     4      0
                                              6 BANK0      6     2      4
                            ___aldiv
 ---------------------------------------------------------------------------------
 (3) ___aldiv                                             15     7      8     604
                                              0 COMMON     9     1      8
                                              0 BANK0      6     6      0
 ---------------------------------------------------------------------------------
 (1) _loop                                                 7     7      0    7033
                                             52 BANK0      7     7      0
                     _ProcessCommand
                    _SerialAvailable
                         _SerialRead
                        _SerialWrite
 ---------------------------------------------------------------------------------
 (2) _SerialWrite                                          1     1      0      22
                                              0 COMMON     1     1      0
 ---------------------------------------------------------------------------------
 (2) _SerialRead                                           0     0      0       0
 ---------------------------------------------------------------------------------
 (2) _SerialAvailable                                      1     1      0       8
                                              0 COMMON     1     1      0
 ---------------------------------------------------------------------------------
 (2) _ProcessCommand                                       8     5      3    6889
                                             44 BANK0      8     5      3
                             _PBRead
                             _USRead
                         _analogRead
                        _analogWrite
                        _digitalRead
                       _digitalWrite
                            _pinMode
 ---------------------------------------------------------------------------------
 (2) _pinMode                                              4     3      1     876
                                              0 COMMON     4     3      1
 ---------------------------------------------------------------------------------
 (3) _analogWrite                                          5     3      2     186
                                              0 COMMON     5     3      2
 ---------------------------------------------------------------------------------
 (3) _analogRead                                           5     3      2      22
                                              0 COMMON     5     3      2
 ---------------------------------------------------------------------------------
 (3) _USRead                                               7     5      2    3367
                                             37 BANK0      7     5      2
                            ___fldiv
                            ___fltol
                           ___xxtofl
                        _digitalRead
                       _digitalWrite
 ---------------------------------------------------------------------------------
 (2) _digitalWrite                                         4     3      1    1180
                                              0 COMMON     4     3      1
 ---------------------------------------------------------------------------------
 (3) _digitalRead                                          3     3      0      22
                                              0 COMMON     3     3      0
 ---------------------------------------------------------------------------------
 (4) ___xxtofl                                            14    10      4     398
                                              0 COMMON    14    10      4
 ---------------------------------------------------------------------------------
 (4) ___fltol                                             11     7      4     305
                                             26 BANK0     11     7      4
                            ___fldiv (ARG)
                           ___xxtofl (ARG)
 ---------------------------------------------------------------------------------
 (4) ___fldiv                                             26    18      8    1273
                                              0 BANK0     26    18      8
                           ___xxtofl (ARG)
 ---------------------------------------------------------------------------------
 (3) _PBRead                                               3     3      0     386
                                              7 COMMON     3     3      0
                              _delay
 ---------------------------------------------------------------------------------
 (4) _delay                                                7     5      2     364
                                              0 COMMON     7     5      2
 ---------------------------------------------------------------------------------
 (1) _Initialization                                       0     0      0       0
                   _PWMConfiguration
 ---------------------------------------------------------------------------------
 (2) _PWMConfiguration                                     0     0      0       0
 ---------------------------------------------------------------------------------
 Estimated maximum stack depth 4
 ---------------------------------------------------------------------------------

 Call Graph Graphs:

 _main (ROOT)
   _Initialization
     _PWMConfiguration
   _loop
     _ProcessCommand
       _PBRead
         _delay
       _USRead
         ___fldiv
           ___xxtofl (ARG)
         ___fltol
           ___fldiv (ARG)
             ___xxtofl (ARG)
           ___xxtofl (ARG)
         ___xxtofl
         _digitalRead
         _digitalWrite
       _analogRead
       _analogWrite
       _digitalRead
       _digitalWrite
       _pinMode
     _SerialAvailable
     _SerialRead
     _SerialWrite
   _setup
     _SerialBegin
       ___aldiv
     _SerialRead
     _SerialWrite
     _USBegin
       _digitalWrite
       _pinMode
     _digitalWrite
     _pinMode

 Address spaces:
Name               Size   Autos  Total    Cost      Usage
BANK3               60      0       0       9        0.0%
BITBANK3            60      0       0       8        0.0%
SFR3                 0      0       0       4        0.0%
BITSFR3              0      0       0       4        0.0%
BANK2               60      0       0      11        0.0%
BITBANK2            60      0       0      10        0.0%
SFR2                 0      0       0       5        0.0%
BITSFR2              0      0       0       5        0.0%
BANK1               50      0       0       7        0.0%
BITBANK1            50      0       0       6        0.0%
SFR1                 0      0       0       2        0.0%
BITSFR1              0      0       0       2        0.0%
BANK0               50     3B      4D       5       96.3%
BITBANK0            50      0       0       4        0.0%
SFR0                 0      0       0       1        0.0%
BITSFR0              0      0       0       1        0.0%
COMMON               E      E       E       1      100.0%
BITCOMMON            E      0       0       0        0.0%
CODE                 0      0       0       0        0.0%
DATA                 0      0      5B      12        0.0%
ABS                  0      0      5B       3        0.0%
NULL                 0      0       0       0        0.0%
STACK                0      0       0       2        0.0%
EEDATA             100      0       0       0        0.0%


Microchip Technology PIC Macro Assembler V2.00 build -1524193055 
Symbol Table                                                                                   Tue Aug 16 09:09:55 2022

             ___fldiv@aexp 0039               ___fldiv@bexp 0038               ___fldiv@sign 0031  
              __CFG_CP$OFF 0000                         l61 0BC0                         l70 010F  
                       l62 0B98                         l71 0045                         l63 0BBD  
                       l72 0124                         l80 00A5                         l64 0BBF  
                       l81 00AC                         l73 0069                         l65 0BC8  
                       l82 00B3                         l74 00A6                         l90 0125  
                       l66 0BD5                         l83 0103                         l75 006A  
                       l84 00B4                         l76 0082                         l93 05A4  
                       l69 0125                         l85 00C5                         l77 006D  
                       l94 0499                         l86 00E7                         l78 0090  
                       l95 04A4                         l87 0100                         l79 00A3  
                       l96 05CC                         l88 0102                         l97 05CC  
                       l89 0109                         l98 04B7                         l99 04C2  
              __CFG_LVP$ON 0000                        l100 04D8                        l101 04E3  
                      l110 0562                        l102 04F4                        l111 056C  
                      l103 0503                        l112 056B                        l104 0527  
                      l113 056D                        l105 0538                        l114 0584  
                      l106 0548                        l115 058F                        l107 0558  
                      l140 0CE3                        l300 0246                        l116 059B  
                      l108 0557                        l141 0CF1                        l117 059B  
                      l109 0559                        l310 0271                        l142 0CF6  
                      l303 0314                        l311 027A                        l143 0CF5  
                      l400 0C3C                        l320 02C3                        l312 0283  
                      l304 0249                        l144 0D03                        l136 0ADC  
                      l401 0BF2                        l305 0369                        l321 02CB  
                      l313 028B                        l145 0D56                        l402 0C08  
                      l322 02D3                        l314 0293                        l306 0251  
                      l330 0369                        l410 0E97                        l403 0C0B  
                      l323 02DB                        l315 029B                        l307 0259  
                      l139 0CE4                        l411 0E97                        l404 0C0C  
                      l340 038E                        l324 02E3                        l316 02A3  
                      l308 0261                        l260 0AA5                        l405 0C24  
                      l333 043D                        l341 0398                        l325 02EB  
                      l317 02AB                        l309 0269                        l261 0AA5  
                      l406 0C27                        l350 03E0                        l342 03A1  
                      l334 036C                        l326 02F3                        l318 02B3  
                      l430 0A8A                        l351 03EA                        l343 03A8  
                      l335 0492                        l327 02FB                        l319 02BB  
                      l431 0A8A                        l264 003E                        l336 0492  
                      l360 0435                        l352 03F2                        l344 03AF  
                      l328 0303                        l280 0150                        l432 0A91  
                      l353 03F9                        l345 03B6                        l337 0374  
                      l329 030B                        l273 01F1                        l281 0158  
                      l433 0A93                        l409 0E7F                        l354 0400  
                      l346 03BD                        l338 037E                        l370 0C54  
                      l290 01A0                        l282 0160                        l274 0128  
                      l267 0012                        l355 0409                        l347 03C6  
                      l339 0387                        l363 0CA9                        l371 0C5B  
                      l275 0246                        l291 01A8                        l283 0168  
                      l259 0A9F                        l356 0413                        l348 03D0  
                      l380 0C85                        l372 0C5B                        l364 0C3F  
                      l292 01B0                        l284 0170                        l276 0130  
                      l460 0A7E                        l357 041A                        l349 03D7  
                      l381 0C8A                        l373 0C60                        l365 0C46  
                      l293 01B8                        l285 0178                        l277 0138  
                      l461 0A85                        l358 0423                        l382 0C93  
                      l374 0C69                        l366 0C46                        l390 0B24  
                      l294 01C0                        l286 0180                        l278 0140  
                      l462 0A87                        l471 0B37                        l359 042D  
                      l383 0C9A                        l375 0C70                        l367 0C4B  
                      l391 0AF9                        l295 01C8                        l287 0188  
                      l279 0148                        l455 0ABD                        l631 0EAC  
                      l472 0B72                        l384 0C9A                        l376 0C70  
                      l368 0CC2                        l392 0B24                        l296 01D0  
                      l288 0190                        l456 0ABE                        l640 0F34  
                      l632 0EC0                        l473 0B48                        l369 0CC2  
                      l385 0C9F                        l377 0C75                        l297 01D8  
                      l289 0198                        l641 0F3D                        l633 0F23  
                      l474 0B5D                        l378 0C7E                        l298 01E0  
                      l634 0EE1                        l475 0B72                        l395 0C29  
                      l379 0C85                        l299 01E8                        l459 0A7E  
                      l635 0ED3                        l396 0BD8                        l388 0B14  
                      l636 0EE6                        l397 0BEE                        l389 0ADF  
                      l637 0EE7                        l398 0C3C                        l910 05F3  
                      l638 0F12                        l399 0BF1                        l911 05FF  
                      l751 0D76                        l639 0F22                        l920 0698  
                      l912 0610                        l760 0DD0                        l752 0DF2  
                      l921 06BF                        l913 0626                        l761 0DE1  
                      l753 0DBF                        l930 0741                        l922 06B5  
                      l914 0623                        l762 0DF2                        l754 0DAB  
                      l931 0738                        l923 06E1                        l915 062E  
                      l755 0DAC                        l932 0740                        l924 06ED  
                      l916 0650                        l908 05E0                        l756 0DBE  
                      l933 073F                        l925 06F7                        l917 07D5  
                      l909 05F6                        l757 0DE2                        l934 0779  
                      l926 0717                        l918 0667                        l758 0DCF  
                      l935 0778                        l927 06F8                        l919 06E6  
                      l759 0DDB                        l936 0795                        l928 0707  
                      l937 07B1                        l929 071C                        l938 07BD  
                      l939 07C1                        l980 0FA8                        l981 0F8D  
                      l973 0F58                        l982 0FAF                        l974 0F60  
                      l983 0FBC                        l975 0F72                        l984 0FB0  
                      l976 0FFF                        l977 0F85                        l986 0FC7  
                      l978 0F77                        l987 0FC7                        l979 0F8C  
                      l988 0FD3                        l989 0FF6                        _LED 006B  
                      _PR2 0092               __CFG_CPD$OFF 0000                        _Val 0067  
                      fsr0 0004                        indf 0000               __CFG_FOSC$HS 0000  
               _DataEnviar 0063               ___fltol@exp1 0044                       l3001 0EE7  
                     PORTA 0005                       l3011 0F1B                       l3003 0EF0  
                     PORTD 0008                       l2061 0021                       l3101 0ABB  
                     l3005 0F02                       l3013 0F23                       l3021 0DF3  
                     l2071 002E                       l2063 0024                       l3111 04A4  
                     l3103 0ABE                       l3015 0F28                       l3007 0F10  
                     l3031 0E66                       l3023 0DF6                       l2073 0037  
                     l2065 0027                       l2057 0013                       l2401 0374  
                     l3201 05A1                       l3121 04BD                       l3113 04AE  
                     l3105 0496                       l3017 0F34                       l3009 0F12  
                     l3041 0E72                       l3033 0E6A                       l3025 0E28  
                     l2075 003A                       l2067 0028                       l2059 001E  
                     l2411 0386                       l2403 037C                       l2331 0249  
                     l3203 05A2                       l3131 04D8                       l3123 04C2  
                     l3115 04B5                       l3107 0499                       l3019 0F3D  
                     l3051 0E7E                       l3043 0E75                       l3035 0E6B  
                     l3027 0E31                       l2069 002B                       l2501 03FF  
                     l2421 0396                       l2413 0387                       l2405 037D  
                     l2341 0271                       l2333 0251                       l3205 05A3  
                     l3141 04F4                       l3133 04DE                       l3125 04CC  
                     l3117 04B6                       l3109 049F                       l3301 010F  
                     l3061 0E8A                       l3045 0E78                       l3037 0E6E  
                     l3029 0E34                       l3053 0E7F                       l3221 0BA2  
                     l3213 0B73                       l2511 0411                       l2503 0400  
                     l2431 03A1                       l2423 0397                       l2415 038C  
                     l2407 037E                       l2351 028B                       l2343 0274  
                     l2335 0259                       l3151 051B                       l3143 0501  
                     l3135 04E3                       l3127 04D6                       l3119 04B7  
                     l3207 05A4                       l2327 0ABB                       l3071 0E96  
                     l3063 0E8B                       l3055 0E83                       l3047 0E7B  
                     l3039 0E71                       l3223 0BAC                       l3231 0BC0  
                     l3215 0B82                       l2601 0DD0                       l2521 041A  
                     l2513 0412                       l2505 0407                       l2441 03AE  
                     l2433 03A6                       l2425 0398                       l2417 038D  
                     l2409 0385                       l2361 02B3                       l2353 0293  
                     l2345 027A                       l2337 0261                       l2329 0248  
                     l3161 0537                       l3153 0525                       l3145 0502  
                     l3137 04F2                       l3129 04D7                       l3241 0045  
                     l3065 0E8E                       l3057 0E84                       l3049 0E7D  
                     l3081 0ACD                       l3073 0AC0                       l3233 0BC8  
                     l3225 0BB2                       l3217 0B8B                       l2611 05DA  
                     l2603 0DE2                       l2531 042C                       l2523 0421  
                     l2515 0413                       l2507 0408                       l2451 03BB  
                     l2443 03AF                       l2435 03A7                       l2427 039F  
                     l2419 038E                       l2371 02DB                       l2363 02BB  
                     l2355 029B                       l2347 027D                       l2339 0269  
                     l3171 0548                       l3163 0538                       l3155 0526  
                     l3147 0503                       l3139 04F3                       l3091 0A89  
                     l3251 006D                       l3243 005F                       l3067 0E91  
                     l3059 0E87                       l3083 0AD4                       l3075 0AC4  
                     l3235 0BCA                       l3227 0BBA                       l3219 0B98  
                     l3323 0A94                       l2701 0707                       l2621 05F3  
                     l2613 05DE                       l2605 0DE7                       l2541 043A  
                     l2533 042D                       l2525 0422                       l2517 0418  
                     l2509 0409                       l2461 03C6                       l2453 03BC  
                     l2445 03B4                       l2437 03A8                       l2429 03A0  
                     l2381 0303                       l2373 02E3                       l2365 02C3  
                     l2357 02A3                       l2349 0283                       l3181 0562  
                     l3173 054E                       l3165 053E                       l3157 0527  
                     l3149 0511                       l3085 0A7D                       l3093 0A91  
                     l3261 00A0                       l3253 007B                       l3245 0063  
                     l3069 0E94                       l3077 0AC5                       l3237 0BD1  
                     l3229 0BBD                       l3325 0A99                       l2711 0721  
                     l2703 0710                       l2631 060A                       l2623 05F4  
                     l2615 05E0                       l2607 05CD                       l2543 043B  
                     l2535 0433                       l2527 0423                       l2519 0419  
                     l2471 03D6                       l2463 03CE                       l2455 03BD  
                     l2447 03B5                       l2439 03AD                       l2383 030B  
                     l2375 02EB                       l2367 02CB                       l2359 02AB  
                     l3191 0583                       l3183 0568                       l3175 0556  
                     l3167 0546                       l3159 0536                       l3095 0AA8  
                     l3087 0A85                       l3271 00B4                       l3263 00A3  
                     l3255 0082                       l3247 0067                       l3239 003F  
                     l3079 0AC6                       l3327 0A9F                       l2561 0B39  
                     l2553 0B25                       l2721 0754                       l2713 0735  
                     l2705 0717                       l2641 0623                       l2633 060E  
                     l2617 05E5                       l2625 05F6                       l2609 05D4  
                     l2545 043C                       l2537 0434                       l2529 042B  
                     l2481 03E8                       l2473 03D7                       l2465 03CF  
                     l2457 03C4                       l2449 03B6                       l2393 036B  
                     l2385 0313                       l2377 02F3                       l2369 02D3  
                     l2801 0140                       l3193 0584                       l3185 056D  
                     l3177 0559                       l3169 0547                       l3097 0AB0  
                     l3089 0A87                       l3281 00D9                       l3273 00B6  
                     l3257 0090                       l3249 006A                       l3265 00A6  
                     l2563 0B47                       l2555 0B27                       l2731 0795  
                     l2723 0758                       l2715 073C                       l2707 071C  
                     l2651 0646                       l2643 0624                       l2635 0610  
                     l2627 05FF                       l2619 05EA                       l2571 0D57  
                     l2539 0435                       l2491 03F2                       l2483 03E9  
                     l2475 03DE                       l2467 03D0                       l2459 03C5  
                     l2395 036C                       l2547 043D                       l2379 02FB  
                     l2387 0314                       l3531 0CB1                       l2811 0168  
                     l2803 0148                       l3195 058A                       l3187 057D  
                     l3179 055F                       l3099 0AB4                       l3523 0119  
                     l3291 0100                       l3275 00C4                       l3283 00E7  
                     l3267 00AC                       l3259 009A                       l2565 0B49  
                     l2557 0B36                       l2741 07BB                       l2733 07A4  
                     l2725 0771                       l2717 0741                       l2709 071D  
                     l2661 0667                       l2653 064F                       l2637 0615  
                     l2645 0626                       l2629 0604                       l2581 0D8C  
                     l2573 0D6C                       l2493 03F7                       l2485 03EA  
                     l2477 03DF                       l2469 03D5                       l2397 0372  
                     l3533 031C                       l2901 0AF9                       l2821 0190  
                     l2813 0170                       l2805 0150                       l3525 05AC  
                     l3197 058F                       l3189 0582                       l3285 00ED  
                     l3277 00C5                       l3293 0103                       l3269 00AE  
                     l2567 0B4F                       l2559 0B37                       l2743 07BD  
                     l2735 07A8                       l2719 0746                       l2727 0779  
                     l2671 0698                       l2663 067E                       l2647 0636  
                     l2655 0650                       l2639 061A                       l2591 0DAA  
                     l2583 0D94                       l2575 0D75                       l2751 0F44  
                     l3535 0445                       l2495 03F8                       l2487 03F0  
                     l2479 03E0                       l2399 0373                       l2903 0B07  
                     l3527 01F9                       l2831 01B8                       l2823 0198  
                     l2815 0178                       l2807 0158                       l3199 0596  
                     l3295 0109                       l3287 00F7                       l3279 00D1  
                     l1961 000D                       l2569 0B5D                       l3537 0C31  
                     l2921 0BEC                       l2745 07CC                       l2737 07B0  
                     l2729 0786                       l2673 069D                       l2681 06BF  
                     l2665 0686                       l2657 0655                       l2649 0642  
                     l2593 0DAC                       l2585 0D96                       l2577 0D76  
                     l2761 0F72                       l2753 0F48                       l2497 03F9  
                     l2489 03F1                       l3529 0B1C                       l2905 0B08  
                     l2841 01E0                       l2833 01C0                       l2825 01A0  
                     l2817 0180                       l2809 0160                       l3297 010B  
                     l3289 00FD                       l2931 0C01                       l2923 0BED  
                     l2915 0BD7                       l2747 07D5                       l2739 07B7  
                     l2691 06ED                       l2683 06D1                       l2675 06AF  
                     l2667 068E                       l2659 0666                       l2587 0D9A  
                     l2595 0DBF                       l2579 0D8B                       l2771 0F9F  
                     l2763 0F77                       l2755 0F58                       l2499 03FE  
                     l2907 0B13                       l2843 01E8                       l2835 01C8  
                     l2827 01A8                       l2819 0188                       l3299 010E  
                     l1957 0004                       l2941 0C12                       l2933 0C06  
                     l2917 0BDE                       l2925 0BEE                       l2693 06F5  
                     l2685 06D2                       l2677 06B3                       l2669 0696  
                     l2597 0DC5                       l2589 0DA1                       l2781 0FD5  
                     l2773 0FB0                       l2765 0F85                       l2757 0F68  
                     l2749 0F3F                       l2861 0C60                       l2853 0C3E  
                     l2909 0B14                       l2845 01F0                       l2837 01D0  
                     l2829 01B0                       l1959 000C                       l2951 0C26  
                     l2943 0C1B                       l2935 0C07                       l2927 0BF0  
                     l2919 0BE7                       l2695 06F8                       l2687 06E1  
                     l2679 06B5                       l2599 0DCE                       l2791 0FFF  
                     l2783 0FEB                       l2775 0FBC                       l2767 0F8D  
                     l2759 0F71                       l2871 0C7D                       l2863 0C67  
                     l2855 0C4B                       l2839 01D8                       l2847 01F1  
                     l2953 0C28                       l2945 0C22                       l2929 0BF8  
                     l2937 0C08                       l2697 0701                       l2689 06E6  
                     l2785 0FF0                       l2777 0FC0                       l2769 0F91  
                     l2961 0CC6                       l2881 0CA6                       l2873 0C8A  
                     l2865 0C68                       l2857 0C52                       l2793 0127  
                     l2947 0C23                       l2939 0C0A                       l2955 0C29  
                     l2699 0705                       l2787 0FF4                       l2779 0FCB  
                     l2971 0CF6                       l2963 0CCA                       l2883 0CA7  
                     l2875 0C91                       l2867 0C75                       l2859 0C53  
                     l2795 0128                       l2949 0C24                       l2789 0FF6  
                     l2973 0D06                       l2965 0CD2                       l2885 0CA8  
                     l2877 0C92                       l2869 0C7C                       l2893 0ADE  
                     l2797 0130                       l2981 0E98                       l2975 0D4B  
                     l2967 0CD9                       l2879 0C9F                       l2887 0CA9  
                     l2895 0ADF                       l2799 0138                       l2991 0EC0  
                     l2983 0E9B                       l2977 0D51                       l2969 0CE4  
                     l2897 0AED                       l2993 0EC8                       l2985 0E9F  
                     l2979 0D56                       l2899 0AEE                       l2995 0ED0  
                     l2987 0EB0                       TRISA 0085                       l2997 0ED3  
                     l2989 0EBB                       TRISD 0088                       l2999 0EE1  
                     _BRGH 04C2                       _CREN 00C4                       _FERR 00C2  
                     u2000 0F02                       u2001 0F01                       u1300 0DA1  
                     u2100 0AB4                       u2020 0F21                       u1301 0DA0  
                     u2101 0AB3                       u2021 0F20                       u2005 0EFE  
                     u1230 0B35                       u2110 0ABA                       u2030 0F28  
                     u1231 0B34                       u2111 0AB9                       u2031 0F27  
                     u2015 0F13                       u1240 0B46                       u1400 060E  
                     u1320 0DBD                       u2200 0596                       u2120 049F  
                     u2040 0E06                       u1241 0B45                       u1401 060D  
                     u1321 0DBC                       u2201 0595                       u2121 049E  
                     u1250 0B5C                       u1410 0615                       u1330 0DC5  
                     u2130 04BD                       u2050 0E31                       u2210 0BBA  
                     u1251 0B5B                       u1235 0B31                       u1411 0614  
                     u1331 0DC4                       u1315 0DAD                       u2131 04BC  
                     u2051 0E30                       u2211 0BB9                       u1260 0B71  
                     u1500 06D1                       u1420 061A                       u2140 04DE  
                     u2060 0E44                       u2220 0BC7                       u1261 0B70  
                     u1245 0B42                       u1501 06D0                       u1421 0619  
                     u2141 04DD                       u2045 0E01                       u2221 0BC6  
                     u1510 06EC                       u1430 0636                       u1350 0DE0  
                     u1270 0D6C                       u2150 053E                       u2070 0A84  
                     u2230 008F                       u1255 0B58                       u1511 06EB  
                     u1431 0635                       u1351 0DDF                       u1271 0D6B  
                     u2151 053D                       u2071 0A83                       u2231 008E  
                     u1600 0746                       u1520 06F5                       u1440 0655  
                     u1360 0DE7                       u1280 0D84                       u2160 054E  
                     u2080 0A90                       u2240 00A0                       u1265 0B6D  
                     u1601 0745                       u1521 06F4                       u1505 06CD  
                     u1441 0654                       u1361 0DE6                       u1345 0DD2  
                     u2161 054D                       u2081 0A8F                       u2241 009F  
                     u2065 0E3F                       u1610 0758                       u1450 069D  
                     u1370 05DE                       u1290 0D9A                       u2170 055F  
                     u2090 0AB0                       u2250 00AB                       u1611 0757  
                     u1451 069C                       u1371 05DD                       u1291 0D99  
                     u2171 055E                       u2091 0AAF                       u2251 00AA  
                     u2235 008B                       u1620 0767                       u1540 0705  
                     u1380 05E5                       u1700 0F8B                       u2180 0568  
                     u2260 00C3                       u1541 0704                       u1381 05E4  
                     u1285 0D7F                       u1701 0F8A                       u2181 0567  
                     u2261 00C2                       u1630 0786                       u1390 05EA  
                     u2190 058A                       u2270 00E6                       u1631 0785  
                     u1535 06FA                       u1391 05E9                       u2191 0589  
                     u2271 00E5                       u1640 07A4                       u1560 071B  
                     u1480 06B3                       u1720 0FAE                       u1800 0C4A  
                     u2280 00FD                       u1641 07A3                       u1625 0762  
                     u1561 071A                       u1481 06B2                       u1465 069F  
                     u1721 0FAD                       u1801 0C49                       u2281 00FC  
                     u2265 00BF                       u1650 07BB                       u1570 0721  
                     u1810 0C5F                       u2290 0108                       u1651 07BA  
                     u1635 0782                       u1571 0720                       u1555 0709  
                     u1475 06A8                       u1715 0FA0                       u1811 0C5E  
                     u2291 0107                       u2275 00E2                       u1900 0BF8  
                     u1580 0735                       u1740 0FC0                       u1660 0F44  
                     u1820 0C74                       u1901 0BF7                       u1645 07A0  
                     u1581 0734                       u1741 0FBF                       u1661 0F43  
                     u1821 0C73                       u1910 0C12                       u1590 073C  
                     u1750 0FC6                       u1670 0F48                       u1830 0C89  
                     u1911 0C11                       u1591 073B                       u1495 06B7  
                     u1751 0FC5                       u1735 0FB4                       u1671 0F47  
                     u2367 0CD6                       u1831 0C88                       u1760 0FCB  
                     u1680 0F68                       u1920 0CF1                       u1840 0C9E  
                     u1761 0FCA                       u1681 0F67                       u1921 0CF0  
                     u1841 0C9D                       u1770 0FE0                       u1930 0D03  
                     u1850 0AF5                       u1931 0D02                       u1851 0AF1  
                     u1780 0FF0                       u1940 0E9F                       u1781 0FEF  
                     u1941 0E9E                       u1790 0FF4                       u1870 0B0F  
                     u1950 0EB0                       u1791 0FF3                       u1775 0FDB  
                     u1695 0F7C                       u1871 0B0B                       u1951 0EAF  
                     u1864 0AF8                       u1960 0ED0                       u1961 0ECF  
                     u1890 0BDE                       u1891 0BDD                       u1884 0B12  
                     u1980 0EE5                       u1981 0EE4                       u1975 0ED5  
                     u1995 0EE9                       _RCIF 0065                       _OERR 00C1  
                     _SPEN 00C7                       _TRMT 04C1                       _TXEN 04C5  
                     _TXIF 0064                       _SYNC 04C4                       _Echo 0069  
                     _Dato 0061               __CFG_WRT$OFF 0000                       _dada 0065  
                     _main 0A94                       _loop 003F                       btemp 007E  
                     start 0000            __end_of_USBegin 0ADD            ___fldiv@new_exp 0032  
ProcessCommand@instruction 0051              ___fltol@sign1 0043            __end_of___aldiv 0F3E  
                    ?_main 0070                      _CCP1X 00BD            __end_of___fldiv 07D6  
                    _CCP1Y 00BC                      _CCP2X 00ED                      _CCP2Y 00EC  
                    ?_loop 0070              __CFG_WDTE$OFF 0000            __end_of___fltol 0DF3  
                    _T1CON 0010                      _T2CON 0012                      _RCREG 001A  
                    _TMR1H 000F                      _TMR1L 000E                      _SPBRG 0099  
                    _PORTB 0006                      _PORTC 0007                      _PORTD 0008  
                    _PORTE 0009                      _TRISB 0086                      _TRISC 0087  
                    _TRISD 0088                      _TRISE 0089                      _TXREG 0019  
                    _Valor 0066                      _delay 0B25            __end_of_pinMode 0247  
                    _setup 0B73             __CFG_BOREN$OFF 0000                      loop@i 0057  
                    loop@j 0059                      status 0003                      wtemp0 007E  
     __size_of_analogWrite 0048       __end_of_digitalWrite 036A            __initialization 07D6  
             __end_of_main 0AA8               __end_of_loop 0126    __size_of_Initialization 002C  
                   ??_main 007E                     ??_loop 0054       __size_of_digitalRead 0129  
         _PWMConfiguration 0004                     ?_delay 0070                     _ADCON0 001F  
                   _ADCON1 009F                     _ADRESH 001E                     _ADRESL 009E  
                   _CCPR1L 0015                     _CCPR2L 001B                     ?_setup 0070  
                ??_USBegin 0075              ??_SerialBegin 0079                     _PBRead 0BD6  
          _SerialAvailable 0AA8                     _TMR1ON 0080        SerialBegin@BaudRate 0026  
                   _TRISC6 043E                     _TRISC7 043F           __end_of___xxtofl 1000  
            ??_SerialWrite 0070                     _USRead 0CC3                 _SerialRead 0A7D  
           __CFG_PWRTE$OFF 0000                     _Estado 0068                  ??___aldiv 0078  
                ??___fldiv 0028                  ??___fltol 003E                     _buffer 005F  
                   delay@i 0075                     delay@j 0073          analogRead@channel 0074  
                ??_pinMode 0071         ProcessCommand@data 0052         ProcessCommand@port 004C  
            USRead@trigger 004B               ___xxtofl@arg 007A               ___xxtofl@exp 0079  
             ___xxtofl@val 0070    __end_of__initialization 07FC                 ___fltol@f1 003A  
              pinMode@mode 0070        __end_of_SerialBegin 0E98             __pcstackCOMMON 0070  
             __pidataBANK0 0A79              __end_of_delay 0B73        __end_of_SerialWrite 0A94  
            __end_of_setup 0BD6                _Informacion 005B    __size_of_ProcessCommand 013A  
  __end_of_SerialAvailable 0ABF                    ??_delay 0072                    ??_setup 007D  
               __pbssBANK0 005B                    ?_PBRead 0070      __size_of_digitalWrite 0123  
     SerialWrite@dataWrite 0070                 _analogRead 0C3D                    ?_USRead 0045  
              ?_SerialRead 0070                 __pmaintext 0A94                  PBRead@pin 0079  
           _Initialization 0013                    _CCP1CON 0017                    _CCP2CON 001D  
                ?___xxtofl 0070               _digitalWrite 0247               _BufferLenght 006C  
                  _USBegin 0ABF                _SerialBegin 0DF3            __size_of_PBRead 0067  
              _SerialWrite 0A88            __size_of_USRead 0094     __end_of_Initialization 003F  
 __end_of_PWMConfiguration 0013                    _Trigger 006A                    ___aldiv 0E98  
                  ___fldiv 05CD                    ___fltol 0D57                    __ptext1 0B73  
                  __ptext2 0ABF                    __ptext3 0DF3                    __ptext4 0E98  
                  __ptext5 003F                    __ptext6 0A88                    __ptext7 0A7D  
                  __ptext8 0AA8                    __ptext9 0493                 ??___xxtofl 0074  
                  _pinMode 0126                 delay@milis 0070           ___aldiv@dividend 0074  
      __size_of_SerialRead 000B           ?_SerialAvailable 0070       end_of_initialization 07FC  
            ??_analogWrite 0072             digitalRead@pin 0072                ?_analogRead 0070  
          ?_Initialization 0070           ___aldiv@quotient 0022              ??_digitalRead 0070  
                _PORTAbits 0005                  _PORTBbits 0006                  _PORTCbits 0007  
                _PORTDbits 0008                  _PORTEbits 0009             _ProcessCommand 0493  
            ___xxtofl@sign 0078                  _TRISAbits 0085                  _TRISBbits 0086  
                _TRISCbits 0087                  _TRISDbits 0088                ___fldiv@grs 0034  
              ___fldiv@rem 002D             __end_of_PBRead 0C3D             __end_of_USRead 0D57  
      __end_of_analogWrite 0B25     __end_of_ProcessCommand 05CD        __size_of_analogRead 0086  
      start_initialization 07D6        __end_of_digitalRead 0493                   ??_PBRead 0077  
                 ??_USRead 0047               ??_SerialRead 0070               USRead@buffer 0049  
              __pdataBANK0 0069            ?_ProcessCommand 004C             USBegin@trigger 0075  
                ___fldiv@a 0020                  ___fldiv@b 0024                  ___latbits 0002  
            __pcstackBANK0 0020                 pinMode@pin 0073         __end_of_SerialRead 0A88  
        __size_of___xxtofl 00C2                   ?_USBegin 0074               ?_SerialBegin 0026  
              _analogWrite 0ADD               ?_SerialWrite 0070          ?_PWMConfiguration 0070  
                 ?___aldiv 0070                   ?___fldiv 0020               SerialBegin@x 002A  
                 ?___fltol 003A         ??_PWMConfiguration 0070                _digitalRead 036A  
                 ?_pinMode 0070                USBegin@echo 0074             __size_of_delay 004E  
           __size_of_setup 0063            ___aldiv@divisor 0070           ??_Initialization 0070  
          ___aldiv@counter 0020               ??_analogRead 0072                 _ADCON0bits 001F  
       __end_of_analogRead 0CC3      ProcessCommand@LSBData 004E      ProcessCommand@MSBData 004D  
         __size_of_USBegin 001E   __size_of_SerialAvailable 0017           __size_of___aldiv 00A6  
         __size_of___fldiv 0209           __size_of___fltol 009C                   ___xxtofl 0F3E  
         __size_of_pinMode 0121                   __ptext10 0126                   __ptext11 0ADD  
                 __ptext20 0B25                   __ptext12 0C3D                   __ptext21 0013  
                 __ptext13 0CC3                   __ptext22 0004                   __ptext14 0247  
                 __ptext15 036A                   __ptext16 0F3E                   __ptext17 0D57  
                 __ptext18 05CD                   __ptext19 0BD6              __size_of_main 0014  
            __size_of_loop 00E7       __size_of_SerialBegin 00A5           ??_ProcessCommand 004F  
     __size_of_SerialWrite 000C           analogWrite@value 0070              ?_digitalWrite 0070  
               USRead@echo 0045          digitalWrite@value 0070               ?_analogWrite 0070  
        ??_SerialAvailable 0070        _SerialAvailable$528 0070               ?_digitalRead 0070  
           ??_digitalWrite 0071               ___aldiv@sign 0021  __size_of_PWMConfiguration 000F  
           analogWrite@pin 0074            digitalWrite@pin 0073  
