

Microchip Technology PIC LITE Macro Assembler V2.00 build -1524193055 
                                                                                               Fri Nov 22 17:42:29 2019

Microchip Technology Omniscient Code Generator v2.00 (Free mode) build 20180527130849
     1  0000                     
      + 0000                     
     2                           ; Version 2.00
     3                           ; Generated 27/05/2018 GMT
     4                           
     5                           ; 
     6                           ; Copyright © 2018, Microchip Technology Inc. and its subsidiaries ("Microchip")
     7                           ; All rights reserved.
     8                           ; 
     9                           ; This software is developed by Microchip Technology Inc. and its subsidiaries ("Microch
                                 ip").
    10                           ; 
    11                           ; Redistribution and use in source and binary forms, with or without modification, are
    12                           ; permitted provided that the following conditions are met:
    13                           ; 
    14                           ;     1. Redistributions of source code must retain the above copyright notice, this lis
                                 t of
    15                           ;        conditions and the following disclaimer.
    16                           ; 
    17                           ;     2. Redistributions in binary form must reproduce the above copyright notice, this 
                                 list
    18                           ;        of conditions and the following disclaimer in the documentation and/or other
    19                           ;        materials provided with the distribution.
    20                           ; 
    21                           ;     3. Microchip's name may not be used to endorse or promote products derived from th
                                 is
    22                           ;        software without specific prior written permission.
    23                           ; 
    24                           ; THIS SOFTWARE IS PROVIDED BY MICROCHIP "AS IS" AND ANY EXPRESS OR IMPLIED WARRANTIES,

    25                           ; INCLUDING, BUT NOT LIMITED TO, THE IMPLIED WARRANTIES OF MERCHANTABILITY AND FITNESS F
                                 OR
    26                           ; PURPOSE ARE DISCLAIMED.  IN NO EVENT SHALL MICROCHIP BE LIABLE FOR ANY DIRECT, INDIREC
                                 T,
    27                           ; INCIDENTAL, SPECIAL, EXEMPLARY, OR CONSEQUENTIAL DAMAGES (INCLUDING BUT NOT LIMITED TO
                                 
    28                           ; PROCUREMENT OF SUBSTITUTE GOODS OR SERVICES; LOSS OF USE, DATA OR PROFITS; OR BUSINESS
                                 
    29                           ; INTERRUPTION) HOWSOEVER CAUSED AND ON ANY THEORY OF LIABILITY, WHETHER IN CONTRACT, ST
                                 RICT
    30                           ; LIABILITY, OR TORT (INCLUDING NEGLIGENCE OR OTHERWISE) ARISING IN ANY WAY OUT OF THE U
                                 SE OF
    31                           ; THIS SOFTWARE, EVEN IF ADVISED OF THE POSSIBILITY OF SUCH DAMAGE.
    32                           ; 
    33                           
    34                           
    35                           ; 
    36                           ; Code-generator required, PIC16F877A Definitions
    37                           ; 
    38  0004                     fsr0 equ 04h
    39  0004                     indf equ 00h
    40  0000                     indf0 equ 00h
    41  0000                     pc equ 02h
    42  0002                     pcl equ 02h
    43  0002                     pclath equ 0Ah
    44  000A                     status equ 03h
    45  0003                     
     2                           opt pagewidth 120
     3  0000                     byte0	macro	val
     4                           	(getbyte(val,0))
     5                           endm
     6  0000                     byte1	macro	val
     7                           	(getbyte(val,1))
     8                           endm
     9  0000                     byte2	macro	val
    10                           	(getbyte(val,2))
    11                           endm
    12  0000                     byte3	macro	val
    13                           	(getbyte(val,3))
    14                           endm
    15  0000                     byte4	macro	val
    16                           	(getbyte(val,4))
    17                           endm
    18  0000                     byte5	macro	val
    19                           	(getbyte(val,5))
    20                           endm
    21  0000                     byte6	macro	val
    22                           	(getbyte(val,6))
    23                           endm
    24  0000                     byte7	macro	val
    25                           	(getbyte(val,7))
    26                           endm
    27  0000                     getword	macro	val,pos
    28                           	(((val) >> (8 * pos)) and 0xffff)
    29                           endm
    30  0000                     word0	macro	val
    31                           	(getword(val,0))
    32                           endm
    33  0000                     word1	macro	val
    34                           	(getword(val,2))
    35                           endm
    36  0000                     word2	macro	val
    37                           	(getword(val,4))
    38                           endm
    39  0000                     word3	macro	val
    40                           	(getword(val,6))
    41                           endm
    42  0000                     gettword	macro	val,pos
    43                           	(((val) >> (8 * pos)) and 0xffffff)
    44                           endm
    45  0000                     tword0	macro	val
    46                           	(gettword(val,0))
    47                           endm
    48  0000                     tword1	macro	val
    49                           	(gettword(val,3))
    50                           endm
    51  0000                     tword2	macro	val
    52                           	(gettword(val,6))
    53                           endm
    54  0000                     getdword	macro	val,pos
    55                           	(((val) >> (8 * pos)) and 0xffffffff)
    56                           endm
    57  0000                     dword0	macro	val
    58                           	(getdword(val,0))
    59                           endm
    60  0000                     dword1	macro	val
    61                           	(getdword(val,4))
    62                           endm
    63  0000                     clrc	macro
    64                           	bcf	3,0
    65                           	endm
    66  0000                     clrz	macro
    67                           	bcf	3,2
    68                           	endm
    69  0000                     setc	macro
    70                           	bsf	3,0
    71                           	endm
    72  0000                     setz	macro
    73                           	bsf	3,2
    74                           	endm
    75  0000                     skipc	macro
    76                           	btfss	3,0
    77                           	endm
    78  0000                     skipz	macro
    79                           	btfss	3,2
    80                           	endm
    81  0000                     skipnc	macro
    82                           	btfsc	3,0
    83                           	endm
    84  0000                     skipnz	macro
    85                           	btfsc	3,2
    86                           	endm
    87  0000                     # 54 "C:\Program Files (x86)\Microchip\xc8\v2.00\pic\include\pic16f877a.h"
    88                           INDF equ 00h ;# 
    89  0000                     # 61 "C:\Program Files (x86)\Microchip\xc8\v2.00\pic\include\pic16f877a.h"
    90                           TMR0 equ 01h ;# 
    91  0001                     # 68 "C:\Program Files (x86)\Microchip\xc8\v2.00\pic\include\pic16f877a.h"
    92                           PCL equ 02h ;# 
    93  0002                     # 75 "C:\Program Files (x86)\Microchip\xc8\v2.00\pic\include\pic16f877a.h"
    94                           STATUS equ 03h ;# 
    95  0003                     # 161 "C:\Program Files (x86)\Microchip\xc8\v2.00\pic\include\pic16f877a.h"
    96                           FSR equ 04h ;# 
    97  0004                     # 168 "C:\Program Files (x86)\Microchip\xc8\v2.00\pic\include\pic16f877a.h"
    98                           PORTA equ 05h ;# 
    99  0005                     # 218 "C:\Program Files (x86)\Microchip\xc8\v2.00\pic\include\pic16f877a.h"
   100                           PORTB equ 06h ;# 
   101  0006                     # 280 "C:\Program Files (x86)\Microchip\xc8\v2.00\pic\include\pic16f877a.h"
   102                           PORTC equ 07h ;# 
   103  0007                     # 342 "C:\Program Files (x86)\Microchip\xc8\v2.00\pic\include\pic16f877a.h"
   104                           PORTD equ 08h ;# 
   105  0008                     # 404 "C:\Program Files (x86)\Microchip\xc8\v2.00\pic\include\pic16f877a.h"
   106                           PORTE equ 09h ;# 
   107  0009                     # 436 "C:\Program Files (x86)\Microchip\xc8\v2.00\pic\include\pic16f877a.h"
   108                           PCLATH equ 0Ah ;# 
   109  000A                     # 456 "C:\Program Files (x86)\Microchip\xc8\v2.00\pic\include\pic16f877a.h"
   110                           INTCON equ 0Bh ;# 
   111  000B                     # 534 "C:\Program Files (x86)\Microchip\xc8\v2.00\pic\include\pic16f877a.h"
   112                           PIR1 equ 0Ch ;# 
   113  000C                     # 596 "C:\Program Files (x86)\Microchip\xc8\v2.00\pic\include\pic16f877a.h"
   114                           PIR2 equ 0Dh ;# 
   115  000D                     # 636 "C:\Program Files (x86)\Microchip\xc8\v2.00\pic\include\pic16f877a.h"
   116                           TMR1 equ 0Eh ;# 
   117  000E                     # 643 "C:\Program Files (x86)\Microchip\xc8\v2.00\pic\include\pic16f877a.h"
   118                           TMR1L equ 0Eh ;# 
   119  000E                     # 650 "C:\Program Files (x86)\Microchip\xc8\v2.00\pic\include\pic16f877a.h"
   120                           TMR1H equ 0Fh ;# 
   121  000F                     # 657 "C:\Program Files (x86)\Microchip\xc8\v2.00\pic\include\pic16f877a.h"
   122                           T1CON equ 010h ;# 
   123  0010                     # 732 "C:\Program Files (x86)\Microchip\xc8\v2.00\pic\include\pic16f877a.h"
   124                           TMR2 equ 011h ;# 
   125  0011                     # 739 "C:\Program Files (x86)\Microchip\xc8\v2.00\pic\include\pic16f877a.h"
   126                           T2CON equ 012h ;# 
   127  0012                     # 810 "C:\Program Files (x86)\Microchip\xc8\v2.00\pic\include\pic16f877a.h"
   128                           SSPBUF equ 013h ;# 
   129  0013                     # 817 "C:\Program Files (x86)\Microchip\xc8\v2.00\pic\include\pic16f877a.h"
   130                           SSPCON equ 014h ;# 
   131  0014                     # 887 "C:\Program Files (x86)\Microchip\xc8\v2.00\pic\include\pic16f877a.h"
   132                           CCPR1 equ 015h ;# 
   133  0015                     # 894 "C:\Program Files (x86)\Microchip\xc8\v2.00\pic\include\pic16f877a.h"
   134                           CCPR1L equ 015h ;# 
   135  0015                     # 901 "C:\Program Files (x86)\Microchip\xc8\v2.00\pic\include\pic16f877a.h"
   136                           CCPR1H equ 016h ;# 
   137  0016                     # 908 "C:\Program Files (x86)\Microchip\xc8\v2.00\pic\include\pic16f877a.h"
   138                           CCP1CON equ 017h ;# 
   139  0017                     # 966 "C:\Program Files (x86)\Microchip\xc8\v2.00\pic\include\pic16f877a.h"
   140                           RCSTA equ 018h ;# 
   141  0018                     # 1061 "C:\Program Files (x86)\Microchip\xc8\v2.00\pic\include\pic16f877a.h"
   142                           TXREG equ 019h ;# 
   143  0019                     # 1068 "C:\Program Files (x86)\Microchip\xc8\v2.00\pic\include\pic16f877a.h"
   144                           RCREG equ 01Ah ;# 
   145  001A                     # 1075 "C:\Program Files (x86)\Microchip\xc8\v2.00\pic\include\pic16f877a.h"
   146                           CCPR2 equ 01Bh ;# 
   147  001B                     # 1082 "C:\Program Files (x86)\Microchip\xc8\v2.00\pic\include\pic16f877a.h"
   148                           CCPR2L equ 01Bh ;# 
   149  001B                     # 1089 "C:\Program Files (x86)\Microchip\xc8\v2.00\pic\include\pic16f877a.h"
   150                           CCPR2H equ 01Ch ;# 
   151  001C                     # 1096 "C:\Program Files (x86)\Microchip\xc8\v2.00\pic\include\pic16f877a.h"
   152                           CCP2CON equ 01Dh ;# 
   153  001D                     # 1154 "C:\Program Files (x86)\Microchip\xc8\v2.00\pic\include\pic16f877a.h"
   154                           ADRESH equ 01Eh ;# 
   155  001E                     # 1161 "C:\Program Files (x86)\Microchip\xc8\v2.00\pic\include\pic16f877a.h"
   156                           ADCON0 equ 01Fh ;# 
   157  001F                     # 1257 "C:\Program Files (x86)\Microchip\xc8\v2.00\pic\include\pic16f877a.h"
   158                           OPTION_REG equ 081h ;# 
   159  0081                     # 1327 "C:\Program Files (x86)\Microchip\xc8\v2.00\pic\include\pic16f877a.h"
   160                           TRISA equ 085h ;# 
   161  0085                     # 1377 "C:\Program Files (x86)\Microchip\xc8\v2.00\pic\include\pic16f877a.h"
   162                           TRISB equ 086h ;# 
   163  0086                     # 1439 "C:\Program Files (x86)\Microchip\xc8\v2.00\pic\include\pic16f877a.h"
   164                           TRISC equ 087h ;# 
   165  0087                     # 1501 "C:\Program Files (x86)\Microchip\xc8\v2.00\pic\include\pic16f877a.h"
   166                           TRISD equ 088h ;# 
   167  0088                     # 1563 "C:\Program Files (x86)\Microchip\xc8\v2.00\pic\include\pic16f877a.h"
   168                           TRISE equ 089h ;# 
   169  0089                     # 1620 "C:\Program Files (x86)\Microchip\xc8\v2.00\pic\include\pic16f877a.h"
   170                           PIE1 equ 08Ch ;# 
   171  008C                     # 1682 "C:\Program Files (x86)\Microchip\xc8\v2.00\pic\include\pic16f877a.h"
   172                           PIE2 equ 08Dh ;# 
   173  008D                     # 1722 "C:\Program Files (x86)\Microchip\xc8\v2.00\pic\include\pic16f877a.h"
   174                           PCON equ 08Eh ;# 
   175  008E                     # 1756 "C:\Program Files (x86)\Microchip\xc8\v2.00\pic\include\pic16f877a.h"
   176                           SSPCON2 equ 091h ;# 
   177  0091                     # 1818 "C:\Program Files (x86)\Microchip\xc8\v2.00\pic\include\pic16f877a.h"
   178                           PR2 equ 092h ;# 
   179  0092                     # 1825 "C:\Program Files (x86)\Microchip\xc8\v2.00\pic\include\pic16f877a.h"
   180                           SSPADD equ 093h ;# 
   181  0093                     # 1832 "C:\Program Files (x86)\Microchip\xc8\v2.00\pic\include\pic16f877a.h"
   182                           SSPSTAT equ 094h ;# 
   183  0094                     # 2001 "C:\Program Files (x86)\Microchip\xc8\v2.00\pic\include\pic16f877a.h"
   184                           TXSTA equ 098h ;# 
   185  0098                     # 2082 "C:\Program Files (x86)\Microchip\xc8\v2.00\pic\include\pic16f877a.h"
   186                           SPBRG equ 099h ;# 
   187  0099                     # 2089 "C:\Program Files (x86)\Microchip\xc8\v2.00\pic\include\pic16f877a.h"
   188                           CMCON equ 09Ch ;# 
   189  009C                     # 2159 "C:\Program Files (x86)\Microchip\xc8\v2.00\pic\include\pic16f877a.h"
   190                           CVRCON equ 09Dh ;# 
   191  009D                     # 2224 "C:\Program Files (x86)\Microchip\xc8\v2.00\pic\include\pic16f877a.h"
   192                           ADRESL equ 09Eh ;# 
   193  009E                     # 2231 "C:\Program Files (x86)\Microchip\xc8\v2.00\pic\include\pic16f877a.h"
   194                           ADCON1 equ 09Fh ;# 
   195  009F                     # 2290 "C:\Program Files (x86)\Microchip\xc8\v2.00\pic\include\pic16f877a.h"
   196                           EEDATA equ 010Ch ;# 
   197  010C                     # 2297 "C:\Program Files (x86)\Microchip\xc8\v2.00\pic\include\pic16f877a.h"
   198                           EEADR equ 010Dh ;# 
   199  010D                     # 2304 "C:\Program Files (x86)\Microchip\xc8\v2.00\pic\include\pic16f877a.h"
   200                           EEDATH equ 010Eh ;# 
   201  010E                     # 2311 "C:\Program Files (x86)\Microchip\xc8\v2.00\pic\include\pic16f877a.h"
   202                           EEADRH equ 010Fh ;# 
   203  010F                     # 2318 "C:\Program Files (x86)\Microchip\xc8\v2.00\pic\include\pic16f877a.h"
   204                           EECON1 equ 018Ch ;# 
   205  018C                     # 2363 "C:\Program Files (x86)\Microchip\xc8\v2.00\pic\include\pic16f877a.h"
   206                           EECON2 equ 018Dh ;# 
   207  018D                     # 54 "C:\Program Files (x86)\Microchip\xc8\v2.00\pic\include\pic16f877a.h"
   208                           INDF equ 00h ;# 
   209  0000                     # 61 "C:\Program Files (x86)\Microchip\xc8\v2.00\pic\include\pic16f877a.h"
   210                           TMR0 equ 01h ;# 
   211  0001                     # 68 "C:\Program Files (x86)\Microchip\xc8\v2.00\pic\include\pic16f877a.h"
   212                           PCL equ 02h ;# 
   213  0002                     # 75 "C:\Program Files (x86)\Microchip\xc8\v2.00\pic\include\pic16f877a.h"
   214                           STATUS equ 03h ;# 
   215  0003                     # 161 "C:\Program Files (x86)\Microchip\xc8\v2.00\pic\include\pic16f877a.h"
   216                           FSR equ 04h ;# 
   217  0004                     # 168 "C:\Program Files (x86)\Microchip\xc8\v2.00\pic\include\pic16f877a.h"
   218                           PORTA equ 05h ;# 
   219  0005                     # 218 "C:\Program Files (x86)\Microchip\xc8\v2.00\pic\include\pic16f877a.h"
   220                           PORTB equ 06h ;# 
   221  0006                     # 280 "C:\Program Files (x86)\Microchip\xc8\v2.00\pic\include\pic16f877a.h"
   222                           PORTC equ 07h ;# 
   223  0007                     # 342 "C:\Program Files (x86)\Microchip\xc8\v2.00\pic\include\pic16f877a.h"
   224                           PORTD equ 08h ;# 
   225  0008                     # 404 "C:\Program Files (x86)\Microchip\xc8\v2.00\pic\include\pic16f877a.h"
   226                           PORTE equ 09h ;# 
   227  0009                     # 436 "C:\Program Files (x86)\Microchip\xc8\v2.00\pic\include\pic16f877a.h"
   228                           PCLATH equ 0Ah ;# 
   229  000A                     # 456 "C:\Program Files (x86)\Microchip\xc8\v2.00\pic\include\pic16f877a.h"
   230                           INTCON equ 0Bh ;# 
   231  000B                     # 534 "C:\Program Files (x86)\Microchip\xc8\v2.00\pic\include\pic16f877a.h"
   232                           PIR1 equ 0Ch ;# 
   233  000C                     # 596 "C:\Program Files (x86)\Microchip\xc8\v2.00\pic\include\pic16f877a.h"
   234                           PIR2 equ 0Dh ;# 
   235  000D                     # 636 "C:\Program Files (x86)\Microchip\xc8\v2.00\pic\include\pic16f877a.h"
   236                           TMR1 equ 0Eh ;# 
   237  000E                     # 643 "C:\Program Files (x86)\Microchip\xc8\v2.00\pic\include\pic16f877a.h"
   238                           TMR1L equ 0Eh ;# 
   239  000E                     # 650 "C:\Program Files (x86)\Microchip\xc8\v2.00\pic\include\pic16f877a.h"
   240                           TMR1H equ 0Fh ;# 
   241  000F                     # 657 "C:\Program Files (x86)\Microchip\xc8\v2.00\pic\include\pic16f877a.h"
   242                           T1CON equ 010h ;# 
   243  0010                     # 732 "C:\Program Files (x86)\Microchip\xc8\v2.00\pic\include\pic16f877a.h"
   244                           TMR2 equ 011h ;# 
   245  0011                     # 739 "C:\Program Files (x86)\Microchip\xc8\v2.00\pic\include\pic16f877a.h"
   246                           T2CON equ 012h ;# 
   247  0012                     # 810 "C:\Program Files (x86)\Microchip\xc8\v2.00\pic\include\pic16f877a.h"
   248                           SSPBUF equ 013h ;# 
   249  0013                     # 817 "C:\Program Files (x86)\Microchip\xc8\v2.00\pic\include\pic16f877a.h"
   250                           SSPCON equ 014h ;# 
   251  0014                     # 887 "C:\Program Files (x86)\Microchip\xc8\v2.00\pic\include\pic16f877a.h"
   252                           CCPR1 equ 015h ;# 
   253  0015                     # 894 "C:\Program Files (x86)\Microchip\xc8\v2.00\pic\include\pic16f877a.h"
   254                           CCPR1L equ 015h ;# 
   255  0015                     # 901 "C:\Program Files (x86)\Microchip\xc8\v2.00\pic\include\pic16f877a.h"
   256                           CCPR1H equ 016h ;# 
   257  0016                     # 908 "C:\Program Files (x86)\Microchip\xc8\v2.00\pic\include\pic16f877a.h"
   258                           CCP1CON equ 017h ;# 
   259  0017                     # 966 "C:\Program Files (x86)\Microchip\xc8\v2.00\pic\include\pic16f877a.h"
   260                           RCSTA equ 018h ;# 
   261  0018                     # 1061 "C:\Program Files (x86)\Microchip\xc8\v2.00\pic\include\pic16f877a.h"
   262                           TXREG equ 019h ;# 
   263  0019                     # 1068 "C:\Program Files (x86)\Microchip\xc8\v2.00\pic\include\pic16f877a.h"
   264                           RCREG equ 01Ah ;# 
   265  001A                     # 1075 "C:\Program Files (x86)\Microchip\xc8\v2.00\pic\include\pic16f877a.h"
   266                           CCPR2 equ 01Bh ;# 
   267  001B                     # 1082 "C:\Program Files (x86)\Microchip\xc8\v2.00\pic\include\pic16f877a.h"
   268                           CCPR2L equ 01Bh ;# 
   269  001B                     # 1089 "C:\Program Files (x86)\Microchip\xc8\v2.00\pic\include\pic16f877a.h"
   270                           CCPR2H equ 01Ch ;# 
   271  001C                     # 1096 "C:\Program Files (x86)\Microchip\xc8\v2.00\pic\include\pic16f877a.h"
   272                           CCP2CON equ 01Dh ;# 
   273  001D                     # 1154 "C:\Program Files (x86)\Microchip\xc8\v2.00\pic\include\pic16f877a.h"
   274                           ADRESH equ 01Eh ;# 
   275  001E                     # 1161 "C:\Program Files (x86)\Microchip\xc8\v2.00\pic\include\pic16f877a.h"
   276                           ADCON0 equ 01Fh ;# 
   277  001F                     # 1257 "C:\Program Files (x86)\Microchip\xc8\v2.00\pic\include\pic16f877a.h"
   278                           OPTION_REG equ 081h ;# 
   279  0081                     # 1327 "C:\Program Files (x86)\Microchip\xc8\v2.00\pic\include\pic16f877a.h"
   280                           TRISA equ 085h ;# 
   281  0085                     # 1377 "C:\Program Files (x86)\Microchip\xc8\v2.00\pic\include\pic16f877a.h"
   282                           TRISB equ 086h ;# 
   283  0086                     # 1439 "C:\Program Files (x86)\Microchip\xc8\v2.00\pic\include\pic16f877a.h"
   284                           TRISC equ 087h ;# 
   285  0087                     # 1501 "C:\Program Files (x86)\Microchip\xc8\v2.00\pic\include\pic16f877a.h"
   286                           TRISD equ 088h ;# 
   287  0088                     # 1563 "C:\Program Files (x86)\Microchip\xc8\v2.00\pic\include\pic16f877a.h"
   288                           TRISE equ 089h ;# 
   289  0089                     # 1620 "C:\Program Files (x86)\Microchip\xc8\v2.00\pic\include\pic16f877a.h"
   290                           PIE1 equ 08Ch ;# 
   291  008C                     # 1682 "C:\Program Files (x86)\Microchip\xc8\v2.00\pic\include\pic16f877a.h"
   292                           PIE2 equ 08Dh ;# 
   293  008D                     # 1722 "C:\Program Files (x86)\Microchip\xc8\v2.00\pic\include\pic16f877a.h"
   294                           PCON equ 08Eh ;# 
   295  008E                     # 1756 "C:\Program Files (x86)\Microchip\xc8\v2.00\pic\include\pic16f877a.h"
   296                           SSPCON2 equ 091h ;# 
   297  0091                     # 1818 "C:\Program Files (x86)\Microchip\xc8\v2.00\pic\include\pic16f877a.h"
   298                           PR2 equ 092h ;# 
   299  0092                     # 1825 "C:\Program Files (x86)\Microchip\xc8\v2.00\pic\include\pic16f877a.h"
   300                           SSPADD equ 093h ;# 
   301  0093                     # 1832 "C:\Program Files (x86)\Microchip\xc8\v2.00\pic\include\pic16f877a.h"
   302                           SSPSTAT equ 094h ;# 
   303  0094                     # 2001 "C:\Program Files (x86)\Microchip\xc8\v2.00\pic\include\pic16f877a.h"
   304                           TXSTA equ 098h ;# 
   305  0098                     # 2082 "C:\Program Files (x86)\Microchip\xc8\v2.00\pic\include\pic16f877a.h"
   306                           SPBRG equ 099h ;# 
   307  0099                     # 2089 "C:\Program Files (x86)\Microchip\xc8\v2.00\pic\include\pic16f877a.h"
   308                           CMCON equ 09Ch ;# 
   309  009C                     # 2159 "C:\Program Files (x86)\Microchip\xc8\v2.00\pic\include\pic16f877a.h"
   310                           CVRCON equ 09Dh ;# 
   311  009D                     # 2224 "C:\Program Files (x86)\Microchip\xc8\v2.00\pic\include\pic16f877a.h"
   312                           ADRESL equ 09Eh ;# 
   313  009E                     # 2231 "C:\Program Files (x86)\Microchip\xc8\v2.00\pic\include\pic16f877a.h"
   314                           ADCON1 equ 09Fh ;# 
   315  009F                     # 2290 "C:\Program Files (x86)\Microchip\xc8\v2.00\pic\include\pic16f877a.h"
   316                           EEDATA equ 010Ch ;# 
   317  010C                     # 2297 "C:\Program Files (x86)\Microchip\xc8\v2.00\pic\include\pic16f877a.h"
   318                           EEADR equ 010Dh ;# 
   319  010D                     # 2304 "C:\Program Files (x86)\Microchip\xc8\v2.00\pic\include\pic16f877a.h"
   320                           EEDATH equ 010Eh ;# 
   321  010E                     # 2311 "C:\Program Files (x86)\Microchip\xc8\v2.00\pic\include\pic16f877a.h"
   322                           EEADRH equ 010Fh ;# 
   323  010F                     # 2318 "C:\Program Files (x86)\Microchip\xc8\v2.00\pic\include\pic16f877a.h"
   324                           EECON1 equ 018Ch ;# 
   325  018C                     # 2363 "C:\Program Files (x86)\Microchip\xc8\v2.00\pic\include\pic16f877a.h"
   326                           EECON2 equ 018Dh ;# 
   327  018D                     # 54 "C:\Program Files (x86)\Microchip\xc8\v2.00\pic\include\pic16f877a.h"
   328                           INDF equ 00h ;# 
   329  0000                     # 61 "C:\Program Files (x86)\Microchip\xc8\v2.00\pic\include\pic16f877a.h"
   330                           TMR0 equ 01h ;# 
   331  0001                     # 68 "C:\Program Files (x86)\Microchip\xc8\v2.00\pic\include\pic16f877a.h"
   332                           PCL equ 02h ;# 
   333  0002                     # 75 "C:\Program Files (x86)\Microchip\xc8\v2.00\pic\include\pic16f877a.h"
   334                           STATUS equ 03h ;# 
   335  0003                     # 161 "C:\Program Files (x86)\Microchip\xc8\v2.00\pic\include\pic16f877a.h"
   336                           FSR equ 04h ;# 
   337  0004                     # 168 "C:\Program Files (x86)\Microchip\xc8\v2.00\pic\include\pic16f877a.h"
   338                           PORTA equ 05h ;# 
   339  0005                     # 218 "C:\Program Files (x86)\Microchip\xc8\v2.00\pic\include\pic16f877a.h"
   340                           PORTB equ 06h ;# 
   341  0006                     # 280 "C:\Program Files (x86)\Microchip\xc8\v2.00\pic\include\pic16f877a.h"
   342                           PORTC equ 07h ;# 
   343  0007                     # 342 "C:\Program Files (x86)\Microchip\xc8\v2.00\pic\include\pic16f877a.h"
   344                           PORTD equ 08h ;# 
   345  0008                     # 404 "C:\Program Files (x86)\Microchip\xc8\v2.00\pic\include\pic16f877a.h"
   346                           PORTE equ 09h ;# 
   347  0009                     # 436 "C:\Program Files (x86)\Microchip\xc8\v2.00\pic\include\pic16f877a.h"
   348                           PCLATH equ 0Ah ;# 
   349  000A                     # 456 "C:\Program Files (x86)\Microchip\xc8\v2.00\pic\include\pic16f877a.h"
   350                           INTCON equ 0Bh ;# 
   351  000B                     # 534 "C:\Program Files (x86)\Microchip\xc8\v2.00\pic\include\pic16f877a.h"
   352                           PIR1 equ 0Ch ;# 
   353  000C                     # 596 "C:\Program Files (x86)\Microchip\xc8\v2.00\pic\include\pic16f877a.h"
   354                           PIR2 equ 0Dh ;# 
   355  000D                     # 636 "C:\Program Files (x86)\Microchip\xc8\v2.00\pic\include\pic16f877a.h"
   356                           TMR1 equ 0Eh ;# 
   357  000E                     # 643 "C:\Program Files (x86)\Microchip\xc8\v2.00\pic\include\pic16f877a.h"
   358                           TMR1L equ 0Eh ;# 
   359  000E                     # 650 "C:\Program Files (x86)\Microchip\xc8\v2.00\pic\include\pic16f877a.h"
   360                           TMR1H equ 0Fh ;# 
   361  000F                     # 657 "C:\Program Files (x86)\Microchip\xc8\v2.00\pic\include\pic16f877a.h"
   362                           T1CON equ 010h ;# 
   363  0010                     # 732 "C:\Program Files (x86)\Microchip\xc8\v2.00\pic\include\pic16f877a.h"
   364                           TMR2 equ 011h ;# 
   365  0011                     # 739 "C:\Program Files (x86)\Microchip\xc8\v2.00\pic\include\pic16f877a.h"
   366                           T2CON equ 012h ;# 
   367  0012                     # 810 "C:\Program Files (x86)\Microchip\xc8\v2.00\pic\include\pic16f877a.h"
   368                           SSPBUF equ 013h ;# 
   369  0013                     # 817 "C:\Program Files (x86)\Microchip\xc8\v2.00\pic\include\pic16f877a.h"
   370                           SSPCON equ 014h ;# 
   371  0014                     # 887 "C:\Program Files (x86)\Microchip\xc8\v2.00\pic\include\pic16f877a.h"
   372                           CCPR1 equ 015h ;# 
   373  0015                     # 894 "C:\Program Files (x86)\Microchip\xc8\v2.00\pic\include\pic16f877a.h"
   374                           CCPR1L equ 015h ;# 
   375  0015                     # 901 "C:\Program Files (x86)\Microchip\xc8\v2.00\pic\include\pic16f877a.h"
   376                           CCPR1H equ 016h ;# 
   377  0016                     # 908 "C:\Program Files (x86)\Microchip\xc8\v2.00\pic\include\pic16f877a.h"
   378                           CCP1CON equ 017h ;# 
   379  0017                     # 966 "C:\Program Files (x86)\Microchip\xc8\v2.00\pic\include\pic16f877a.h"
   380                           RCSTA equ 018h ;# 
   381  0018                     # 1061 "C:\Program Files (x86)\Microchip\xc8\v2.00\pic\include\pic16f877a.h"
   382                           TXREG equ 019h ;# 
   383  0019                     # 1068 "C:\Program Files (x86)\Microchip\xc8\v2.00\pic\include\pic16f877a.h"
   384                           RCREG equ 01Ah ;# 
   385  001A                     # 1075 "C:\Program Files (x86)\Microchip\xc8\v2.00\pic\include\pic16f877a.h"
   386                           CCPR2 equ 01Bh ;# 
   387  001B                     # 1082 "C:\Program Files (x86)\Microchip\xc8\v2.00\pic\include\pic16f877a.h"
   388                           CCPR2L equ 01Bh ;# 
   389  001B                     # 1089 "C:\Program Files (x86)\Microchip\xc8\v2.00\pic\include\pic16f877a.h"
   390                           CCPR2H equ 01Ch ;# 
   391  001C                     # 1096 "C:\Program Files (x86)\Microchip\xc8\v2.00\pic\include\pic16f877a.h"
   392                           CCP2CON equ 01Dh ;# 
   393  001D                     # 1154 "C:\Program Files (x86)\Microchip\xc8\v2.00\pic\include\pic16f877a.h"
   394                           ADRESH equ 01Eh ;# 
   395  001E                     # 1161 "C:\Program Files (x86)\Microchip\xc8\v2.00\pic\include\pic16f877a.h"
   396                           ADCON0 equ 01Fh ;# 
   397  001F                     # 1257 "C:\Program Files (x86)\Microchip\xc8\v2.00\pic\include\pic16f877a.h"
   398                           OPTION_REG equ 081h ;# 
   399  0081                     # 1327 "C:\Program Files (x86)\Microchip\xc8\v2.00\pic\include\pic16f877a.h"
   400                           TRISA equ 085h ;# 
   401  0085                     # 1377 "C:\Program Files (x86)\Microchip\xc8\v2.00\pic\include\pic16f877a.h"
   402                           TRISB equ 086h ;# 
   403  0086                     # 1439 "C:\Program Files (x86)\Microchip\xc8\v2.00\pic\include\pic16f877a.h"
   404                           TRISC equ 087h ;# 
   405  0087                     # 1501 "C:\Program Files (x86)\Microchip\xc8\v2.00\pic\include\pic16f877a.h"
   406                           TRISD equ 088h ;# 
   407  0088                     # 1563 "C:\Program Files (x86)\Microchip\xc8\v2.00\pic\include\pic16f877a.h"
   408                           TRISE equ 089h ;# 
   409  0089                     # 1620 "C:\Program Files (x86)\Microchip\xc8\v2.00\pic\include\pic16f877a.h"
   410                           PIE1 equ 08Ch ;# 
   411  008C                     # 1682 "C:\Program Files (x86)\Microchip\xc8\v2.00\pic\include\pic16f877a.h"
   412                           PIE2 equ 08Dh ;# 
   413  008D                     # 1722 "C:\Program Files (x86)\Microchip\xc8\v2.00\pic\include\pic16f877a.h"
   414                           PCON equ 08Eh ;# 
   415  008E                     # 1756 "C:\Program Files (x86)\Microchip\xc8\v2.00\pic\include\pic16f877a.h"
   416                           SSPCON2 equ 091h ;# 
   417  0091                     # 1818 "C:\Program Files (x86)\Microchip\xc8\v2.00\pic\include\pic16f877a.h"
   418                           PR2 equ 092h ;# 
   419  0092                     # 1825 "C:\Program Files (x86)\Microchip\xc8\v2.00\pic\include\pic16f877a.h"
   420                           SSPADD equ 093h ;# 
   421  0093                     # 1832 "C:\Program Files (x86)\Microchip\xc8\v2.00\pic\include\pic16f877a.h"
   422                           SSPSTAT equ 094h ;# 
   423  0094                     # 2001 "C:\Program Files (x86)\Microchip\xc8\v2.00\pic\include\pic16f877a.h"
   424                           TXSTA equ 098h ;# 
   425  0098                     # 2082 "C:\Program Files (x86)\Microchip\xc8\v2.00\pic\include\pic16f877a.h"
   426                           SPBRG equ 099h ;# 
   427  0099                     # 2089 "C:\Program Files (x86)\Microchip\xc8\v2.00\pic\include\pic16f877a.h"
   428                           CMCON equ 09Ch ;# 
   429  009C                     # 2159 "C:\Program Files (x86)\Microchip\xc8\v2.00\pic\include\pic16f877a.h"
   430                           CVRCON equ 09Dh ;# 
   431  009D                     # 2224 "C:\Program Files (x86)\Microchip\xc8\v2.00\pic\include\pic16f877a.h"
   432                           ADRESL equ 09Eh ;# 
   433  009E                     # 2231 "C:\Program Files (x86)\Microchip\xc8\v2.00\pic\include\pic16f877a.h"
   434                           ADCON1 equ 09Fh ;# 
   435  009F                     # 2290 "C:\Program Files (x86)\Microchip\xc8\v2.00\pic\include\pic16f877a.h"
   436                           EEDATA equ 010Ch ;# 
   437  010C                     # 2297 "C:\Program Files (x86)\Microchip\xc8\v2.00\pic\include\pic16f877a.h"
   438                           EEADR equ 010Dh ;# 
   439  010D                     # 2304 "C:\Program Files (x86)\Microchip\xc8\v2.00\pic\include\pic16f877a.h"
   440                           EEDATH equ 010Eh ;# 
   441  010E                     # 2311 "C:\Program Files (x86)\Microchip\xc8\v2.00\pic\include\pic16f877a.h"
   442                           EEADRH equ 010Fh ;# 
   443  010F                     # 2318 "C:\Program Files (x86)\Microchip\xc8\v2.00\pic\include\pic16f877a.h"
   444                           EECON1 equ 018Ch ;# 
   445  018C                     # 2363 "C:\Program Files (x86)\Microchip\xc8\v2.00\pic\include\pic16f877a.h"
   446                           EECON2 equ 018Dh ;# 
   447  018D                     	FNCALL	_main,_Initialization
   448                           	FNCALL	_main,_loop
   449                           	FNCALL	_main,_setup
   450                           	FNCALL	_setup,_SerialBegin
   451                           	FNCALL	_setup,_SerialRead
   452                           	FNCALL	_setup,_SerialWrite
   453                           	FNCALL	_setup,_digitalWrite
   454                           	FNCALL	_setup,_pinMode
   455                           	FNCALL	_SerialBegin,___aldiv
   456                           	FNCALL	_loop,_ProcessCommand
   457                           	FNCALL	_loop,_SerialAvailable
   458                           	FNCALL	_loop,_SerialRead
   459                           	FNCALL	_loop,_SerialWrite
   460                           	FNCALL	_ProcessCommand,_PBRead
   461                           	FNCALL	_ProcessCommand,_analogRead
   462                           	FNCALL	_ProcessCommand,_analogWrite
   463                           	FNCALL	_ProcessCommand,_digitalRead
   464                           	FNCALL	_ProcessCommand,_digitalWrite
   465                           	FNCALL	_ProcessCommand,_pinMode
   466                           	FNCALL	_Initialization,_CCP1Configuration
   467                           	FNCALL	_Initialization,_CCP2Configuration
   468                           	FNROOT	_main
   469                           	global	_LED
   470                           	global	_BufferLenght
   471                           psect	idataBANK0,class=CODE,space=0,delta=2,noexec
   472                           global __pidataBANK0
   473                           __pidataBANK0:
   474  0003                     	file	"LIFPIC.c"
   475                           	line	22
   476                           
   477                           ;initializer for _LED
   478                           	retlw	0Eh
   479  0003  340E               	line	19
   480                           
   481                           ;initializer for _BufferLenght
   482                           	retlw	04h
   483  0004  3404               	global	_Informacion
   484                           	global	_Dato
   485                           	global	_DataEnviar
   486                           	global	_dada
   487                           	global	_Valor
   488                           	global	_Estado
   489                           	global	_SSPBUF
   490                           _SSPBUF	set	0x13
   491  0013                     	global	_SSPCON
   492                           _SSPCON	set	0x14
   493  0014                     	global	_RCREG
   494                           _RCREG	set	0x1A
   495  001A                     	global	_TXREG
   496                           _TXREG	set	0x19
   497  0019                     	global	_PORTEbits
   498                           _PORTEbits	set	0x9
   499  0009                     	global	_CCPR1L
   500                           _CCPR1L	set	0x15
   501  0015                     	global	_CCPR2L
   502                           _CCPR2L	set	0x1B
   503  001B                     	global	_ADRESH
   504                           _ADRESH	set	0x1E
   505  001E                     	global	_ADCON0bits
   506                           _ADCON0bits	set	0x1F
   507  001F                     	global	_PORTAbits
   508                           _PORTAbits	set	0x5
   509  0005                     	global	_PORTBbits
   510                           _PORTBbits	set	0x6
   511  0006                     	global	_PORTDbits
   512                           _PORTDbits	set	0x8
   513  0008                     	global	_PORTCbits
   514                           _PORTCbits	set	0x7
   515  0007                     	global	_CCP2CON
   516                           _CCP2CON	set	0x1D
   517  001D                     	global	_CCP1CON
   518                           _CCP1CON	set	0x17
   519  0017                     	global	_T2CON
   520                           _T2CON	set	0x12
   521  0012                     	global	_PORTE
   522                           _PORTE	set	0x9
   523  0009                     	global	_ADCON0
   524                           _ADCON0	set	0x1F
   525  001F                     	global	_SSPIF
   526                           _SSPIF	set	0x63
   527  0063                     	global	_PEIE
   528                           _PEIE	set	0x5E
   529  005E                     	global	_GIE
   530                           _GIE	set	0x5F
   531  005F                     	global	_RCIF
   532                           _RCIF	set	0x65
   533  0065                     	global	_TXIF
   534                           _TXIF	set	0x64
   535  0064                     	global	_OERR
   536                           _OERR	set	0xC1
   537  00C1                     	global	_FERR
   538                           _FERR	set	0xC2
   539  00C2                     	global	_CREN
   540                           _CREN	set	0xC4
   541  00C4                     	global	_SPEN
   542                           _SPEN	set	0xC7
   543  00C7                     	global	_CCP1Y
   544                           _CCP1Y	set	0xBC
   545  00BC                     	global	_CCP1X
   546                           _CCP1X	set	0xBD
   547  00BD                     	global	_CCP2Y
   548                           _CCP2Y	set	0xEC
   549  00EC                     	global	_CCP2X
   550                           _CCP2X	set	0xED
   551  00ED                     	global	_SSPSTAT
   552                           _SSPSTAT	set	0x94
   553  0094                     	global	_SSPADD
   554                           _SSPADD	set	0x93
   555  0093                     	global	_SSPCON2
   556                           _SSPCON2	set	0x91
   557  0091                     	global	_SPBRG
   558                           _SPBRG	set	0x99
   559  0099                     	global	_ADRESL
   560                           _ADRESL	set	0x9E
   561  009E                     	global	_ADCON1bits
   562                           _ADCON1bits	set	0x9F
   563  009F                     	global	_TRISAbits
   564                           _TRISAbits	set	0x85
   565  0085                     	global	_TRISBbits
   566                           _TRISBbits	set	0x86
   567  0086                     	global	_TRISDbits
   568                           _TRISDbits	set	0x88
   569  0088                     	global	_TRISCbits
   570                           _TRISCbits	set	0x87
   571  0087                     	global	_PR2
   572                           _PR2	set	0x92
   573  0092                     	global	_TRISE
   574                           _TRISE	set	0x89
   575  0089                     	global	_ADCON1
   576                           _ADCON1	set	0x9F
   577  009F                     	global	_ACKEN
   578                           _ACKEN	set	0x48C
   579  048C                     	global	_ACKDT
   580                           _ACKDT	set	0x48D
   581  048D                     	global	_RCEN
   582                           _RCEN	set	0x48B
   583  048B                     	global	_PEN
   584                           _PEN	set	0x48A
   585  048A                     	global	_RSEN
   586                           _RSEN	set	0x489
   587  0489                     	global	_SEN
   588                           _SEN	set	0x488
   589  0488                     	global	_SSPIE
   590                           _SSPIE	set	0x463
   591  0463                     	global	_TRISC4
   592                           _TRISC4	set	0x43C
   593  043C                     	global	_TRISC3
   594                           _TRISC3	set	0x43B
   595  043B                     	global	_TRMT
   596                           _TRMT	set	0x4C1
   597  04C1                     	global	_TXEN
   598                           _TXEN	set	0x4C5
   599  04C5                     	global	_TRISC6
   600                           _TRISC6	set	0x43E
   601  043E                     	global	_TRISC7
   602                           _TRISC7	set	0x43F
   603  043F                     	global	_SYNC
   604                           _SYNC	set	0x4C4
   605  04C4                     	global	_BRGH
   606                           _BRGH	set	0x4C2
   607  04C2                     ; #config settings
   608                           global __CFG_FOSC$HS
   609                           __CFG_FOSC$HS equ 0x0
   610  0000                     global __CFG_WDTE$OFF
   611                           __CFG_WDTE$OFF equ 0x0
   612  0000                     global __CFG_PWRTE$OFF
   613                           __CFG_PWRTE$OFF equ 0x0
   614  0000                     global __CFG_BOREN$OFF
   615                           __CFG_BOREN$OFF equ 0x0
   616  0000                     global __CFG_LVP$ON
   617                           __CFG_LVP$ON equ 0x0
   618  0000                     global __CFG_CPD$OFF
   619                           __CFG_CPD$OFF equ 0x0
   620  0000                     global __CFG_WRT$OFF
   621                           __CFG_WRT$OFF equ 0x0
   622  0000                     global __CFG_CP$OFF
   623                           __CFG_CP$OFF equ 0x0
   624  0000                     	file	"C:\Users\c4810\AppData\Local\Temp\sd2k."
   625                           	line	#
   626                           psect cinit,class=CODE,delta=2
   627                           global start_initialization
   628                           start_initialization:
   629  07E4                     
   630                           global __initialization
   631                           __initialization:
   632  07E4                     psect	bssBANK0,class=BANK0,space=1,noexec
   633                           global __pbssBANK0
   634                           __pbssBANK0:
   635  0020                     _Informacion:
   636  0020                            ds      4
   637  0020                     
   638                           _Dato:
   639  0024                            ds      2
   640  0024                     
   641                           _DataEnviar:
   642  0026                            ds      2
   643  0026                     
   644                           _dada:
   645  0028                            ds      1
   646  0028                     
   647                           _Valor:
   648  0029                            ds      1
   649  0029                     
   650                           _Val:
   651  002A                            ds      1
   652  002A                     
   653                           _Estado:
   654  002B                            ds      1
   655  002B                     
   656                           psect	dataBANK0,class=BANK0,space=1,noexec
   657                           global __pdataBANK0
   658                           __pdataBANK0:
   659  0038                     	file	"LIFPIC.c"
   660                           	line	22
   661                           _LED:
   662  0038                            ds      1
   663  0038                     
   664                           psect	dataBANK0
   665                           	file	"LIFPIC.c"
   666                           	line	19
   667                           _BufferLenght:
   668  0039                            ds      1
   669  0039                     
   670                           	file	"C:\Users\c4810\AppData\Local\Temp\sd2k."
   671                           	line	#
   672                           ; Initialize objects allocated to BANK0
   673                           	global __pidataBANK0
   674                           psect cinit,class=CODE,delta=2,merge=1
   675                           	fcall	__pidataBANK0+0		;fetch initializer
   676  07E4  120A  118A  2003  120A  118A  	movwf	__pdataBANK0+0&07fh		
   677  07E9  00B8               	fcall	__pidataBANK0+1		;fetch initializer
   678  07EA  120A  118A  2004  120A  118A  	movwf	__pdataBANK0+1&07fh		
   679  07EF  00B9               	line	#
   680                           ; Clear objects allocated to BANK0
   681                           psect cinit,class=CODE,delta=2,merge=1
   682                           	clrf	((__pbssBANK0)+0)&07Fh
   683  07F0  01A0               	clrf	((__pbssBANK0)+1)&07Fh
   684  07F1  01A1               	clrf	((__pbssBANK0)+2)&07Fh
   685  07F2  01A2               	clrf	((__pbssBANK0)+3)&07Fh
   686  07F3  01A3               	clrf	((__pbssBANK0)+4)&07Fh
   687  07F4  01A4               	clrf	((__pbssBANK0)+5)&07Fh
   688  07F5  01A5               	clrf	((__pbssBANK0)+6)&07Fh
   689  07F6  01A6               	clrf	((__pbssBANK0)+7)&07Fh
   690  07F7  01A7               	clrf	((__pbssBANK0)+8)&07Fh
   691  07F8  01A8               	clrf	((__pbssBANK0)+9)&07Fh
   692  07F9  01A9               	clrf	((__pbssBANK0)+10)&07Fh
   693  07FA  01AA               	clrf	((__pbssBANK0)+11)&07Fh
   694  07FB  01AB               psect cinit,class=CODE,delta=2,merge=1
   695                           global end_of_initialization,__end_of__initialization
   696                           
   697                           ;End of C runtime variable initialization code
   698                           
   699                           end_of_initialization:
   700  07FC                     __end_of__initialization:
   701  07FC                     clrf status
   702  07FC  0183               ljmp _main	;jump to C main() function
   703  07FD  120A  158A  2F97   psect	cstackCOMMON,class=COMMON,space=1,noexec
   704                           global __pcstackCOMMON
   705                           __pcstackCOMMON:
   706  0070                     ?_Initialization:	; 1 bytes @ 0x0
   707  0070                     ??_Initialization:	; 1 bytes @ 0x0
   708  0070                     ?_setup:	; 1 bytes @ 0x0
   709  0070                     ?_loop:	; 1 bytes @ 0x0
   710  0070                     ?_CCP1Configuration:	; 1 bytes @ 0x0
   711  0070                     ??_CCP1Configuration:	; 1 bytes @ 0x0
   712  0070                     ?_CCP2Configuration:	; 1 bytes @ 0x0
   713  0070                     ??_CCP2Configuration:	; 1 bytes @ 0x0
   714  0070                     ?_pinMode:	; 1 bytes @ 0x0
   715  0070                     ?_digitalWrite:	; 1 bytes @ 0x0
   716  0070                     ?_digitalRead:	; 1 bytes @ 0x0
   717  0070                     ??_digitalRead:	; 1 bytes @ 0x0
   718  0070                     ?_analogWrite:	; 1 bytes @ 0x0
   719  0070                     ?_PBRead:	; 1 bytes @ 0x0
   720  0070                     ??_PBRead:	; 1 bytes @ 0x0
   721  0070                     ?_SerialWrite:	; 1 bytes @ 0x0
   722  0070                     ??_SerialWrite:	; 1 bytes @ 0x0
   723  0070                     ?_SerialAvailable:	; 1 bytes @ 0x0
   724  0070                     ??_SerialAvailable:	; 1 bytes @ 0x0
   725  0070                     ?_SerialRead:	; 1 bytes @ 0x0
   726  0070                     ??_SerialRead:	; 1 bytes @ 0x0
   727  0070                     ?_main:	; 2 bytes @ 0x0
   728  0070                     	global	?_analogRead
   729                           ?_analogRead:	; 2 bytes @ 0x0
   730  0070                     	global	?___aldiv
   731                           ?___aldiv:	; 4 bytes @ 0x0
   732  0070                     	global	pinMode@mode
   733                           pinMode@mode:	; 1 bytes @ 0x0
   734  0070                     	global	digitalWrite@value
   735                           digitalWrite@value:	; 1 bytes @ 0x0
   736  0070                     	global	SerialWrite@dataWrite
   737                           SerialWrite@dataWrite:	; 1 bytes @ 0x0
   738  0070                     	global	_SerialAvailable$456
   739                           _SerialAvailable$456:	; 1 bytes @ 0x0
   740  0070                     	global	analogWrite@value
   741                           analogWrite@value:	; 2 bytes @ 0x0
   742  0070                     	global	___aldiv@divisor
   743                           ___aldiv@divisor:	; 4 bytes @ 0x0
   744  0070                     	ds	1
   745  0070                     ??_pinMode:	; 1 bytes @ 0x1
   746  0071                     ??_digitalWrite:	; 1 bytes @ 0x1
   747  0071                     	ds	1
   748  0071                     ??_analogRead:	; 1 bytes @ 0x2
   749  0072                     ??_analogWrite:	; 1 bytes @ 0x2
   750  0072                     	global	digitalRead@pin
   751                           digitalRead@pin:	; 1 bytes @ 0x2
   752  0072                     	global	PBRead@pin
   753                           PBRead@pin:	; 1 bytes @ 0x2
   754  0072                     	ds	1
   755  0072                     	global	pinMode@pin
   756                           pinMode@pin:	; 1 bytes @ 0x3
   757  0073                     	global	digitalWrite@pin
   758                           digitalWrite@pin:	; 1 bytes @ 0x3
   759  0073                     	ds	1
   760  0073                     	global	analogRead@channel
   761                           analogRead@channel:	; 1 bytes @ 0x4
   762  0074                     	global	analogWrite@pin
   763                           analogWrite@pin:	; 1 bytes @ 0x4
   764  0074                     	global	___aldiv@dividend
   765                           ___aldiv@dividend:	; 4 bytes @ 0x4
   766  0074                     	ds	1
   767  0074                     	global	?_ProcessCommand
   768                           ?_ProcessCommand:	; 2 bytes @ 0x5
   769  0075                     	global	ProcessCommand@port
   770                           ProcessCommand@port:	; 1 bytes @ 0x5
   771  0075                     	ds	1
   772  0075                     	global	ProcessCommand@MSBData
   773                           ProcessCommand@MSBData:	; 1 bytes @ 0x6
   774  0076                     	ds	1
   775  0076                     	global	ProcessCommand@LSBData
   776                           ProcessCommand@LSBData:	; 1 bytes @ 0x7
   777  0077                     	ds	1
   778  0077                     ??_ProcessCommand:	; 1 bytes @ 0x8
   779  0078                     ??___aldiv:	; 1 bytes @ 0x8
   780  0078                     	ds	1
   781  0078                     ??_SerialBegin:	; 1 bytes @ 0x9
   782  0079                     	ds	1
   783  0079                     	global	ProcessCommand@instruction
   784                           ProcessCommand@instruction:	; 1 bytes @ 0xA
   785  007A                     	ds	1
   786  007A                     	global	ProcessCommand@data
   787                           ProcessCommand@data:	; 2 bytes @ 0xB
   788  007B                     	ds	2
   789  007B                     ??_setup:	; 1 bytes @ 0xD
   790  007D                     	ds	1
   791  007D                     ??_main:	; 1 bytes @ 0xE
   792  007E                     psect	cstackBANK0,class=BANK0,space=1,noexec
   793                           global __pcstackBANK0
   794                           __pcstackBANK0:
   795  002C                     ??_loop:	; 1 bytes @ 0x0
   796  002C                     	global	___aldiv@counter
   797                           ___aldiv@counter:	; 1 bytes @ 0x0
   798  002C                     	ds	1
   799  002C                     	global	___aldiv@sign
   800                           ___aldiv@sign:	; 1 bytes @ 0x1
   801  002D                     	ds	1
   802  002D                     	global	___aldiv@quotient
   803                           ___aldiv@quotient:	; 4 bytes @ 0x2
   804  002E                     	ds	1
   805  002E                     	global	loop@i
   806                           loop@i:	; 2 bytes @ 0x3
   807  002F                     	ds	2
   808  002F                     	global	loop@j
   809                           loop@j:	; 2 bytes @ 0x5
   810  0031                     	ds	1
   811  0031                     ?_SerialBegin:	; 1 bytes @ 0x6
   812  0032                     	global	SerialBegin@BaudRate
   813                           SerialBegin@BaudRate:	; 4 bytes @ 0x6
   814  0032                     	ds	4
   815  0032                     	global	SerialBegin@x
   816                           SerialBegin@x:	; 2 bytes @ 0xA
   817  0036                     	ds	2
   818  0036                     ;!
   819                           ;!Data Sizes:
   820                           ;!    Strings     0
   821                           ;!    Constant    0
   822                           ;!    Data        2
   823                           ;!    BSS         12
   824                           ;!    Persistent  0
   825                           ;!    Stack       0
   826                           ;!
   827                           ;!Auto Spaces:
   828                           ;!    Space          Size  Autos    Used
   829                           ;!    COMMON           14     14      14
   830                           ;!    BANK0            80     12      26
   831                           ;!    BANK1            80      0       0
   832                           ;!    BANK3            96      0       0
   833                           ;!    BANK2            96      0       0
   834                           
   835                           ;!
   836                           ;!Pointer List with Targets:
   837                           ;!
   838                           ;!    None.
   839                           
   840                           
   841                           ;!
   842                           ;!Critical Paths under _main in COMMON
   843                           ;!
   844                           ;!    _main->_setup
   845                           ;!    _setup->_SerialBegin
   846                           ;!    _SerialBegin->___aldiv
   847                           ;!    _loop->_ProcessCommand
   848                           ;!    _ProcessCommand->_analogRead
   849                           ;!    _ProcessCommand->_analogWrite
   850                           ;!
   851                           ;!Critical Paths under _main in BANK0
   852                           ;!
   853                           ;!    _setup->_SerialBegin
   854                           ;!    _SerialBegin->___aldiv
   855                           ;!
   856                           ;!Critical Paths under _main in BANK1
   857                           ;!
   858                           ;!    None.
   859                           ;!
   860                           ;!Critical Paths under _main in BANK3
   861                           ;!
   862                           ;!    None.
   863                           ;!
   864                           ;!Critical Paths under _main in BANK2
   865                           ;!
   866                           ;!    None.
   867                           
   868 ;;
   869 ;;Main: autosize = 0, tempsize = 0, incstack = 0, save=0
   870 ;;
   871                           
   872                           ;!
   873                           ;!Call Graph Tables:
   874                           ;!
   875                           ;! ---------------------------------------------------------------------------------
   876                           ;! (Depth) Function   	        Calls       Base Space   Used Autos Params    Refs
   877                           ;! ---------------------------------------------------------------------------------
   878                           ;! (0) _main                                                 0     0      0    5047
   879                           ;!                     _Initialization
   880                           ;!                               _loop
   881                           ;!                              _setup
   882                           ;! ---------------------------------------------------------------------------------
   883                           ;! (1) _setup                                                1     1      0    2426
   884                           ;!                                             13 COMMON     1     1      0
   885                           ;!                        _SerialBegin
   886                           ;!                         _SerialRead
   887                           ;!                        _SerialWrite
   888                           ;!                       _digitalWrite
   889                           ;!                            _pinMode
   890                           ;! ---------------------------------------------------------------------------------
   891                           ;! (2) _SerialBegin                                         10     6      4     792
   892                           ;!                                              9 COMMON     4     4      0
   893                           ;!                                              6 BANK0      6     2      4
   894                           ;!                            ___aldiv
   895                           ;! ---------------------------------------------------------------------------------
   896                           ;! (3) ___aldiv                                             15     7      8     604
   897                           ;!                                              0 COMMON     9     1      8
   898                           ;!                                              0 BANK0      6     6      0
   899                           ;! ---------------------------------------------------------------------------------
   900                           ;! (1) _loop                                                 7     7      0    2621
   901                           ;!                                              0 BANK0      7     7      0
   902                           ;!                     _ProcessCommand
   903                           ;!                    _SerialAvailable
   904                           ;!                         _SerialRead
   905                           ;!                        _SerialWrite
   906                           ;! ---------------------------------------------------------------------------------
   907                           ;! (2) _SerialWrite                                          1     1      0      22
   908                           ;!                                              0 COMMON     1     1      0
   909                           ;! ---------------------------------------------------------------------------------
   910                           ;! (2) _SerialRead                                           0     0      0       0
   911                           ;! ---------------------------------------------------------------------------------
   912                           ;! (2) _SerialAvailable                                      1     1      0       8
   913                           ;!                                              0 COMMON     1     1      0
   914                           ;! ---------------------------------------------------------------------------------
   915                           ;! (2) _ProcessCommand                                       8     5      3    2477
   916                           ;!                                              5 COMMON     8     5      3
   917                           ;!                             _PBRead
   918                           ;!                         _analogRead
   919                           ;!                        _analogWrite
   920                           ;!                        _digitalRead
   921                           ;!                       _digitalWrite
   922                           ;!                            _pinMode
   923                           ;! ---------------------------------------------------------------------------------
   924                           ;! (2) _pinMode                                              4     3      1     768
   925                           ;!                                              0 COMMON     4     3      1
   926                           ;! ---------------------------------------------------------------------------------
   927                           ;! (2) _digitalWrite                                         4     3      1     844
   928                           ;!                                              0 COMMON     4     3      1
   929                           ;! ---------------------------------------------------------------------------------
   930                           ;! (3) _digitalRead                                          3     3      0      22
   931                           ;!                                              0 COMMON     3     3      0
   932                           ;! ---------------------------------------------------------------------------------
   933                           ;! (3) _analogWrite                                          5     3      2     192
   934                           ;!                                              0 COMMON     5     3      2
   935                           ;! ---------------------------------------------------------------------------------
   936                           ;! (3) _analogRead                                           5     3      2      22
   937                           ;!                                              0 COMMON     5     3      2
   938                           ;! ---------------------------------------------------------------------------------
   939                           ;! (3) _PBRead                                               3     3      0      22
   940                           ;!                                              0 COMMON     3     3      0
   941                           ;! ---------------------------------------------------------------------------------
   942                           ;! (1) _Initialization                                       0     0      0       0
   943                           ;!                  _CCP1Configuration
   944                           ;!                  _CCP2Configuration
   945                           ;! ---------------------------------------------------------------------------------
   946                           ;! (2) _CCP2Configuration                                    0     0      0       0
   947                           ;! ---------------------------------------------------------------------------------
   948                           ;! (2) _CCP1Configuration                                    0     0      0       0
   949                           ;! ---------------------------------------------------------------------------------
   950                           ;! Estimated maximum stack depth 3
   951                           ;! ---------------------------------------------------------------------------------
   952                           ;!
   953                           ;! Call Graph Graphs:
   954                           ;!
   955                           ;! _main (ROOT)
   956                           ;!   _Initialization
   957                           ;!     _CCP1Configuration
   958                           ;!     _CCP2Configuration
   959                           ;!   _loop
   960                           ;!     _ProcessCommand
   961                           ;!       _PBRead
   962                           ;!       _analogRead
   963                           ;!       _analogWrite
   964                           ;!       _digitalRead
   965                           ;!       _digitalWrite
   966                           ;!       _pinMode
   967                           ;!     _SerialAvailable
   968                           ;!     _SerialRead
   969                           ;!     _SerialWrite
   970                           ;!   _setup
   971                           ;!     _SerialBegin
   972                           ;!       ___aldiv
   973                           ;!     _SerialRead
   974                           ;!     _SerialWrite
   975                           ;!     _digitalWrite
   976                           ;!     _pinMode
   977                           ;!
   978                           
   979                           ;! Address spaces:
   980                           
   981                           ;!Name               Size   Autos  Total    Cost      Usage
   982                           ;!BANK3               60      0       0       9        0.0%
   983                           ;!BITBANK3            60      0       0       8        0.0%
   984                           ;!SFR3                 0      0       0       4        0.0%
   985                           ;!BITSFR3              0      0       0       4        0.0%
   986                           ;!BANK2               60      0       0      11        0.0%
   987                           ;!BITBANK2            60      0       0      10        0.0%
   988                           ;!SFR2                 0      0       0       5        0.0%
   989                           ;!BITSFR2              0      0       0       5        0.0%
   990                           ;!BANK1               50      0       0       7        0.0%
   991                           ;!BITBANK1            50      0       0       6        0.0%
   992                           ;!SFR1                 0      0       0       2        0.0%
   993                           ;!BITSFR1              0      0       0       2        0.0%
   994                           ;!BANK0               50      C      1A       5       32.5%
   995                           ;!BITBANK0            50      0       0       4        0.0%
   996                           ;!SFR0                 0      0       0       1        0.0%
   997                           ;!BITSFR0              0      0       0       1        0.0%
   998                           ;!COMMON               E      E       E       1      100.0%
   999                           ;!BITCOMMON            E      0       0       0        0.0%
  1000                           ;!CODE                 0      0       0       0        0.0%
  1001                           ;!DATA                 0      0      28      12        0.0%
  1002                           ;!ABS                  0      0      28       3        0.0%
  1003                           ;!NULL                 0      0       0       0        0.0%
  1004                           ;!STACK                0      0       0       2        0.0%
  1005                           ;!EEDATA             100      0       0       0        0.0%
  1006                           
  1007                           	global	_main
  1008                           
  1009 ;; *************** function _main *****************
  1010 ;; Defined at:
  1011 ;;		line 7 in file "source.c"
  1012 ;; Parameters:    Size  Location     Type
  1013 ;;		None
  1014 ;; Auto vars:     Size  Location     Type
  1015 ;;		None
  1016 ;; Return value:  Size  Location     Type
  1017 ;;                  2  132[None  ] int 
  1018 ;; Registers used:
  1019 ;;		wreg, fsr0l, fsr0h, status,2, status,0, btemp+1, pclath, cstack
  1020 ;; Tracked objects:
  1021 ;;		On entry : B00/0
  1022 ;;		On exit  : 0/0
  1023 ;;		Unchanged: 0/0
  1024 ;; Data sizes:     COMMON   BANK0   BANK1   BANK3   BANK2
  1025 ;;      Params:         0       0       0       0       0
  1026 ;;      Locals:         0       0       0       0       0
  1027 ;;      Temps:          0       0       0       0       0
  1028 ;;      Totals:         0       0       0       0       0
  1029 ;;Total ram usage:        0 bytes
  1030 ;; Hardware stack levels required when called:    3
  1031 ;; This function calls:
  1032 ;;		_Initialization
  1033 ;;		_loop
  1034 ;;		_setup
  1035 ;; This function is called by:
  1036 ;;		Startup code after reset
  1037 ;; This function uses a non-reentrant model
  1038 ;;
  1039                           psect	maintext,global,class=CODE,delta=2,split=1,group=0
  1040                           	file	"source.c"
  1041                           	line	7
  1042                           global __pmaintext
  1043                           __pmaintext:	;psect for function _main
  1044  0F97                     psect	maintext
  1045                           	file	"source.c"
  1046                           	line	7
  1047                           	global	__size_of_main
  1048                           	__size_of_main	equ	__end_of_main-_main
  1049  0015                     	
  1050                           _main:	
  1051  0F97                     ;incstack = 0
  1052                           	opt	stack 5
  1053                           ; Regs used in _main: [wreg-fsr0h+status,2+status,0+btemp+1+pclath+cstack]
  1054                           	line	9
  1055                           	
  1056                           l2735:	
  1057  0F97                     ;source.c: 9:     Initialization();
  1058                           	fcall	_Initialization
  1059  0F97  120A  158A  27AC  120A  158A  	line	10
  1060                           	
  1061                           l2737:	
  1062  0F9C                     ;source.c: 10:     setup();
  1063                           	fcall	_setup
  1064  0F9C  120A  118A  2069  120A  158A  	goto	l2739
  1065  0FA1  2FA2               	line	11
  1066                           ;source.c: 11:     while(1)
  1067                           	
  1068                           l133:	
  1069  0FA2                     	line	13
  1070                           	
  1071                           l2739:	
  1072  0FA2                     ;source.c: 12:     {;source.c: 13:         loop();
  1073                           	fcall	_loop
  1074  0FA2  120A  118A  2346  120A  158A  	goto	l2739
  1075  0FA7  2FA2               	line	14
  1076                           ;source.c: 14:     }
  1077                           	
  1078                           l134:	
  1079  0FA8                     	goto	l2739
  1080  0FA8  2FA2               	
  1081                           l135:	
  1082  0FA9                     	line	16
  1083                           ;source.c: 15:     return 0;;	Return value of _main is never used
  1084                           	
  1085                           l136:	
  1086  0FA9                     	global	start
  1087                           	ljmp	start
  1088  0FA9  120A  118A  2800   	opt stack 0
  1089                           GLOBAL	__end_of_main
  1090                           	__end_of_main:
  1091  0FAC                     	signat	_main,90
  1092                           	global	_setup
  1093                           
  1094 ;; *************** function _setup *****************
  1095 ;; Defined at:
  1096 ;;		line 29 in file "LIFPIC.c"
  1097 ;; Parameters:    Size  Location     Type
  1098 ;;		None
  1099 ;; Auto vars:     Size  Location     Type
  1100 ;;		None
  1101 ;; Return value:  Size  Location     Type
  1102 ;;                  1    wreg      void 
  1103 ;; Registers used:
  1104 ;;		wreg, fsr0l, fsr0h, status,2, status,0, pclath, cstack
  1105 ;; Tracked objects:
  1106 ;;		On entry : 0/0
  1107 ;;		On exit  : 0/0
  1108 ;;		Unchanged: 0/0
  1109 ;; Data sizes:     COMMON   BANK0   BANK1   BANK3   BANK2
  1110 ;;      Params:         0       0       0       0       0
  1111 ;;      Locals:         0       0       0       0       0
  1112 ;;      Temps:          1       0       0       0       0
  1113 ;;      Totals:         1       0       0       0       0
  1114 ;;Total ram usage:        1 bytes
  1115 ;; Hardware stack levels used:    1
  1116 ;; Hardware stack levels required when called:    2
  1117 ;; This function calls:
  1118 ;;		_SerialBegin
  1119 ;;		_SerialRead
  1120 ;;		_SerialWrite
  1121 ;;		_digitalWrite
  1122 ;;		_pinMode
  1123 ;; This function is called by:
  1124 ;;		_main
  1125 ;; This function uses a non-reentrant model
  1126 ;;
  1127                           psect	text1,local,class=CODE,delta=2,merge=1,group=0
  1128                           	file	"LIFPIC.c"
  1129                           	line	29
  1130                           global __ptext1
  1131                           __ptext1:	;psect for function _setup
  1132  0069                     psect	text1
  1133                           	file	"LIFPIC.c"
  1134                           	line	29
  1135                           	global	__size_of_setup
  1136                           	__size_of_setup	equ	__end_of_setup-_setup
  1137  0057                     	
  1138                           _setup:	
  1139  0069                     ;incstack = 0
  1140                           	opt	stack 5
  1141                           ; Regs used in _setup: [wreg-fsr0h+status,2+status,0+pclath+cstack]
  1142                           	line	31
  1143                           	
  1144                           l2643:	
  1145  0069                     ;LIFPIC.c: 31:  SerialBegin(9600);
  1146                           	movlw	0
  1147  0069  3000               	bcf	status, 5	;RP0=0, select bank0
  1148  006A  1283               	bcf	status, 6	;RP1=0, select bank0
  1149  006B  1303               	movwf	(SerialBegin@BaudRate+3)
  1150  006C  00B5               	movlw	0
  1151  006D  3000               	movwf	(SerialBegin@BaudRate+2)
  1152  006E  00B4               	movlw	025h
  1153  006F  3025               	movwf	(SerialBegin@BaudRate+1)
  1154  0070  00B3               	movlw	080h
  1155  0071  3080               	movwf	(SerialBegin@BaudRate)
  1156  0072  00B2               
  1157                           	fcall	_SerialBegin
  1158  0073  120A  118A  2146  120A  118A  	line	32
  1159                           	
  1160                           l2645:	
  1161  0078                     ;LIFPIC.c: 32:     pinMode(LED,0);
  1162                           	clrf	(pinMode@mode)
  1163  0078  01F0               	bcf	status, 5	;RP0=0, select bank0
  1164  0079  1283               	bcf	status, 6	;RP1=0, select bank0
  1165  007A  1303               	movf	(_LED),w
  1166  007B  0838               	fcall	_pinMode
  1167  007C  120A  118A  2564  120A  118A  	line	33
  1168                           ;LIFPIC.c: 33:  while(Valor != 1)
  1169                           	goto	l2659
  1170  0081  28AA               	
  1171                           l436:	
  1172  0082                     	line	35
  1173                           	
  1174                           l2647:	
  1175  0082                     ;LIFPIC.c: 34:  {;LIFPIC.c: 35:         digitalWrite(LED,1);
  1176                           	clrf	(digitalWrite@value)
  1177  0082  01F0               	incf	(digitalWrite@value),f
  1178  0083  0AF0               	bcf	status, 5	;RP0=0, select bank0
  1179  0084  1283               	bcf	status, 6	;RP1=0, select bank0
  1180  0085  1303               	movf	(_LED),w
  1181  0086  0838               	fcall	_digitalWrite
  1182  0087  120A  118A  242D  120A  118A  	line	36
  1183                           	
  1184                           l2649:	
  1185  008C                     ;LIFPIC.c: 36:         dada = SerialRead();
  1186                           	fcall	_SerialRead
  1187  008C  120A  158A  2780  120A  118A  	movwf	(??_setup+0)+0
  1188  0091  00FD               	movf	(??_setup+0)+0,w
  1189  0092  087D               	bcf	status, 5	;RP0=0, select bank0
  1190  0093  1283               	bcf	status, 6	;RP1=0, select bank0
  1191  0094  1303               	movwf	(_dada)
  1192  0095  00A8               	line	37
  1193                           	
  1194                           l2651:	
  1195  0096                     ;LIFPIC.c: 37:         SerialWrite('k');
  1196                           	movlw	low(06Bh)
  1197  0096  306B               	fcall	_SerialWrite
  1198  0097  120A  158A  278B  120A  118A  	line	38
  1199                           	
  1200                           l2653:	
  1201  009C                     ;LIFPIC.c: 38:         if(dada == 'k')
  1202                           		movlw	107
  1203  009C  306B               	bcf	status, 5	;RP0=0, select bank0
  1204  009D  1283               	bcf	status, 6	;RP1=0, select bank0
  1205  009E  1303               	xorwf	((_dada)),w
  1206  009F  0628               	btfss	status,2
  1207  00A0  1D03               	goto	u921
  1208  00A1  28A3               	goto	u920
  1209  00A2  28A4               u921:
  1210  00A3                     	goto	l2657
  1211  00A3  28A7               u920:
  1212  00A4                     	line	40
  1213                           	
  1214                           l2655:	
  1215  00A4                     ;LIFPIC.c: 39:         {;LIFPIC.c: 40:             Valor = 1;
  1216                           	clrf	(_Valor)
  1217  00A4  01A9               	incf	(_Valor),f
  1218  00A5  0AA9               	line	41
  1219                           ;LIFPIC.c: 41:         }
  1220                           	goto	l2659
  1221  00A6  28AA               	line	42
  1222                           ;LIFPIC.c: 42:         else
  1223                           	
  1224                           l437:	
  1225  00A7                     	line	44
  1226                           	
  1227                           l2657:	
  1228  00A7                     ;LIFPIC.c: 43:         {;LIFPIC.c: 44:             Valor = 0;
  1229                           	clrf	(_Valor)
  1230  00A7  01A9               	goto	l2659
  1231  00A8  28AA               	line	45
  1232                           ;LIFPIC.c: 45:         }
  1233                           	
  1234                           l438:	
  1235  00A9                     	goto	l2659
  1236  00A9  28AA               	line	46
  1237                           ;LIFPIC.c: 46:  }
  1238                           	
  1239                           l435:	
  1240  00AA                     	line	33
  1241                           	
  1242                           l2659:	
  1243  00AA                     ;LIFPIC.c: 33:  while(Valor != 1)
  1244                           	bcf	status, 5	;RP0=0, select bank0
  1245  00AA  1283               	bcf	status, 6	;RP1=0, select bank0
  1246  00AB  1303               		decf	((_Valor)),w
  1247  00AC  0329               	btfss	status,2
  1248  00AD  1D03               	goto	u931
  1249  00AE  28B0               	goto	u930
  1250  00AF  28B1               u931:
  1251  00B0                     	goto	l2647
  1252  00B0  2882               u930:
  1253  00B1                     	goto	l2661
  1254  00B1  28B2               	
  1255                           l439:	
  1256  00B2                     	line	47
  1257                           	
  1258                           l2661:	
  1259  00B2                     ;LIFPIC.c: 47:     Valor = 0;
  1260                           	clrf	(_Valor)
  1261  00B2  01A9               	line	48
  1262                           ;LIFPIC.c: 48:     dada = 0;
  1263                           	clrf	(_dada)
  1264  00B3  01A8               	line	49
  1265                           	
  1266                           l2663:	
  1267  00B4                     ;LIFPIC.c: 49:     digitalWrite(LED,0);
  1268                           	clrf	(digitalWrite@value)
  1269  00B4  01F0               	movf	(_LED),w
  1270  00B5  0838               	fcall	_digitalWrite
  1271  00B6  120A  118A  242D  120A  118A  	line	50
  1272                           	
  1273                           l2665:	
  1274  00BB                     ;LIFPIC.c: 50:  Estado = Recibir;
  1275                           	bcf	status, 5	;RP0=0, select bank0
  1276  00BB  1283               	bcf	status, 6	;RP1=0, select bank0
  1277  00BC  1303               	clrf	(_Estado)
  1278  00BD  01AB               	incf	(_Estado),f
  1279  00BE  0AAB               	line	51
  1280                           	
  1281                           l440:	
  1282  00BF                     	return
  1283  00BF  0008               	opt stack 0
  1284                           GLOBAL	__end_of_setup
  1285                           	__end_of_setup:
  1286  00C0                     	signat	_setup,89
  1287                           	global	_SerialBegin
  1288                           
  1289 ;; *************** function _SerialBegin *****************
  1290 ;; Defined at:
  1291 ;;		line 436 in file "source.c"
  1292 ;; Parameters:    Size  Location     Type
  1293 ;;  BaudRate        4    6[BANK0 ] const long 
  1294 ;; Auto vars:     Size  Location     Type
  1295 ;;  x               2   10[BANK0 ] unsigned int 
  1296 ;; Return value:  Size  Location     Type
  1297 ;;                  1    wreg      unsigned char 
  1298 ;; Registers used:
  1299 ;;		wreg, status,2, status,0, pclath, cstack
  1300 ;; Tracked objects:
  1301 ;;		On entry : 0/0
  1302 ;;		On exit  : 0/0
  1303 ;;		Unchanged: 0/0
  1304 ;; Data sizes:     COMMON   BANK0   BANK1   BANK3   BANK2
  1305 ;;      Params:         0       4       0       0       0
  1306 ;;      Locals:         0       2       0       0       0
  1307 ;;      Temps:          4       0       0       0       0
  1308 ;;      Totals:         4       6       0       0       0
  1309 ;;Total ram usage:       10 bytes
  1310 ;; Hardware stack levels used:    1
  1311 ;; Hardware stack levels required when called:    1
  1312 ;; This function calls:
  1313 ;;		___aldiv
  1314 ;; This function is called by:
  1315 ;;		_setup
  1316 ;; This function uses a non-reentrant model
  1317 ;;
  1318                           psect	text2,local,class=CODE,delta=2,merge=1,group=0
  1319                           	file	"source.c"
  1320                           	line	436
  1321                           global __ptext2
  1322                           __ptext2:	;psect for function _SerialBegin
  1323  0146                     psect	text2
  1324                           	file	"source.c"
  1325                           	line	436
  1326                           	global	__size_of_SerialBegin
  1327                           	__size_of_SerialBegin	equ	__end_of_SerialBegin-_SerialBegin
  1328  00A5                     	
  1329                           _SerialBegin:	
  1330  0146                     ;incstack = 0
  1331                           	opt	stack 5
  1332                           ; Regs used in _SerialBegin: [wreg+status,2+status,0+pclath+cstack]
  1333                           	line	442
  1334                           	
  1335                           l2505:	
  1336  0146                     ;source.c: 436: char SerialBegin(const long int BaudRate);source.c: 437: {;source.c: 441
                                 :  unsigned int x;;source.c: 442:  BRGH = 0;
  1337                           	bsf	status, 5	;RP0=1, select bank1
  1338  0146  1683               	bcf	status, 6	;RP1=0, select bank1
  1339  0147  1303               	bcf	(1218/8)^080h,(1218)&7	;volatile
  1340  0148  1118               	line	443
  1341                           	
  1342                           l2507:	
  1343  0149                     ;source.c: 443:  x = (20000000 / (64 * BaudRate)) - 1;
  1344                           	bcf	status, 5	;RP0=0, select bank0
  1345  0149  1283               	bcf	status, 6	;RP1=0, select bank0
  1346  014A  1303               	movf	(SerialBegin@BaudRate),w
  1347  014B  0832               	movwf	(??_SerialBegin+0)+0
  1348  014C  00F9               	movf	(SerialBegin@BaudRate+1),w
  1349  014D  0833               	movwf	((??_SerialBegin+0)+0+1)
  1350  014E  00FA               	movf	(SerialBegin@BaudRate+2),w
  1351  014F  0834               	movwf	((??_SerialBegin+0)+0+2)
  1352  0150  00FB               	movf	(SerialBegin@BaudRate+3),w
  1353  0151  0835               	movwf	((??_SerialBegin+0)+0+3)
  1354  0152  00FC               	movlw	06h
  1355  0153  3006               u815:
  1356  0154                     	clrc
  1357  0154  1003               	rlf	(??_SerialBegin+0)+0,f
  1358  0155  0DF9               	rlf	(??_SerialBegin+0)+1,f
  1359  0156  0DFA               	rlf	(??_SerialBegin+0)+2,f
  1360  0157  0DFB               	rlf	(??_SerialBegin+0)+3,f
  1361  0158  0DFC               u810:
  1362  0159                     	addlw	-1
  1363  0159  3EFF               	skipz
  1364  015A  1D03               	goto	u815
  1365  015B  2954               	movf	3+(??_SerialBegin+0)+0,w
  1366  015C  087C               	movwf	(___aldiv@divisor+3)
  1367  015D  00F3               	movf	2+(??_SerialBegin+0)+0,w
  1368  015E  087B               	movwf	(___aldiv@divisor+2)
  1369  015F  00F2               	movf	1+(??_SerialBegin+0)+0,w
  1370  0160  087A               	movwf	(___aldiv@divisor+1)
  1371  0161  00F1               	movf	0+(??_SerialBegin+0)+0,w
  1372  0162  0879               	movwf	(___aldiv@divisor)
  1373  0163  00F0               
  1374                           	movlw	01h
  1375  0164  3001               	movwf	(___aldiv@dividend+3)
  1376  0165  00F7               	movlw	031h
  1377  0166  3031               	movwf	(___aldiv@dividend+2)
  1378  0167  00F6               	movlw	02Dh
  1379  0168  302D               	movwf	(___aldiv@dividend+1)
  1380  0169  00F5               	movlw	0
  1381  016A  3000               	movwf	(___aldiv@dividend)
  1382  016B  00F4               
  1383                           	fcall	___aldiv
  1384  016C  120A  118A  21EB  120A  118A  	movf	(0+(?___aldiv)),w
  1385  0171  0870               	addlw	low(0FFFFh)
  1386  0172  3EFF               	bcf	status, 5	;RP0=0, select bank0
  1387  0173  1283               	bcf	status, 6	;RP1=0, select bank0
  1388  0174  1303               	movwf	(SerialBegin@x)
  1389  0175  00B6               	movf	(1+(?___aldiv)),w
  1390  0176  0871               	skipnc
  1391  0177  1803               	addlw	1
  1392  0178  3E01               	addlw	high(0FFFFh)
  1393  0179  3EFF               	movwf	1+(SerialBegin@x)
  1394  017A  00B7               	line	444
  1395                           	
  1396                           l2509:	
  1397  017B                     ;source.c: 444:  if(x > 255)
  1398                           	movlw	01h
  1399  017B  3001               	subwf	(SerialBegin@x+1),w
  1400  017C  0237               	movlw	0
  1401  017D  3000               	skipnz
  1402  017E  1903               	subwf	(SerialBegin@x),w
  1403  017F  0236               	skipc
  1404  0180  1C03               	goto	u821
  1405  0181  2983               	goto	u820
  1406  0182  2984               u821:
  1407  0183                     	goto	l2537
  1408  0183  29D2               u820:
  1409  0184                     	line	446
  1410                           	
  1411                           l2511:	
  1412  0184                     ;source.c: 445:  {;source.c: 446:   BRGH = 1;
  1413                           	bsf	status, 5	;RP0=1, select bank1
  1414  0184  1683               	bcf	status, 6	;RP1=0, select bank1
  1415  0185  1303               	bsf	(1218/8)^080h,(1218)&7	;volatile
  1416  0186  1518               	line	447
  1417                           	
  1418                           l2513:	
  1419  0187                     ;source.c: 447:   x = (20000000 / (16 * BaudRate)) - 1;
  1420                           	bcf	status, 5	;RP0=0, select bank0
  1421  0187  1283               	bcf	status, 6	;RP1=0, select bank0
  1422  0188  1303               	movf	(SerialBegin@BaudRate),w
  1423  0189  0832               	movwf	(??_SerialBegin+0)+0
  1424  018A  00F9               	movf	(SerialBegin@BaudRate+1),w
  1425  018B  0833               	movwf	((??_SerialBegin+0)+0+1)
  1426  018C  00FA               	movf	(SerialBegin@BaudRate+2),w
  1427  018D  0834               	movwf	((??_SerialBegin+0)+0+2)
  1428  018E  00FB               	movf	(SerialBegin@BaudRate+3),w
  1429  018F  0835               	movwf	((??_SerialBegin+0)+0+3)
  1430  0190  00FC               	movlw	04h
  1431  0191  3004               u835:
  1432  0192                     	clrc
  1433  0192  1003               	rlf	(??_SerialBegin+0)+0,f
  1434  0193  0DF9               	rlf	(??_SerialBegin+0)+1,f
  1435  0194  0DFA               	rlf	(??_SerialBegin+0)+2,f
  1436  0195  0DFB               	rlf	(??_SerialBegin+0)+3,f
  1437  0196  0DFC               u830:
  1438  0197                     	addlw	-1
  1439  0197  3EFF               	skipz
  1440  0198  1D03               	goto	u835
  1441  0199  2992               	movf	3+(??_SerialBegin+0)+0,w
  1442  019A  087C               	movwf	(___aldiv@divisor+3)
  1443  019B  00F3               	movf	2+(??_SerialBegin+0)+0,w
  1444  019C  087B               	movwf	(___aldiv@divisor+2)
  1445  019D  00F2               	movf	1+(??_SerialBegin+0)+0,w
  1446  019E  087A               	movwf	(___aldiv@divisor+1)
  1447  019F  00F1               	movf	0+(??_SerialBegin+0)+0,w
  1448  01A0  0879               	movwf	(___aldiv@divisor)
  1449  01A1  00F0               
  1450                           	movlw	01h
  1451  01A2  3001               	movwf	(___aldiv@dividend+3)
  1452  01A3  00F7               	movlw	031h
  1453  01A4  3031               	movwf	(___aldiv@dividend+2)
  1454  01A5  00F6               	movlw	02Dh
  1455  01A6  302D               	movwf	(___aldiv@dividend+1)
  1456  01A7  00F5               	movlw	0
  1457  01A8  3000               	movwf	(___aldiv@dividend)
  1458  01A9  00F4               
  1459                           	fcall	___aldiv
  1460  01AA  120A  118A  21EB  120A  118A  	movf	(0+(?___aldiv)),w
  1461  01AF  0870               	addlw	low(0FFFFh)
  1462  01B0  3EFF               	bcf	status, 5	;RP0=0, select bank0
  1463  01B1  1283               	bcf	status, 6	;RP1=0, select bank0
  1464  01B2  1303               	movwf	(SerialBegin@x)
  1465  01B3  00B6               	movf	(1+(?___aldiv)),w
  1466  01B4  0871               	skipnc
  1467  01B5  1803               	addlw	1
  1468  01B6  3E01               	addlw	high(0FFFFh)
  1469  01B7  3EFF               	movwf	1+(SerialBegin@x)
  1470  01B8  00B7               	line	448
  1471                           	
  1472                           l2515:	
  1473  01B9                     ;source.c: 448:   SPBRG = x;
  1474                           	movf	(SerialBegin@x),w
  1475  01B9  0836               	bsf	status, 5	;RP0=1, select bank1
  1476  01BA  1683               	bcf	status, 6	;RP1=0, select bank1
  1477  01BB  1303               	movwf	(153)^080h	;volatile
  1478  01BC  0099               	line	449
  1479                           	
  1480                           l2517:	
  1481  01BD                     ;source.c: 449:   SYNC = 0;
  1482                           	bcf	(1220/8)^080h,(1220)&7	;volatile
  1483  01BD  1218               	line	450
  1484                           	
  1485                           l2519:	
  1486  01BE                     ;source.c: 450:   SPEN = 1;
  1487                           	bcf	status, 5	;RP0=0, select bank0
  1488  01BE  1283               	bcf	status, 6	;RP1=0, select bank0
  1489  01BF  1303               	bsf	(199/8),(199)&7	;volatile
  1490  01C0  1798               	line	451
  1491                           	
  1492                           l2521:	
  1493  01C1                     ;source.c: 451:   TRISC7 = 1;
  1494                           	bsf	status, 5	;RP0=1, select bank1
  1495  01C1  1683               	bcf	status, 6	;RP1=0, select bank1
  1496  01C2  1303               	bsf	(1087/8)^080h,(1087)&7	;volatile
  1497  01C3  1787               	line	452
  1498                           	
  1499                           l2523:	
  1500  01C4                     ;source.c: 452:   TRISC6 = 1;
  1501                           	bsf	(1086/8)^080h,(1086)&7	;volatile
  1502  01C4  1707               	line	453
  1503                           	
  1504                           l2525:	
  1505  01C5                     ;source.c: 453:   CREN = 1;
  1506                           	bcf	status, 5	;RP0=0, select bank0
  1507  01C5  1283               	bcf	status, 6	;RP1=0, select bank0
  1508  01C6  1303               	bsf	(196/8),(196)&7	;volatile
  1509  01C7  1618               	line	454
  1510                           	
  1511                           l2527:	
  1512  01C8                     ;source.c: 454:   TXEN = 1;
  1513                           	bsf	status, 5	;RP0=1, select bank1
  1514  01C8  1683               	bcf	status, 6	;RP1=0, select bank1
  1515  01C9  1303               	bsf	(1221/8)^080h,(1221)&7	;volatile
  1516  01CA  1698               	line	455
  1517                           	
  1518                           l2529:	
  1519  01CB                     ;source.c: 455:         TXREG = 0x00;
  1520                           	bcf	status, 5	;RP0=0, select bank0
  1521  01CB  1283               	bcf	status, 6	;RP1=0, select bank0
  1522  01CC  1303               	clrf	(25)	;volatile
  1523  01CD  0199               	line	456
  1524                           	
  1525                           l2531:	
  1526  01CE                     ;source.c: 456:         RCREG = 0x00;
  1527                           	clrf	(26)	;volatile
  1528  01CE  019A               	goto	l294
  1529  01CF  29EA               	line	457
  1530                           	
  1531                           l2533:	
  1532  01D0                     ;source.c: 457:   return 0;;	Return value of _SerialBegin is never used
  1533                           	goto	l294
  1534  01D0  29EA               	line	458
  1535                           	
  1536                           l2535:	
  1537  01D1                     ;source.c: 458:  }
  1538                           	goto	l294
  1539  01D1  29EA               	line	459
  1540                           ;source.c: 459:  else
  1541                           	
  1542                           l293:	
  1543  01D2                     	line	461
  1544                           	
  1545                           l2537:	
  1546  01D2                     ;source.c: 460:  {;source.c: 461:   SPBRG = x;
  1547                           	movf	(SerialBegin@x),w
  1548  01D2  0836               	bsf	status, 5	;RP0=1, select bank1
  1549  01D3  1683               	bcf	status, 6	;RP1=0, select bank1
  1550  01D4  1303               	movwf	(153)^080h	;volatile
  1551  01D5  0099               	line	462
  1552                           	
  1553                           l2539:	
  1554  01D6                     ;source.c: 462:   SYNC = 0;
  1555                           	bcf	(1220/8)^080h,(1220)&7	;volatile
  1556  01D6  1218               	line	463
  1557                           	
  1558                           l2541:	
  1559  01D7                     ;source.c: 463:   SPEN = 1;
  1560                           	bcf	status, 5	;RP0=0, select bank0
  1561  01D7  1283               	bcf	status, 6	;RP1=0, select bank0
  1562  01D8  1303               	bsf	(199/8),(199)&7	;volatile
  1563  01D9  1798               	line	464
  1564                           	
  1565                           l2543:	
  1566  01DA                     ;source.c: 464:   TRISC7 = 1;
  1567                           	bsf	status, 5	;RP0=1, select bank1
  1568  01DA  1683               	bcf	status, 6	;RP1=0, select bank1
  1569  01DB  1303               	bsf	(1087/8)^080h,(1087)&7	;volatile
  1570  01DC  1787               	line	465
  1571                           	
  1572                           l2545:	
  1573  01DD                     ;source.c: 465:   TRISC6 = 1;
  1574                           	bsf	(1086/8)^080h,(1086)&7	;volatile
  1575  01DD  1707               	line	466
  1576                           	
  1577                           l2547:	
  1578  01DE                     ;source.c: 466:   CREN = 1;
  1579                           	bcf	status, 5	;RP0=0, select bank0
  1580  01DE  1283               	bcf	status, 6	;RP1=0, select bank0
  1581  01DF  1303               	bsf	(196/8),(196)&7	;volatile
  1582  01E0  1618               	line	467
  1583                           	
  1584                           l2549:	
  1585  01E1                     ;source.c: 467:   TXEN = 1;
  1586                           	bsf	status, 5	;RP0=1, select bank1
  1587  01E1  1683               	bcf	status, 6	;RP1=0, select bank1
  1588  01E2  1303               	bsf	(1221/8)^080h,(1221)&7	;volatile
  1589  01E3  1698               	line	468
  1590                           	
  1591                           l2551:	
  1592  01E4                     ;source.c: 468:         TXREG = 0x00;
  1593                           	bcf	status, 5	;RP0=0, select bank0
  1594  01E4  1283               	bcf	status, 6	;RP1=0, select bank0
  1595  01E5  1303               	clrf	(25)	;volatile
  1596  01E6  0199               	line	469
  1597                           	
  1598                           l2553:	
  1599  01E7                     ;source.c: 469:         RCREG = 0x00;
  1600                           	clrf	(26)	;volatile
  1601  01E7  019A               	goto	l294
  1602  01E8  29EA               	line	470
  1603                           	
  1604                           l2555:	
  1605  01E9                     ;source.c: 470:   return 1;;	Return value of _SerialBegin is never used
  1606                           	goto	l294
  1607  01E9  29EA               	line	471
  1608                           ;source.c: 471:  }
  1609                           	
  1610                           l295:	
  1611  01EA                     	line	472
  1612                           	
  1613                           l294:	
  1614  01EA                     	return
  1615  01EA  0008               	opt stack 0
  1616                           GLOBAL	__end_of_SerialBegin
  1617                           	__end_of_SerialBegin:
  1618  01EB                     	signat	_SerialBegin,4217
  1619                           	global	___aldiv
  1620                           
  1621 ;; *************** function ___aldiv *****************
  1622 ;; Defined at:
  1623 ;;		line 5 in file "C:\Program Files (x86)\Microchip\xc8\v2.00\pic\sources\c90\common\aldiv.c"
  1624 ;; Parameters:    Size  Location     Type
  1625 ;;  divisor         4    0[COMMON] long 
  1626 ;;  dividend        4    4[COMMON] long 
  1627 ;; Auto vars:     Size  Location     Type
  1628 ;;  quotient        4    2[BANK0 ] long 
  1629 ;;  sign            1    1[BANK0 ] unsigned char 
  1630 ;;  counter         1    0[BANK0 ] unsigned char 
  1631 ;; Return value:  Size  Location     Type
  1632 ;;                  4    0[COMMON] long 
  1633 ;; Registers used:
  1634 ;;		wreg, status,2, status,0
  1635 ;; Tracked objects:
  1636 ;;		On entry : 0/0
  1637 ;;		On exit  : 0/0
  1638 ;;		Unchanged: 0/0
  1639 ;; Data sizes:     COMMON   BANK0   BANK1   BANK3   BANK2
  1640 ;;      Params:         8       0       0       0       0
  1641 ;;      Locals:         0       6       0       0       0
  1642 ;;      Temps:          1       0       0       0       0
  1643 ;;      Totals:         9       6       0       0       0
  1644 ;;Total ram usage:       15 bytes
  1645 ;; Hardware stack levels used:    1
  1646 ;; This function calls:
  1647 ;;		Nothing
  1648 ;; This function is called by:
  1649 ;;		_SerialBegin
  1650 ;; This function uses a non-reentrant model
  1651 ;;
  1652                           psect	text3,local,class=CODE,delta=2,merge=1,group=1
  1653                           	file	"C:\Program Files (x86)\Microchip\xc8\v2.00\pic\sources\c90\common\aldiv.c"
  1654                           	line	5
  1655                           global __ptext3
  1656                           __ptext3:	;psect for function ___aldiv
  1657  01EB                     psect	text3
  1658                           	file	"C:\Program Files (x86)\Microchip\xc8\v2.00\pic\sources\c90\common\aldiv.c"
  1659                           	line	5
  1660                           	global	__size_of___aldiv
  1661                           	__size_of___aldiv	equ	__end_of___aldiv-___aldiv
  1662  00A6                     	
  1663                           ___aldiv:	
  1664  01EB                     ;incstack = 0
  1665                           	opt	stack 5
  1666                           ; Regs used in ___aldiv: [wreg+status,2+status,0]
  1667                           	line	13
  1668                           	
  1669                           l2465:	
  1670  01EB                     	bcf	status, 5	;RP0=0, select bank0
  1671  01EB  1283               	bcf	status, 6	;RP1=0, select bank0
  1672  01EC  1303               	clrf	(___aldiv@sign)
  1673  01ED  01AD               	line	14
  1674                           	
  1675                           l2467:	
  1676  01EE                     	btfss	(___aldiv@divisor+3),7
  1677  01EE  1FF3               	goto	u711
  1678  01EF  29F1               	goto	u710
  1679  01F0  29F2               u711:
  1680  01F1                     	goto	l629
  1681  01F1  29FF               u710:
  1682  01F2                     	line	15
  1683                           	
  1684                           l2469:	
  1685  01F2                     	comf	(___aldiv@divisor),f
  1686  01F2  09F0               	comf	(___aldiv@divisor+1),f
  1687  01F3  09F1               	comf	(___aldiv@divisor+2),f
  1688  01F4  09F2               	comf	(___aldiv@divisor+3),f
  1689  01F5  09F3               	incf	(___aldiv@divisor),f
  1690  01F6  0AF0               	skipnz
  1691  01F7  1903               	incf	(___aldiv@divisor+1),f
  1692  01F8  0AF1               	skipnz
  1693  01F9  1903               	incf	(___aldiv@divisor+2),f
  1694  01FA  0AF2               	skipnz
  1695  01FB  1903               	incf	(___aldiv@divisor+3),f
  1696  01FC  0AF3               	line	16
  1697                           	clrf	(___aldiv@sign)
  1698  01FD  01AD               	incf	(___aldiv@sign),f
  1699  01FE  0AAD               	line	17
  1700                           	
  1701                           l629:	
  1702  01FF                     	line	18
  1703                           	btfss	(___aldiv@dividend+3),7
  1704  01FF  1FF7               	goto	u721
  1705  0200  2A02               	goto	u720
  1706  0201  2A03               u721:
  1707  0202                     	goto	l2475
  1708  0202  2A13               u720:
  1709  0203                     	line	19
  1710                           	
  1711                           l2471:	
  1712  0203                     	comf	(___aldiv@dividend),f
  1713  0203  09F4               	comf	(___aldiv@dividend+1),f
  1714  0204  09F5               	comf	(___aldiv@dividend+2),f
  1715  0205  09F6               	comf	(___aldiv@dividend+3),f
  1716  0206  09F7               	incf	(___aldiv@dividend),f
  1717  0207  0AF4               	skipnz
  1718  0208  1903               	incf	(___aldiv@dividend+1),f
  1719  0209  0AF5               	skipnz
  1720  020A  1903               	incf	(___aldiv@dividend+2),f
  1721  020B  0AF6               	skipnz
  1722  020C  1903               	incf	(___aldiv@dividend+3),f
  1723  020D  0AF7               	line	20
  1724                           	
  1725                           l2473:	
  1726  020E                     	movlw	low(01h)
  1727  020E  3001               	movwf	(??___aldiv+0)+0
  1728  020F  00F8               	movf	(??___aldiv+0)+0,w
  1729  0210  0878               	xorwf	(___aldiv@sign),f
  1730  0211  06AD               	goto	l2475
  1731  0212  2A13               	line	21
  1732                           	
  1733                           l630:	
  1734  0213                     	line	22
  1735                           	
  1736                           l2475:	
  1737  0213                     	movlw	high highword(0)
  1738  0213  3000               	movwf	(___aldiv@quotient+3)
  1739  0214  00B1               	movlw	low highword(0)
  1740  0215  3000               	movwf	(___aldiv@quotient+2)
  1741  0216  00B0               	movlw	high(0)
  1742  0217  3000               	movwf	(___aldiv@quotient+1)
  1743  0218  00AF               	movlw	low(0)
  1744  0219  3000               	movwf	(___aldiv@quotient)
  1745  021A  00AE               
  1746                           	line	23
  1747                           	
  1748                           l2477:	
  1749  021B                     	movf	(___aldiv@divisor+3),w
  1750  021B  0873               	iorwf	(___aldiv@divisor+2),w
  1751  021C  0472               	iorwf	(___aldiv@divisor+1),w
  1752  021D  0471               	iorwf	(___aldiv@divisor),w
  1753  021E  0470               	skipnz
  1754  021F  1903               	goto	u731
  1755  0220  2A22               	goto	u730
  1756  0221  2A23               u731:
  1757  0222                     	goto	l2497
  1758  0222  2A76               u730:
  1759  0223                     	line	24
  1760                           	
  1761                           l2479:	
  1762  0223                     	clrf	(___aldiv@counter)
  1763  0223  01AC               	incf	(___aldiv@counter),f
  1764  0224  0AAC               	line	25
  1765                           	goto	l2483
  1766  0225  2A34               	
  1767                           l633:	
  1768  0226                     	line	26
  1769                           	
  1770                           l2481:	
  1771  0226                     	movlw	01h
  1772  0226  3001               	movwf	(??___aldiv+0)+0
  1773  0227  00F8               u745:
  1774  0228                     	clrc
  1775  0228  1003               	rlf	(___aldiv@divisor),f
  1776  0229  0DF0               	rlf	(___aldiv@divisor+1),f
  1777  022A  0DF1               	rlf	(___aldiv@divisor+2),f
  1778  022B  0DF2               	rlf	(___aldiv@divisor+3),f
  1779  022C  0DF3               	decfsz	(??___aldiv+0)+0
  1780  022D  0BF8               	goto	u745
  1781  022E  2A28               	line	27
  1782                           	movlw	low(01h)
  1783  022F  3001               	movwf	(??___aldiv+0)+0
  1784  0230  00F8               	movf	(??___aldiv+0)+0,w
  1785  0231  0878               	addwf	(___aldiv@counter),f
  1786  0232  07AC               	goto	l2483
  1787  0233  2A34               	line	28
  1788                           	
  1789                           l632:	
  1790  0234                     	line	25
  1791                           	
  1792                           l2483:	
  1793  0234                     	btfss	(___aldiv@divisor+3),(31)&7
  1794  0234  1FF3               	goto	u751
  1795  0235  2A37               	goto	u750
  1796  0236  2A38               u751:
  1797  0237                     	goto	l2481
  1798  0237  2A26               u750:
  1799  0238                     	goto	l2485
  1800  0238  2A3A               	
  1801                           l634:	
  1802  0239                     	goto	l2485
  1803  0239  2A3A               	line	29
  1804                           	
  1805                           l635:	
  1806  023A                     	line	30
  1807                           	
  1808                           l2485:	
  1809  023A                     	movlw	01h
  1810  023A  3001               	movwf	(??___aldiv+0)+0
  1811  023B  00F8               u765:
  1812  023C                     	clrc
  1813  023C  1003               	rlf	(___aldiv@quotient),f
  1814  023D  0DAE               	rlf	(___aldiv@quotient+1),f
  1815  023E  0DAF               	rlf	(___aldiv@quotient+2),f
  1816  023F  0DB0               	rlf	(___aldiv@quotient+3),f
  1817  0240  0DB1               	decfsz	(??___aldiv+0)+0
  1818  0241  0BF8               	goto	u765
  1819  0242  2A3C               	line	31
  1820                           	
  1821                           l2487:	
  1822  0243                     	movf	(___aldiv@divisor+3),w
  1823  0243  0873               	subwf	(___aldiv@dividend+3),w
  1824  0244  0277               	skipz
  1825  0245  1D03               	goto	u775
  1826  0246  2A51               	movf	(___aldiv@divisor+2),w
  1827  0247  0872               	subwf	(___aldiv@dividend+2),w
  1828  0248  0276               	skipz
  1829  0249  1D03               	goto	u775
  1830  024A  2A51               	movf	(___aldiv@divisor+1),w
  1831  024B  0871               	subwf	(___aldiv@dividend+1),w
  1832  024C  0275               	skipz
  1833  024D  1D03               	goto	u775
  1834  024E  2A51               	movf	(___aldiv@divisor),w
  1835  024F  0870               	subwf	(___aldiv@dividend),w
  1836  0250  0274               u775:
  1837  0251                     	skipc
  1838  0251  1C03               	goto	u771
  1839  0252  2A54               	goto	u770
  1840  0253  2A55               u771:
  1841  0254                     	goto	l2493
  1842  0254  2A65               u770:
  1843  0255                     	line	32
  1844                           	
  1845                           l2489:	
  1846  0255                     	movf	(___aldiv@divisor),w
  1847  0255  0870               	subwf	(___aldiv@dividend),f
  1848  0256  02F4               	movf	(___aldiv@divisor+1),w
  1849  0257  0871               	skipc
  1850  0258  1C03               	incfsz	(___aldiv@divisor+1),w
  1851  0259  0F71               	subwf	(___aldiv@dividend+1),f
  1852  025A  02F5               	movf	(___aldiv@divisor+2),w
  1853  025B  0872               	skipc
  1854  025C  1C03               	incfsz	(___aldiv@divisor+2),w
  1855  025D  0F72               	subwf	(___aldiv@dividend+2),f
  1856  025E  02F6               	movf	(___aldiv@divisor+3),w
  1857  025F  0873               	skipc
  1858  0260  1C03               	incfsz	(___aldiv@divisor+3),w
  1859  0261  0F73               	subwf	(___aldiv@dividend+3),f
  1860  0262  02F7               	line	33
  1861                           	
  1862                           l2491:	
  1863  0263                     	bsf	(___aldiv@quotient)+(0/8),(0)&7
  1864  0263  142E               	goto	l2493
  1865  0264  2A65               	line	34
  1866                           	
  1867                           l636:	
  1868  0265                     	line	35
  1869                           	
  1870                           l2493:	
  1871  0265                     	movlw	01h
  1872  0265  3001               u785:
  1873  0266                     	clrc
  1874  0266  1003               	rrf	(___aldiv@divisor+3),f
  1875  0267  0CF3               	rrf	(___aldiv@divisor+2),f
  1876  0268  0CF2               	rrf	(___aldiv@divisor+1),f
  1877  0269  0CF1               	rrf	(___aldiv@divisor),f
  1878  026A  0CF0               	addlw	-1
  1879  026B  3EFF               	skipz
  1880  026C  1D03               	goto	u785
  1881  026D  2A66               
  1882                           	line	36
  1883                           	
  1884                           l2495:	
  1885  026E                     	movlw	01h
  1886  026E  3001               	subwf	(___aldiv@counter),f
  1887  026F  02AC               	btfss	status,2
  1888  0270  1D03               	goto	u791
  1889  0271  2A73               	goto	u790
  1890  0272  2A74               u791:
  1891  0273                     	goto	l2485
  1892  0273  2A3A               u790:
  1893  0274                     	goto	l2497
  1894  0274  2A76               	
  1895                           l637:	
  1896  0275                     	goto	l2497
  1897  0275  2A76               	line	37
  1898                           	
  1899                           l631:	
  1900  0276                     	line	38
  1901                           	
  1902                           l2497:	
  1903  0276                     	movf	((___aldiv@sign)),w
  1904  0276  082D               	btfsc	status,2
  1905  0277  1903               	goto	u801
  1906  0278  2A7A               	goto	u800
  1907  0279  2A7B               u801:
  1908  027A                     	goto	l2501
  1909  027A  2A87               u800:
  1910  027B                     	line	39
  1911                           	
  1912                           l2499:	
  1913  027B                     	comf	(___aldiv@quotient),f
  1914  027B  09AE               	comf	(___aldiv@quotient+1),f
  1915  027C  09AF               	comf	(___aldiv@quotient+2),f
  1916  027D  09B0               	comf	(___aldiv@quotient+3),f
  1917  027E  09B1               	incf	(___aldiv@quotient),f
  1918  027F  0AAE               	skipnz
  1919  0280  1903               	incf	(___aldiv@quotient+1),f
  1920  0281  0AAF               	skipnz
  1921  0282  1903               	incf	(___aldiv@quotient+2),f
  1922  0283  0AB0               	skipnz
  1923  0284  1903               	incf	(___aldiv@quotient+3),f
  1924  0285  0AB1               	goto	l2501
  1925  0286  2A87               	
  1926                           l638:	
  1927  0287                     	line	40
  1928                           	
  1929                           l2501:	
  1930  0287                     	movf	(___aldiv@quotient+3),w
  1931  0287  0831               	movwf	(?___aldiv+3)
  1932  0288  00F3               	movf	(___aldiv@quotient+2),w
  1933  0289  0830               	movwf	(?___aldiv+2)
  1934  028A  00F2               	movf	(___aldiv@quotient+1),w
  1935  028B  082F               	movwf	(?___aldiv+1)
  1936  028C  00F1               	movf	(___aldiv@quotient),w
  1937  028D  082E               	movwf	(?___aldiv)
  1938  028E  00F0               
  1939                           	goto	l639
  1940  028F  2A90               	
  1941                           l2503:	
  1942  0290                     	line	41
  1943                           	
  1944                           l639:	
  1945  0290                     	return
  1946  0290  0008               	opt stack 0
  1947                           GLOBAL	__end_of___aldiv
  1948                           	__end_of___aldiv:
  1949  0291                     	signat	___aldiv,8316
  1950                           	global	_loop
  1951                           
  1952 ;; *************** function _loop *****************
  1953 ;; Defined at:
  1954 ;;		line 53 in file "LIFPIC.c"
  1955 ;; Parameters:    Size  Location     Type
  1956 ;;		None
  1957 ;; Auto vars:     Size  Location     Type
  1958 ;;  j               2    5[BANK0 ] int 
  1959 ;;  i               2    3[BANK0 ] int 
  1960 ;; Return value:  Size  Location     Type
  1961 ;;                  1    wreg      void 
  1962 ;; Registers used:
  1963 ;;		wreg, fsr0l, fsr0h, status,2, status,0, btemp+1, pclath, cstack
  1964 ;; Tracked objects:
  1965 ;;		On entry : 0/0
  1966 ;;		On exit  : 0/0
  1967 ;;		Unchanged: 0/0
  1968 ;; Data sizes:     COMMON   BANK0   BANK1   BANK3   BANK2
  1969 ;;      Params:         0       0       0       0       0
  1970 ;;      Locals:         0       4       0       0       0
  1971 ;;      Temps:          0       3       0       0       0
  1972 ;;      Totals:         0       7       0       0       0
  1973 ;;Total ram usage:        7 bytes
  1974 ;; Hardware stack levels used:    1
  1975 ;; Hardware stack levels required when called:    2
  1976 ;; This function calls:
  1977 ;;		_ProcessCommand
  1978 ;;		_SerialAvailable
  1979 ;;		_SerialRead
  1980 ;;		_SerialWrite
  1981 ;; This function is called by:
  1982 ;;		_main
  1983 ;; This function uses a non-reentrant model
  1984 ;;
  1985                           psect	text4,local,class=CODE,delta=2,merge=1,group=0
  1986                           	file	"LIFPIC.c"
  1987                           	line	53
  1988                           global __ptext4
  1989                           __ptext4:	;psect for function _loop
  1990  0346                     psect	text4
  1991                           	file	"LIFPIC.c"
  1992                           	line	53
  1993                           	global	__size_of_loop
  1994                           	__size_of_loop	equ	__end_of_loop-_loop
  1995  00E7                     	
  1996                           _loop:	
  1997  0346                     ;incstack = 0
  1998                           	opt	stack 5
  1999                           ; Regs used in _loop: [wreg-fsr0h+status,2+status,0+btemp+1+pclath+cstack]
  2000                           	line	55
  2001                           	
  2002                           l2667:	
  2003  0346                     ;LIFPIC.c: 55:  if(SerialAvailable() >= 0)
  2004                           	fcall	_SerialAvailable
  2005  0346  120A  118A  200A  120A  118A  	line	57
  2006                           ;LIFPIC.c: 56:  {;LIFPIC.c: 57:   switch(Estado)
  2007                           	goto	l2729
  2008  034B  2C16               	line	59
  2009                           ;LIFPIC.c: 58:   {;LIFPIC.c: 59:    case Decode:
  2010                           	
  2011                           l445:	
  2012  034C                     	line	61
  2013                           	
  2014                           l2669:	
  2015  034C                     ;LIFPIC.c: 61:     Dato = ProcessCommand(Informacion[0],Informacion[1],Informacion[2],In
                                 formacion[3]);
  2016                           	bcf	status, 5	;RP0=0, select bank0
  2017  034C  1283               	bcf	status, 6	;RP1=0, select bank0
  2018  034D  1303               	movf	0+(_Informacion)+01h,w
  2019  034E  0821               	movwf	(??_loop+0)+0
  2020  034F  00AC               	movf	(??_loop+0)+0,w
  2021  0350  082C               	movwf	(ProcessCommand@port)
  2022  0351  00F5               	movf	0+(_Informacion)+02h,w
  2023  0352  0822               	movwf	(??_loop+1)+0
  2024  0353  00AD               	movf	(??_loop+1)+0,w
  2025  0354  082D               	movwf	(ProcessCommand@MSBData)
  2026  0355  00F6               	movf	0+(_Informacion)+03h,w
  2027  0356  0823               	movwf	(??_loop+2)+0
  2028  0357  00AE               	movf	(??_loop+2)+0,w
  2029  0358  082E               	movwf	(ProcessCommand@LSBData)
  2030  0359  00F7               	movf	(_Informacion),w
  2031  035A  0820               	fcall	_ProcessCommand
  2032  035B  120A  118A  2291  120A  118A  	movf	(1+(?_ProcessCommand)),w
  2033  0360  0876               	bcf	status, 5	;RP0=0, select bank0
  2034  0361  1283               	bcf	status, 6	;RP1=0, select bank0
  2035  0362  1303               	movwf	(_Dato+1)
  2036  0363  00A5               	movf	(0+(?_ProcessCommand)),w
  2037  0364  0875               	movwf	(_Dato)
  2038  0365  00A4               	line	63
  2039                           	
  2040                           l2671:	
  2041  0366                     ;LIFPIC.c: 63:     DataEnviar[0] = (Dato >> 8);
  2042                           	movf	(_Dato+1),w
  2043  0366  0825               	movwf	(??_loop+0)+0
  2044  0367  00AC               	movf	(??_loop+0)+0,w
  2045  0368  082C               	movwf	(_DataEnviar)
  2046  0369  00A6               	line	64
  2047                           	
  2048                           l2673:	
  2049  036A                     ;LIFPIC.c: 64:     DataEnviar[1] = Dato & 0xFF;
  2050                           	movf	(_Dato),w
  2051  036A  0824               	movwf	(??_loop+0)+0
  2052  036B  00AC               	movf	(??_loop+0)+0,w
  2053  036C  082C               	movwf	0+(_DataEnviar)+01h
  2054  036D  00A7               	line	65
  2055                           	
  2056                           l2675:	
  2057  036E                     ;LIFPIC.c: 65:     Estado = Enviar;
  2058                           	clrf	(_Estado)
  2059  036E  01AB               	line	66
  2060                           ;LIFPIC.c: 66:    break;
  2061                           	goto	l464
  2062  036F  2C2C               	line	67
  2063                           ;LIFPIC.c: 67:    case Recibir:
  2064                           	
  2065                           l447:	
  2066  0370                     	line	68
  2067                           ;LIFPIC.c: 68:     while(Valor != 1)
  2068                           	goto	l2693
  2069  0370  2BAD               	
  2070                           l449:	
  2071  0371                     	line	70
  2072                           	
  2073                           l2677:	
  2074  0371                     ;LIFPIC.c: 69:     {;LIFPIC.c: 70:      for(int i=0;i<BufferLenght;i++)
  2075                           	clrf	(loop@i)
  2076  0371  01AF               	clrf	(loop@i+1)
  2077  0372  01B0               	goto	l2683
  2078  0373  2B89               	
  2079                           l451:	
  2080  0374                     	line	72
  2081                           	
  2082                           l2679:	
  2083  0374                     ;LIFPIC.c: 71:      {;LIFPIC.c: 72:       Informacion[i] = SerialRead();
  2084                           	fcall	_SerialRead
  2085  0374  120A  158A  2780  120A  118A  	bcf	status, 5	;RP0=0, select bank0
  2086  0379  1283               	bcf	status, 6	;RP1=0, select bank0
  2087  037A  1303               	movwf	(??_loop+0)+0
  2088  037B  00AC               	movf	(loop@i),w
  2089  037C  082F               	addlw	low(_Informacion|((0x0)<<8))&0ffh
  2090  037D  3E20               	movwf	fsr0
  2091  037E  0084               	movf	(??_loop+0)+0,w
  2092  037F  082C               	bcf	status, 7	;select IRP bank0
  2093  0380  1383               	movwf	indf
  2094  0381  0080               	line	73
  2095                           	
  2096                           l2681:	
  2097  0382                     ;LIFPIC.c: 73:      }
  2098                           	movlw	01h
  2099  0382  3001               	addwf	(loop@i),f
  2100  0383  07AF               	skipnc
  2101  0384  1803               	incf	(loop@i+1),f
  2102  0385  0AB0               	movlw	0
  2103  0386  3000               	addwf	(loop@i+1),f
  2104  0387  07B0               	goto	l2683
  2105  0388  2B89               	
  2106                           l450:	
  2107  0389                     	
  2108                           l2683:	
  2109  0389                     	movf	(loop@i+1),w
  2110  0389  0830               	xorlw	80h
  2111  038A  3A80               	movwf	(??_loop+0)+0
  2112  038B  00AC               	movlw	80h
  2113  038C  3080               	subwf	(??_loop+0)+0,w
  2114  038D  022C               	skipz
  2115  038E  1D03               	goto	u945
  2116  038F  2B92               	movf	(_BufferLenght),w
  2117  0390  0839               	subwf	(loop@i),w
  2118  0391  022F               u945:
  2119  0392                     
  2120                           	skipc
  2121  0392  1C03               	goto	u941
  2122  0393  2B95               	goto	u940
  2123  0394  2B96               u941:
  2124  0395                     	goto	l2679
  2125  0395  2B74               u940:
  2126  0396                     	goto	l2685
  2127  0396  2B97               	
  2128                           l452:	
  2129  0397                     	line	74
  2130                           	
  2131                           l2685:	
  2132  0397                     ;LIFPIC.c: 74:                     dada = SerialRead();
  2133                           	fcall	_SerialRead
  2134  0397  120A  158A  2780  120A  118A  	bcf	status, 5	;RP0=0, select bank0
  2135  039C  1283               	bcf	status, 6	;RP1=0, select bank0
  2136  039D  1303               	movwf	(??_loop+0)+0
  2137  039E  00AC               	movf	(??_loop+0)+0,w
  2138  039F  082C               	movwf	(_dada)
  2139  03A0  00A8               	line	75
  2140                           	
  2141                           l2687:	
  2142  03A1                     ;LIFPIC.c: 75:                     if(dada == 'k')
  2143                           		movlw	107
  2144  03A1  306B               	xorwf	((_dada)),w
  2145  03A2  0628               	btfss	status,2
  2146  03A3  1D03               	goto	u951
  2147  03A4  2BA6               	goto	u950
  2148  03A5  2BA7               u951:
  2149  03A6                     	goto	l2691
  2150  03A6  2BAA               u950:
  2151  03A7                     	line	77
  2152                           	
  2153                           l2689:	
  2154  03A7                     ;LIFPIC.c: 76:                     {;LIFPIC.c: 77:                         Valor = 1;
  2155                           	clrf	(_Valor)
  2156  03A7  01A9               	incf	(_Valor),f
  2157  03A8  0AA9               	line	78
  2158                           ;LIFPIC.c: 78:                     }
  2159                           	goto	l2693
  2160  03A9  2BAD               	line	79
  2161                           ;LIFPIC.c: 79:                     else
  2162                           	
  2163                           l453:	
  2164  03AA                     	line	81
  2165                           	
  2166                           l2691:	
  2167  03AA                     ;LIFPIC.c: 80:                     {;LIFPIC.c: 81:                         Valor = 0;
  2168                           	clrf	(_Valor)
  2169  03AA  01A9               	goto	l2693
  2170  03AB  2BAD               	line	82
  2171                           ;LIFPIC.c: 82:                     }
  2172                           	
  2173                           l454:	
  2174  03AC                     	goto	l2693
  2175  03AC  2BAD               	line	83
  2176                           ;LIFPIC.c: 83:     }
  2177                           	
  2178                           l448:	
  2179  03AD                     	line	68
  2180                           	
  2181                           l2693:	
  2182  03AD                     ;LIFPIC.c: 68:     while(Valor != 1)
  2183                           		decf	((_Valor)),w
  2184  03AD  0329               	btfss	status,2
  2185  03AE  1D03               	goto	u961
  2186  03AF  2BB1               	goto	u960
  2187  03B0  2BB2               u961:
  2188  03B1                     	goto	l2677
  2189  03B1  2B71               u960:
  2190  03B2                     	goto	l2695
  2191  03B2  2BB3               	
  2192                           l455:	
  2193  03B3                     	line	84
  2194                           	
  2195                           l2695:	
  2196  03B3                     ;LIFPIC.c: 84:                 dada = 0;
  2197                           	clrf	(_dada)
  2198  03B3  01A8               	line	85
  2199                           ;LIFPIC.c: 85:                 Valor = 0;
  2200                           	clrf	(_Valor)
  2201  03B4  01A9               	line	86
  2202                           	
  2203                           l2697:	
  2204  03B5                     ;LIFPIC.c: 86:                 Estado = Decode;
  2205                           	movlw	low(02h)
  2206  03B5  3002               	movwf	(??_loop+0)+0
  2207  03B6  00AC               	movf	(??_loop+0)+0,w
  2208  03B7  082C               	movwf	(_Estado)
  2209  03B8  00AB               	line	87
  2210                           ;LIFPIC.c: 87:    break;
  2211                           	goto	l464
  2212  03B9  2C2C               	line	88
  2213                           ;LIFPIC.c: 88:    case Enviar:
  2214                           	
  2215                           l456:	
  2216  03BA                     	line	89
  2217                           ;LIFPIC.c: 89:                 while(Valor != 1)
  2218                           	goto	l2721
  2219  03BA  2C0A               	
  2220                           l458:	
  2221  03BB                     	line	91
  2222                           	
  2223                           l2699:	
  2224  03BB                     ;LIFPIC.c: 90:                 {;LIFPIC.c: 91:                     for(int j=0;j<2;j++)

  2225                           	clrf	(loop@j)
  2226  03BB  01B1               	clrf	(loop@j+1)
  2227  03BC  01B2               	
  2228                           l2701:	
  2229  03BD                     	movf	(loop@j+1),w
  2230  03BD  0832               	xorlw	80h
  2231  03BE  3A80               	movwf	btemp+1
  2232  03BF  00FF               	movlw	(0)^80h
  2233  03C0  3080               	subwf	btemp+1,w
  2234  03C1  027F               	skipz
  2235  03C2  1D03               	goto	u975
  2236  03C3  2BC6               	movlw	02h
  2237  03C4  3002               	subwf	(loop@j),w
  2238  03C5  0231               u975:
  2239  03C6                     
  2240                           	skipc
  2241  03C6  1C03               	goto	u971
  2242  03C7  2BC9               	goto	u970
  2243  03C8  2BCA               u971:
  2244  03C9                     	goto	l2705
  2245  03C9  2BCC               u970:
  2246  03CA                     	goto	l2711
  2247  03CA  2BEE               	
  2248                           l2703:	
  2249  03CB                     	goto	l2711
  2250  03CB  2BEE               	
  2251                           l459:	
  2252  03CC                     	line	93
  2253                           	
  2254                           l2705:	
  2255  03CC                     ;LIFPIC.c: 92:                     {;LIFPIC.c: 93:                         SerialWrite(D
                                 ataEnviar[j]);
  2256                           	bcf	status, 5	;RP0=0, select bank0
  2257  03CC  1283               	bcf	status, 6	;RP1=0, select bank0
  2258  03CD  1303               	movf	(loop@j),w
  2259  03CE  0831               	addlw	low(_DataEnviar|((0x0)<<8))&0ffh
  2260  03CF  3E26               	movwf	fsr0
  2261  03D0  0084               	bcf	status, 7	;select IRP bank0
  2262  03D1  1383               	movf	indf,w
  2263  03D2  0800               	fcall	_SerialWrite
  2264  03D3  120A  158A  278B  120A  118A  	line	95
  2265                           	
  2266                           l2707:	
  2267  03D8                     ;LIFPIC.c: 95:                     }
  2268                           	movlw	01h
  2269  03D8  3001               	bcf	status, 5	;RP0=0, select bank0
  2270  03D9  1283               	bcf	status, 6	;RP1=0, select bank0
  2271  03DA  1303               	addwf	(loop@j),f
  2272  03DB  07B1               	skipnc
  2273  03DC  1803               	incf	(loop@j+1),f
  2274  03DD  0AB2               	movlw	0
  2275  03DE  3000               	addwf	(loop@j+1),f
  2276  03DF  07B2               	
  2277                           l2709:	
  2278  03E0                     	movf	(loop@j+1),w
  2279  03E0  0832               	xorlw	80h
  2280  03E1  3A80               	movwf	btemp+1
  2281  03E2  00FF               	movlw	(0)^80h
  2282  03E3  3080               	subwf	btemp+1,w
  2283  03E4  027F               	skipz
  2284  03E5  1D03               	goto	u985
  2285  03E6  2BE9               	movlw	02h
  2286  03E7  3002               	subwf	(loop@j),w
  2287  03E8  0231               u985:
  2288  03E9                     
  2289                           	skipc
  2290  03E9  1C03               	goto	u981
  2291  03EA  2BEC               	goto	u980
  2292  03EB  2BED               u981:
  2293  03EC                     	goto	l2705
  2294  03EC  2BCC               u980:
  2295  03ED                     	goto	l2711
  2296  03ED  2BEE               	
  2297                           l460:	
  2298  03EE                     	line	96
  2299                           	
  2300                           l2711:	
  2301  03EE                     ;LIFPIC.c: 96:                     SerialWrite(';');
  2302                           	movlw	low(03Bh)
  2303  03EE  303B               	fcall	_SerialWrite
  2304  03EF  120A  158A  278B  120A  118A  	line	97
  2305                           	
  2306                           l2713:	
  2307  03F4                     ;LIFPIC.c: 97:                     dada = SerialRead();
  2308                           	fcall	_SerialRead
  2309  03F4  120A  158A  2780  120A  118A  	bcf	status, 5	;RP0=0, select bank0
  2310  03F9  1283               	bcf	status, 6	;RP1=0, select bank0
  2311  03FA  1303               	movwf	(??_loop+0)+0
  2312  03FB  00AC               	movf	(??_loop+0)+0,w
  2313  03FC  082C               	movwf	(_dada)
  2314  03FD  00A8               	line	98
  2315                           	
  2316                           l2715:	
  2317  03FE                     ;LIFPIC.c: 98:                     if(dada == 'k')
  2318                           		movlw	107
  2319  03FE  306B               	xorwf	((_dada)),w
  2320  03FF  0628               	btfss	status,2
  2321  0400  1D03               	goto	u991
  2322  0401  2C03               	goto	u990
  2323  0402  2C04               u991:
  2324  0403                     	goto	l2719
  2325  0403  2C07               u990:
  2326  0404                     	line	100
  2327                           	
  2328                           l2717:	
  2329  0404                     ;LIFPIC.c: 99:                     {;LIFPIC.c: 100:                         Valor = 1;
  2330                           	clrf	(_Valor)
  2331  0404  01A9               	incf	(_Valor),f
  2332  0405  0AA9               	line	101
  2333                           ;LIFPIC.c: 101:                     }
  2334                           	goto	l2721
  2335  0406  2C0A               	line	102
  2336                           ;LIFPIC.c: 102:                     else
  2337                           	
  2338                           l461:	
  2339  0407                     	line	104
  2340                           	
  2341                           l2719:	
  2342  0407                     ;LIFPIC.c: 103:                     {;LIFPIC.c: 104:                         Valor = 0;

  2343                           	clrf	(_Valor)
  2344  0407  01A9               	goto	l2721
  2345  0408  2C0A               	line	105
  2346                           ;LIFPIC.c: 105:                     }
  2347                           	
  2348                           l462:	
  2349  0409                     	goto	l2721
  2350  0409  2C0A               	line	106
  2351                           ;LIFPIC.c: 106:                 }
  2352                           	
  2353                           l457:	
  2354  040A                     	line	89
  2355                           	
  2356                           l2721:	
  2357  040A                     ;LIFPIC.c: 89:                 while(Valor != 1)
  2358                           		decf	((_Valor)),w
  2359  040A  0329               	btfss	status,2
  2360  040B  1D03               	goto	u1001
  2361  040C  2C0E               	goto	u1000
  2362  040D  2C0F               u1001:
  2363  040E                     	goto	l2699
  2364  040E  2BBB               u1000:
  2365  040F                     	goto	l2723
  2366  040F  2C10               	
  2367                           l463:	
  2368  0410                     	line	107
  2369                           	
  2370                           l2723:	
  2371  0410                     ;LIFPIC.c: 107:                 Valor = 0;
  2372                           	clrf	(_Valor)
  2373  0410  01A9               	line	108
  2374                           ;LIFPIC.c: 108:                 dada = 0;
  2375                           	clrf	(_dada)
  2376  0411  01A8               	line	109
  2377                           	
  2378                           l2725:	
  2379  0412                     ;LIFPIC.c: 109:     Estado = Recibir;
  2380                           	clrf	(_Estado)
  2381  0412  01AB               	incf	(_Estado),f
  2382  0413  0AAB               	line	110
  2383                           ;LIFPIC.c: 110:    break;
  2384                           	goto	l464
  2385  0414  2C2C               	line	111
  2386                           	
  2387                           l2727:	
  2388  0415                     ;LIFPIC.c: 111:   }
  2389                           	goto	l464
  2390  0415  2C2C               	
  2391                           l444:	
  2392  0416                     	
  2393                           l2729:	
  2394  0416                     	bcf	status, 5	;RP0=0, select bank0
  2395  0416  1283               	bcf	status, 6	;RP1=0, select bank0
  2396  0417  1303               	movf	(_Estado),w
  2397  0418  082B               	movwf	(??_loop+0)+0
  2398  0419  00AC               	clrf	(??_loop+0)+0+1
  2399  041A  01AD               	; Switch on 2 bytes has been partitioned into a top level switch of size 1, and 1 sub-s
                                 witches
  2400                           ; Switch size 1, requested type "space"
  2401                           ; Number of cases is 1, Range of values is 0 to 0
  2402                           ; switch strategies available:
  2403                           ; Name         Instructions Cycles
  2404                           ; simple_byte            4     3 (average)
  2405                           ; direct_byte           11     8 (fixed)
  2406                           ; jumptable            260     6 (fixed)
  2407                           ;	Chosen strategy is simple_byte
  2408                           
  2409                           	movf 1+(??_loop+0)+0,w
  2410  041B  082D               	opt asmopt_push
  2411                           	opt asmopt_off
  2412                           	xorlw	0^0	; case 0
  2413  041C  3A00               	skipnz
  2414  041D  1903               	goto	l2935
  2415  041E  2C20               	goto	l464
  2416  041F  2C2C               	opt asmopt_pop
  2417                           	
  2418                           l2935:	
  2419  0420                     ; Switch size 1, requested type "space"
  2420                           ; Number of cases is 3, Range of values is 0 to 2
  2421                           ; switch strategies available:
  2422                           ; Name         Instructions Cycles
  2423                           ; simple_byte           10     6 (average)
  2424                           ; direct_byte           17     8 (fixed)
  2425                           ; jumptable            260     6 (fixed)
  2426                           ;	Chosen strategy is simple_byte
  2427                           
  2428                           	movf 0+(??_loop+0)+0,w
  2429  0420  082C               	opt asmopt_push
  2430                           	opt asmopt_off
  2431                           	xorlw	0^0	; case 0
  2432  0421  3A00               	skipnz
  2433  0422  1903               	goto	l2721
  2434  0423  2C0A               	xorlw	1^0	; case 1
  2435  0424  3A01               	skipnz
  2436  0425  1903               	goto	l2693
  2437  0426  2BAD               	xorlw	2^1	; case 2
  2438  0427  3A03               	skipnz
  2439  0428  1903               	goto	l2669
  2440  0429  2B4C               	goto	l464
  2441  042A  2C2C               	opt asmopt_pop
  2442                           
  2443                           	
  2444                           l446:	
  2445  042B                     	goto	l464
  2446  042B  2C2C               	line	112
  2447                           ;LIFPIC.c: 112:  }
  2448                           	
  2449                           l443:	
  2450  042C                     	line	113
  2451                           	
  2452                           l464:	
  2453  042C                     	return
  2454  042C  0008               	opt stack 0
  2455                           GLOBAL	__end_of_loop
  2456                           	__end_of_loop:
  2457  042D                     	signat	_loop,89
  2458                           	global	_SerialWrite
  2459                           
  2460 ;; *************** function _SerialWrite *****************
  2461 ;; Defined at:
  2462 ;;		line 497 in file "source.c"
  2463 ;; Parameters:    Size  Location     Type
  2464 ;;  dataWrite       1    wreg     unsigned char 
  2465 ;; Auto vars:     Size  Location     Type
  2466 ;;  dataWrite       1    0[COMMON] unsigned char 
  2467 ;; Return value:  Size  Location     Type
  2468 ;;                  1    wreg      void 
  2469 ;; Registers used:
  2470 ;;		wreg
  2471 ;; Tracked objects:
  2472 ;;		On entry : 0/0
  2473 ;;		On exit  : 0/0
  2474 ;;		Unchanged: 0/0
  2475 ;; Data sizes:     COMMON   BANK0   BANK1   BANK3   BANK2
  2476 ;;      Params:         0       0       0       0       0
  2477 ;;      Locals:         1       0       0       0       0
  2478 ;;      Temps:          0       0       0       0       0
  2479 ;;      Totals:         1       0       0       0       0
  2480 ;;Total ram usage:        1 bytes
  2481 ;; Hardware stack levels used:    1
  2482 ;; This function calls:
  2483 ;;		Nothing
  2484 ;; This function is called by:
  2485 ;;		_setup
  2486 ;;		_loop
  2487 ;;		_SerialWriteText
  2488 ;;		_SerialPrint
  2489 ;;		_SerialPrintLn
  2490 ;; This function uses a non-reentrant model
  2491 ;;
  2492                           psect	text5,local,class=CODE,delta=2,merge=1,group=0
  2493                           	file	"source.c"
  2494                           	line	497
  2495                           global __ptext5
  2496                           __ptext5:	;psect for function _SerialWrite
  2497  0F8B                     psect	text5
  2498                           	file	"source.c"
  2499                           	line	497
  2500                           	global	__size_of_SerialWrite
  2501                           	__size_of_SerialWrite	equ	__end_of_SerialWrite-_SerialWrite
  2502  000C                     	
  2503                           _SerialWrite:	
  2504  0F8B                     ;incstack = 0
  2505                           	opt	stack 6
  2506                           ; Regs used in _SerialWrite: [wreg]
  2507                           ;SerialWrite@dataWrite stored from wreg
  2508                           	movwf	(SerialWrite@dataWrite)
  2509  0F8B  00F0               	line	499
  2510                           	
  2511                           l2557:	
  2512  0F8C                     ;source.c: 497: void SerialWrite(char dataWrite);source.c: 498: {;source.c: 499:     whi
                                 le(!TXIF);
  2513                           	goto	l314
  2514  0F8C  2F8D               	
  2515                           l315:	
  2516  0F8D                     	
  2517                           l314:	
  2518  0F8D                     	bcf	status, 5	;RP0=0, select bank0
  2519  0F8D  1283               	bcf	status, 6	;RP1=0, select bank0
  2520  0F8E  1303               	btfss	(100/8),(100)&7	;volatile
  2521  0F8F  1E0C               	goto	u841
  2522  0F90  2F92               	goto	u840
  2523  0F91  2F93               u841:
  2524  0F92                     	goto	l314
  2525  0F92  2F8D               u840:
  2526  0F93                     	goto	l2559
  2527  0F93  2F94               	
  2528                           l316:	
  2529  0F94                     	line	500
  2530                           	
  2531                           l2559:	
  2532  0F94                     ;source.c: 500:     TXREG = dataWrite;
  2533                           	movf	(SerialWrite@dataWrite),w
  2534  0F94  0870               	movwf	(25)	;volatile
  2535  0F95  0099               	line	501
  2536                           	
  2537                           l317:	
  2538  0F96                     	return
  2539  0F96  0008               	opt stack 0
  2540                           GLOBAL	__end_of_SerialWrite
  2541                           	__end_of_SerialWrite:
  2542  0F97                     	signat	_SerialWrite,4217
  2543                           	global	_SerialRead
  2544                           
  2545 ;; *************** function _SerialRead *****************
  2546 ;; Defined at:
  2547 ;;		line 532 in file "source.c"
  2548 ;; Parameters:    Size  Location     Type
  2549 ;;		None
  2550 ;; Auto vars:     Size  Location     Type
  2551 ;;		None
  2552 ;; Return value:  Size  Location     Type
  2553 ;;                  1    wreg      unsigned char 
  2554 ;; Registers used:
  2555 ;;		wreg
  2556 ;; Tracked objects:
  2557 ;;		On entry : 0/0
  2558 ;;		On exit  : 0/0
  2559 ;;		Unchanged: 0/0
  2560 ;; Data sizes:     COMMON   BANK0   BANK1   BANK3   BANK2
  2561 ;;      Params:         0       0       0       0       0
  2562 ;;      Locals:         0       0       0       0       0
  2563 ;;      Temps:          0       0       0       0       0
  2564 ;;      Totals:         0       0       0       0       0
  2565 ;;Total ram usage:        0 bytes
  2566 ;; Hardware stack levels used:    1
  2567 ;; This function calls:
  2568 ;;		Nothing
  2569 ;; This function is called by:
  2570 ;;		_setup
  2571 ;;		_loop
  2572 ;;		_SerialReadText
  2573 ;; This function uses a non-reentrant model
  2574 ;;
  2575                           psect	text6,local,class=CODE,delta=2,merge=1,group=0
  2576                           	line	532
  2577                           global __ptext6
  2578                           __ptext6:	;psect for function _SerialRead
  2579  0F80                     psect	text6
  2580                           	file	"source.c"
  2581                           	line	532
  2582                           	global	__size_of_SerialRead
  2583                           	__size_of_SerialRead	equ	__end_of_SerialRead-_SerialRead
  2584  000B                     	
  2585                           _SerialRead:	
  2586  0F80                     ;incstack = 0
  2587                           	opt	stack 6
  2588                           ; Regs used in _SerialRead: [wreg]
  2589                           	line	534
  2590                           	
  2591                           l2571:	
  2592  0F80                     ;source.c: 534:     while(!RCIF);
  2593                           	goto	l343
  2594  0F80  2F81               	
  2595                           l344:	
  2596  0F81                     	
  2597                           l343:	
  2598  0F81                     	bcf	status, 5	;RP0=0, select bank0
  2599  0F81  1283               	bcf	status, 6	;RP1=0, select bank0
  2600  0F82  1303               	btfss	(101/8),(101)&7	;volatile
  2601  0F83  1E8C               	goto	u881
  2602  0F84  2F86               	goto	u880
  2603  0F85  2F87               u881:
  2604  0F86                     	goto	l343
  2605  0F86  2F81               u880:
  2606  0F87                     	goto	l2573
  2607  0F87  2F88               	
  2608                           l345:	
  2609  0F88                     	line	535
  2610                           	
  2611                           l2573:	
  2612  0F88                     ;source.c: 535:     return RCREG;
  2613                           	movf	(26),w	;volatile
  2614  0F88  081A               	goto	l346
  2615  0F89  2F8A               	
  2616                           l2575:	
  2617  0F8A                     	line	536
  2618                           	
  2619                           l346:	
  2620  0F8A                     	return
  2621  0F8A  0008               	opt stack 0
  2622                           GLOBAL	__end_of_SerialRead
  2623                           	__end_of_SerialRead:
  2624  0F8B                     	signat	_SerialRead,89
  2625                           	global	_SerialAvailable
  2626                           
  2627 ;; *************** function _SerialAvailable *****************
  2628 ;; Defined at:
  2629 ;;		line 527 in file "source.c"
  2630 ;; Parameters:    Size  Location     Type
  2631 ;;		None
  2632 ;; Auto vars:     Size  Location     Type
  2633 ;;		None
  2634 ;; Return value:  Size  Location     Type
  2635 ;;                  1    wreg      unsigned char 
  2636 ;; Registers used:
  2637 ;;		status,2
  2638 ;; Tracked objects:
  2639 ;;		On entry : 0/0
  2640 ;;		On exit  : 0/0
  2641 ;;		Unchanged: 0/0
  2642 ;; Data sizes:     COMMON   BANK0   BANK1   BANK3   BANK2
  2643 ;;      Params:         0       0       0       0       0
  2644 ;;      Locals:         1       0       0       0       0
  2645 ;;      Temps:          0       0       0       0       0
  2646 ;;      Totals:         1       0       0       0       0
  2647 ;;Total ram usage:        1 bytes
  2648 ;; Hardware stack levels used:    1
  2649 ;; This function calls:
  2650 ;;		Nothing
  2651 ;; This function is called by:
  2652 ;;		_loop
  2653 ;; This function uses a non-reentrant model
  2654 ;;
  2655                           psect	text7,local,class=CODE,delta=2,merge=1,group=0
  2656                           	line	527
  2657                           global __ptext7
  2658                           __ptext7:	;psect for function _SerialAvailable
  2659  000A                     psect	text7
  2660                           	file	"source.c"
  2661                           	line	527
  2662                           	global	__size_of_SerialAvailable
  2663                           	__size_of_SerialAvailable	equ	__end_of_SerialAvailable-_SerialAvailable
  2664  0017                     	
  2665                           _SerialAvailable:	
  2666  000A                     ;incstack = 0
  2667                           	opt	stack 6
  2668                           ; Regs used in _SerialAvailable: [status,2]
  2669                           	line	529
  2670                           	
  2671                           l2561:	
  2672  000A                     ;source.c: 529:     return RCIF || (TXIF && TRMT);
  2673                           	clrf	(_SerialAvailable$456)
  2674  000A  01F0               	incf	(_SerialAvailable$456),f
  2675  000B  0AF0               	bcf	status, 5	;RP0=0, select bank0
  2676  000C  1283               	bcf	status, 6	;RP1=0, select bank0
  2677  000D  1303               	btfsc	(101/8),(101)&7	;volatile
  2678  000E  1A8C               	goto	u851
  2679  000F  2811               	goto	u850
  2680  0010  2812               u851:
  2681  0011                     	goto	l340
  2682  0011  2820               u850:
  2683  0012                     	
  2684                           l2563:	
  2685  0012                     	btfss	(100/8),(100)&7	;volatile
  2686  0012  1E0C               	goto	u861
  2687  0013  2815               	goto	u860
  2688  0014  2816               u861:
  2689  0015                     	goto	l2567
  2690  0015  281D               u860:
  2691  0016                     	
  2692                           l2565:	
  2693  0016                     	bsf	status, 5	;RP0=1, select bank1
  2694  0016  1683               	bcf	status, 6	;RP1=0, select bank1
  2695  0017  1303               	btfsc	(1217/8)^080h,(1217)&7	;volatile
  2696  0018  1898               	goto	u871
  2697  0019  281B               	goto	u870
  2698  001A  281C               u871:
  2699  001B                     	goto	l340
  2700  001B  2820               u870:
  2701  001C                     	goto	l2567
  2702  001C  281D               	
  2703                           l2073:	
  2704  001D                     	
  2705                           l2567:	
  2706  001D                     	clrf	(_SerialAvailable$456)
  2707  001D  01F0               	goto	l340
  2708  001E  2820               	
  2709                           l339:	
  2710  001F                     	goto	l340
  2711  001F  2820               	
  2712                           l2569:	
  2713  0020                     	line	530
  2714                           ;	Return value of _SerialAvailable is never used
  2715                           	
  2716                           l340:	
  2717  0020                     	return
  2718  0020  0008               	opt stack 0
  2719                           GLOBAL	__end_of_SerialAvailable
  2720                           	__end_of_SerialAvailable:
  2721  0021                     	signat	_SerialAvailable,89
  2722                           	global	_ProcessCommand
  2723                           
  2724 ;; *************** function _ProcessCommand *****************
  2725 ;; Defined at:
  2726 ;;		line 115 in file "LIFPIC.c"
  2727 ;; Parameters:    Size  Location     Type
  2728 ;;  instruction     1    wreg     unsigned char 
  2729 ;;  port            1    5[COMMON] unsigned char 
  2730 ;;  MSBData         1    6[COMMON] unsigned char 
  2731 ;;  LSBData         1    7[COMMON] unsigned char 
  2732 ;; Auto vars:     Size  Location     Type
  2733 ;;  instruction     1   10[COMMON] unsigned char 
  2734 ;;  data            2   11[COMMON] unsigned int 
  2735 ;; Return value:  Size  Location     Type
  2736 ;;                  2    5[COMMON] unsigned int 
  2737 ;; Registers used:
  2738 ;;		wreg, fsr0l, fsr0h, status,2, status,0, btemp+1, pclath, cstack
  2739 ;; Tracked objects:
  2740 ;;		On entry : 0/0
  2741 ;;		On exit  : 0/0
  2742 ;;		Unchanged: 0/0
  2743 ;; Data sizes:     COMMON   BANK0   BANK1   BANK3   BANK2
  2744 ;;      Params:         3       0       0       0       0
  2745 ;;      Locals:         3       0       0       0       0
  2746 ;;      Temps:          2       0       0       0       0
  2747 ;;      Totals:         8       0       0       0       0
  2748 ;;Total ram usage:        8 bytes
  2749 ;; Hardware stack levels used:    1
  2750 ;; Hardware stack levels required when called:    1
  2751 ;; This function calls:
  2752 ;;		_PBRead
  2753 ;;		_analogRead
  2754 ;;		_analogWrite
  2755 ;;		_digitalRead
  2756 ;;		_digitalWrite
  2757 ;;		_pinMode
  2758 ;; This function is called by:
  2759 ;;		_loop
  2760 ;; This function uses a non-reentrant model
  2761 ;;
  2762                           psect	text8,local,class=CODE,delta=2,merge=1,group=0
  2763                           	file	"LIFPIC.c"
  2764                           	line	115
  2765                           global __ptext8
  2766                           __ptext8:	;psect for function _ProcessCommand
  2767  0291                     psect	text8
  2768                           	file	"LIFPIC.c"
  2769                           	line	115
  2770                           	global	__size_of_ProcessCommand
  2771                           	__size_of_ProcessCommand	equ	__end_of_ProcessCommand-_ProcessCommand
  2772  00B5                     	
  2773                           _ProcessCommand:	
  2774  0291                     ;incstack = 0
  2775                           	opt	stack 5
  2776                           ; Regs used in _ProcessCommand: [wreg-fsr0h+status,2+status,0+btemp+1+pclath+cstack]
  2777                           ;ProcessCommand@instruction stored from wreg
  2778                           	movwf	(ProcessCommand@instruction)
  2779  0291  00FA               	line	117
  2780                           	
  2781                           l2577:	
  2782  0292                     ;LIFPIC.c: 115: uint16_t ProcessCommand(uint8_t instruction, uint8_t port, uint8_t MSBDa
                                 ta, uint8_t LSBData);LIFPIC.c: 116: {;LIFPIC.c: 117:     uint16_t data = 0;
  2783                           	clrf	(ProcessCommand@data)
  2784  0292  01FB               	clrf	(ProcessCommand@data+1)
  2785  0293  01FC               	line	118
  2786                           ;LIFPIC.c: 118:   switch(instruction)
  2787                           	goto	l2637
  2788  0294  2B29               	line	120
  2789                           ;LIFPIC.c: 119:   {;LIFPIC.c: 120:    case 0x05:
  2790                           	
  2791                           l468:	
  2792  0295                     	line	121
  2793                           	
  2794                           l2579:	
  2795  0295                     ;LIFPIC.c: 121:     if(port > 24)
  2796                           	movlw	low(019h)
  2797  0295  3019               	subwf	(ProcessCommand@port),w
  2798  0296  0275               	skipc
  2799  0297  1C03               	goto	u891
  2800  0298  2A9A               	goto	u890
  2801  0299  2A9B               u891:
  2802  029A                     	goto	l2583
  2803  029A  2AA0               u890:
  2804  029B                     	line	123
  2805                           	
  2806                           l2581:	
  2807  029B                     ;LIFPIC.c: 122:     {;LIFPIC.c: 123:      port = 24;
  2808                           	movlw	low(018h)
  2809  029B  3018               	movwf	(??_ProcessCommand+0)+0
  2810  029C  00F8               	movf	(??_ProcessCommand+0)+0,w
  2811  029D  0878               	movwf	(ProcessCommand@port)
  2812  029E  00F5               	goto	l2583
  2813  029F  2AA0               	line	124
  2814                           ;LIFPIC.c: 124:     }
  2815                           	
  2816                           l469:	
  2817  02A0                     	line	125
  2818                           	
  2819                           l2583:	
  2820  02A0                     ;LIFPIC.c: 125:     pinMode(port,LSBData);
  2821                           	movf	(ProcessCommand@LSBData),w
  2822  02A0  0877               	movwf	(??_ProcessCommand+0)+0
  2823  02A1  00F8               	movf	(??_ProcessCommand+0)+0,w
  2824  02A2  0878               	movwf	(pinMode@mode)
  2825  02A3  00F0               	movf	(ProcessCommand@port),w
  2826  02A4  0875               	fcall	_pinMode
  2827  02A5  120A  118A  2564  120A  118A  	line	126
  2828                           	
  2829                           l2585:	
  2830  02AA                     ;LIFPIC.c: 126:     return 1;
  2831                           	movlw	01h
  2832  02AA  3001               	movwf	(?_ProcessCommand)
  2833  02AB  00F5               	movlw	0
  2834  02AC  3000               	movwf	((?_ProcessCommand))+1
  2835  02AD  00F6               	goto	l470
  2836  02AE  2B45               	
  2837                           l2587:	
  2838  02AF                     	goto	l470
  2839  02AF  2B45               	line	127
  2840                           	
  2841                           l2589:	
  2842  02B0                     ;LIFPIC.c: 127:    break;
  2843                           	goto	l470
  2844  02B0  2B45               	line	128
  2845                           ;LIFPIC.c: 128:    case 0x06:
  2846                           	
  2847                           l472:	
  2848  02B1                     	line	129
  2849                           	
  2850                           l2591:	
  2851  02B1                     ;LIFPIC.c: 129:     if(port > 24)
  2852                           	movlw	low(019h)
  2853  02B1  3019               	subwf	(ProcessCommand@port),w
  2854  02B2  0275               	skipc
  2855  02B3  1C03               	goto	u901
  2856  02B4  2AB6               	goto	u900
  2857  02B5  2AB7               u901:
  2858  02B6                     	goto	l2595
  2859  02B6  2ABC               u900:
  2860  02B7                     	line	131
  2861                           	
  2862                           l2593:	
  2863  02B7                     ;LIFPIC.c: 130:     {;LIFPIC.c: 131:      port = 24;
  2864                           	movlw	low(018h)
  2865  02B7  3018               	movwf	(??_ProcessCommand+0)+0
  2866  02B8  00F8               	movf	(??_ProcessCommand+0)+0,w
  2867  02B9  0878               	movwf	(ProcessCommand@port)
  2868  02BA  00F5               	goto	l2595
  2869  02BB  2ABC               	line	132
  2870                           ;LIFPIC.c: 132:     }
  2871                           	
  2872                           l473:	
  2873  02BC                     	line	133
  2874                           	
  2875                           l2595:	
  2876  02BC                     ;LIFPIC.c: 133:     digitalWrite(port,LSBData);
  2877                           	movf	(ProcessCommand@LSBData),w
  2878  02BC  0877               	movwf	(??_ProcessCommand+0)+0
  2879  02BD  00F8               	movf	(??_ProcessCommand+0)+0,w
  2880  02BE  0878               	movwf	(digitalWrite@value)
  2881  02BF  00F0               	movf	(ProcessCommand@port),w
  2882  02C0  0875               	fcall	_digitalWrite
  2883  02C1  120A  118A  242D  120A  118A  	line	134
  2884                           	
  2885                           l2597:	
  2886  02C6                     ;LIFPIC.c: 134:     return LSBData;
  2887                           	movf	(ProcessCommand@LSBData),w
  2888  02C6  0877               	movwf	(??_ProcessCommand+0)+0
  2889  02C7  00F8               	clrf	(??_ProcessCommand+0)+0+1
  2890  02C8  01F9               	movf	0+(??_ProcessCommand+0)+0,w
  2891  02C9  0878               	movwf	(?_ProcessCommand)
  2892  02CA  00F5               	movf	1+(??_ProcessCommand+0)+0,w
  2893  02CB  0879               	movwf	(?_ProcessCommand+1)
  2894  02CC  00F6               	goto	l470
  2895  02CD  2B45               	
  2896                           l2599:	
  2897  02CE                     	goto	l470
  2898  02CE  2B45               	line	135
  2899                           	
  2900                           l2601:	
  2901  02CF                     ;LIFPIC.c: 135:    break;
  2902                           	goto	l470
  2903  02CF  2B45               	line	136
  2904                           ;LIFPIC.c: 136:    case 0x07:
  2905                           	
  2906                           l474:	
  2907  02D0                     	line	137
  2908                           	
  2909                           l2603:	
  2910  02D0                     ;LIFPIC.c: 137:     if(port > 24)
  2911                           	movlw	low(019h)
  2912  02D0  3019               	subwf	(ProcessCommand@port),w
  2913  02D1  0275               	skipc
  2914  02D2  1C03               	goto	u911
  2915  02D3  2AD5               	goto	u910
  2916  02D4  2AD6               u911:
  2917  02D5                     	goto	l2607
  2918  02D5  2ADB               u910:
  2919  02D6                     	line	139
  2920                           	
  2921                           l2605:	
  2922  02D6                     ;LIFPIC.c: 138:     {;LIFPIC.c: 139:      port = 24;
  2923                           	movlw	low(018h)
  2924  02D6  3018               	movwf	(??_ProcessCommand+0)+0
  2925  02D7  00F8               	movf	(??_ProcessCommand+0)+0,w
  2926  02D8  0878               	movwf	(ProcessCommand@port)
  2927  02D9  00F5               	goto	l2607
  2928  02DA  2ADB               	line	140
  2929                           ;LIFPIC.c: 140:     }
  2930                           	
  2931                           l475:	
  2932  02DB                     	line	141
  2933                           	
  2934                           l2607:	
  2935  02DB                     ;LIFPIC.c: 141:     return digitalRead(port);
  2936                           	movf	(ProcessCommand@port),w
  2937  02DB  0875               	fcall	_digitalRead
  2938  02DC  120A  118A  26A3  120A  118A  	movwf	(??_ProcessCommand+0)+0
  2939  02E1  00F8               	clrf	(??_ProcessCommand+0)+0+1
  2940  02E2  01F9               	movf	0+(??_ProcessCommand+0)+0,w
  2941  02E3  0878               	movwf	(?_ProcessCommand)
  2942  02E4  00F5               	movf	1+(??_ProcessCommand+0)+0,w
  2943  02E5  0879               	movwf	(?_ProcessCommand+1)
  2944  02E6  00F6               	goto	l470
  2945  02E7  2B45               	
  2946                           l2609:	
  2947  02E8                     	goto	l470
  2948  02E8  2B45               	line	142
  2949                           	
  2950                           l2611:	
  2951  02E9                     ;LIFPIC.c: 142:    break;
  2952                           	goto	l470
  2953  02E9  2B45               	line	143
  2954                           ;LIFPIC.c: 143:    case 0x08:
  2955                           	
  2956                           l476:	
  2957  02EA                     	line	144
  2958                           	
  2959                           l2613:	
  2960  02EA                     ;LIFPIC.c: 144:     return analogRead(port);
  2961                           	movf	(ProcessCommand@port),w
  2962  02EA  0875               	fcall	_analogRead
  2963  02EB  120A  118A  20C0  120A  118A  	movf	(1+(?_analogRead)),w
  2964  02F0  0871               	movwf	(?_ProcessCommand+1)
  2965  02F1  00F6               	movf	(0+(?_analogRead)),w
  2966  02F2  0870               	movwf	(?_ProcessCommand)
  2967  02F3  00F5               	goto	l470
  2968  02F4  2B45               	
  2969                           l2615:	
  2970  02F5                     	goto	l470
  2971  02F5  2B45               	line	145
  2972                           	
  2973                           l2617:	
  2974  02F6                     ;LIFPIC.c: 145:    break;
  2975                           	goto	l470
  2976  02F6  2B45               	line	146
  2977                           ;LIFPIC.c: 146:    case 0x09:
  2978                           	
  2979                           l477:	
  2980  02F7                     	line	156
  2981                           	
  2982                           l2619:	
  2983  02F7                     ;LIFPIC.c: 156:                 data = (MSBData << 8) + LSBData;
  2984                           	movf	(ProcessCommand@MSBData),w
  2985  02F7  0876               	movwf	(??_ProcessCommand+0)+0
  2986  02F8  00F8               	clrf	(??_ProcessCommand+0)+0+1
  2987  02F9  01F9               	movf	(??_ProcessCommand+0)+0,w
  2988  02FA  0878               	movwf	(??_ProcessCommand+0)+1
  2989  02FB  00F9               	clrf	(??_ProcessCommand+0)+0
  2990  02FC  01F8               	movf	(ProcessCommand@LSBData),w
  2991  02FD  0877               	addwf	0+(??_ProcessCommand+0)+0,w
  2992  02FE  0778               	movwf	(ProcessCommand@data)
  2993  02FF  00FB               	movlw	0
  2994  0300  3000               	skipnc
  2995  0301  1803               	movlw	1
  2996  0302  3001               	addwf	1+(??_ProcessCommand+0)+0,w
  2997  0303  0779               	movwf	1+(ProcessCommand@data)
  2998  0304  00FC               	line	157
  2999                           	
  3000                           l2621:	
  3001  0305                     ;LIFPIC.c: 157:     analogWrite(port,data);
  3002                           	movf	(ProcessCommand@data+1),w
  3003  0305  087C               	movwf	(analogWrite@value+1)
  3004  0306  00F1               	movf	(ProcessCommand@data),w
  3005  0307  087B               	movwf	(analogWrite@value)
  3006  0308  00F0               	movf	(ProcessCommand@port),w
  3007  0309  0875               	fcall	_analogWrite
  3008  030A  120A  118A  2021  120A  118A  	line	158
  3009                           	
  3010                           l2623:	
  3011  030F                     ;LIFPIC.c: 158:     return port;
  3012                           	movf	(ProcessCommand@port),w
  3013  030F  0875               	movwf	(??_ProcessCommand+0)+0
  3014  0310  00F8               	clrf	(??_ProcessCommand+0)+0+1
  3015  0311  01F9               	movf	0+(??_ProcessCommand+0)+0,w
  3016  0312  0878               	movwf	(?_ProcessCommand)
  3017  0313  00F5               	movf	1+(??_ProcessCommand+0)+0,w
  3018  0314  0879               	movwf	(?_ProcessCommand+1)
  3019  0315  00F6               	goto	l470
  3020  0316  2B45               	
  3021                           l2625:	
  3022  0317                     	goto	l470
  3023  0317  2B45               	line	159
  3024                           	
  3025                           l2627:	
  3026  0318                     ;LIFPIC.c: 159:    break;
  3027                           	goto	l470
  3028  0318  2B45               	line	160
  3029                           ;LIFPIC.c: 160:             case 0x0A:
  3030                           	
  3031                           l478:	
  3032  0319                     	line	161
  3033                           	
  3034                           l2629:	
  3035  0319                     ;LIFPIC.c: 161:                 return PBRead(port);
  3036                           	movf	(ProcessCommand@port),w
  3037  0319  0875               	fcall	_PBRead
  3038  031A  120A  158A  27D2  120A  118A  	movwf	(??_ProcessCommand+0)+0
  3039  031F  00F8               	clrf	(??_ProcessCommand+0)+0+1
  3040  0320  01F9               	movf	0+(??_ProcessCommand+0)+0,w
  3041  0321  0878               	movwf	(?_ProcessCommand)
  3042  0322  00F5               	movf	1+(??_ProcessCommand+0)+0,w
  3043  0323  0879               	movwf	(?_ProcessCommand+1)
  3044  0324  00F6               	goto	l470
  3045  0325  2B45               	
  3046                           l2631:	
  3047  0326                     	goto	l470
  3048  0326  2B45               	line	162
  3049                           	
  3050                           l2633:	
  3051  0327                     ;LIFPIC.c: 162:             break;
  3052                           	goto	l470
  3053  0327  2B45               	line	163
  3054                           	
  3055                           l2635:	
  3056  0328                     ;LIFPIC.c: 163:   }
  3057                           	goto	l470
  3058  0328  2B45               	
  3059                           l467:	
  3060  0329                     	
  3061                           l2637:	
  3062  0329                     	movf	(ProcessCommand@instruction),w
  3063  0329  087A               	movwf	(??_ProcessCommand+0)+0
  3064  032A  00F8               	clrf	(??_ProcessCommand+0)+0+1
  3065  032B  01F9               	; Switch on 2 bytes has been partitioned into a top level switch of size 1, and 1 sub-s
                                 witches
  3066                           ; Switch size 1, requested type "space"
  3067                           ; Number of cases is 1, Range of values is 0 to 0
  3068                           ; switch strategies available:
  3069                           ; Name         Instructions Cycles
  3070                           ; simple_byte            4     3 (average)
  3071                           ; direct_byte           11     8 (fixed)
  3072                           ; jumptable            260     6 (fixed)
  3073                           ;	Chosen strategy is simple_byte
  3074                           
  3075                           	movf 1+(??_ProcessCommand+0)+0,w
  3076  032C  0879               	opt asmopt_push
  3077                           	opt asmopt_off
  3078                           	xorlw	0^0	; case 0
  3079  032D  3A00               	skipnz
  3080  032E  1903               	goto	l2937
  3081  032F  2B31               	goto	l470
  3082  0330  2B45               	opt asmopt_pop
  3083                           	
  3084                           l2937:	
  3085  0331                     ; Switch size 1, requested type "space"
  3086                           ; Number of cases is 6, Range of values is 5 to 10
  3087                           ; switch strategies available:
  3088                           ; Name         Instructions Cycles
  3089                           ; simple_byte           19    10 (average)
  3090                           ; direct_byte           29    11 (fixed)
  3091                           ; jumptable            263     9 (fixed)
  3092                           ;	Chosen strategy is simple_byte
  3093                           
  3094                           	movf 0+(??_ProcessCommand+0)+0,w
  3095  0331  0878               	opt asmopt_push
  3096                           	opt asmopt_off
  3097                           	xorlw	5^0	; case 5
  3098  0332  3A05               	skipnz
  3099  0333  1903               	goto	l2579
  3100  0334  2A95               	xorlw	6^5	; case 6
  3101  0335  3A03               	skipnz
  3102  0336  1903               	goto	l2591
  3103  0337  2AB1               	xorlw	7^6	; case 7
  3104  0338  3A01               	skipnz
  3105  0339  1903               	goto	l2603
  3106  033A  2AD0               	xorlw	8^7	; case 8
  3107  033B  3A0F               	skipnz
  3108  033C  1903               	goto	l2613
  3109  033D  2AEA               	xorlw	9^8	; case 9
  3110  033E  3A01               	skipnz
  3111  033F  1903               	goto	l2619
  3112  0340  2AF7               	xorlw	10^9	; case 10
  3113  0341  3A03               	skipnz
  3114  0342  1903               	goto	l2629
  3115  0343  2B19               	goto	l470
  3116  0344  2B45               	opt asmopt_pop
  3117                           
  3118                           	
  3119                           l471:	
  3120  0345                     	line	164
  3121                           	
  3122                           l470:	
  3123  0345                     	return
  3124  0345  0008               	opt stack 0
  3125                           GLOBAL	__end_of_ProcessCommand
  3126                           	__end_of_ProcessCommand:
  3127  0346                     	signat	_ProcessCommand,16506
  3128                           	global	_pinMode
  3129                           
  3130 ;; *************** function _pinMode *****************
  3131 ;; Defined at:
  3132 ;;		line 63 in file "source.c"
  3133 ;; Parameters:    Size  Location     Type
  3134 ;;  pin             1    wreg     unsigned char 
  3135 ;;  mode            1    0[COMMON] unsigned char 
  3136 ;; Auto vars:     Size  Location     Type
  3137 ;;  pin             1    3[COMMON] unsigned char 
  3138 ;; Return value:  Size  Location     Type
  3139 ;;                  1    wreg      void 
  3140 ;; Registers used:
  3141 ;;		wreg, fsr0l, fsr0h, status,2, status,0
  3142 ;; Tracked objects:
  3143 ;;		On entry : 0/0
  3144 ;;		On exit  : 0/0
  3145 ;;		Unchanged: 0/0
  3146 ;; Data sizes:     COMMON   BANK0   BANK1   BANK3   BANK2
  3147 ;;      Params:         1       0       0       0       0
  3148 ;;      Locals:         1       0       0       0       0
  3149 ;;      Temps:          2       0       0       0       0
  3150 ;;      Totals:         4       0       0       0       0
  3151 ;;Total ram usage:        4 bytes
  3152 ;; Hardware stack levels used:    1
  3153 ;; This function calls:
  3154 ;;		Nothing
  3155 ;; This function is called by:
  3156 ;;		_setup
  3157 ;;		_ProcessCommand
  3158 ;; This function uses a non-reentrant model
  3159 ;;
  3160                           psect	text9,local,class=CODE,delta=2,merge=1,group=0
  3161                           	file	"source.c"
  3162                           	line	63
  3163                           global __ptext9
  3164                           __ptext9:	;psect for function _pinMode
  3165  0564                     psect	text9
  3166                           	file	"source.c"
  3167                           	line	63
  3168                           	global	__size_of_pinMode
  3169                           	__size_of_pinMode	equ	__end_of_pinMode-_pinMode
  3170  013F                     	
  3171                           _pinMode:	
  3172  0564                     ;incstack = 0
  3173                           	opt	stack 6
  3174                           ; Regs used in _pinMode: [wreg-fsr0h+status,2+status,0]
  3175                           ;pinMode@pin stored from wreg
  3176                           	movwf	(pinMode@pin)
  3177  0564  00F3               	line	65
  3178                           	
  3179                           l2075:	
  3180  0565                     ;source.c: 63: void pinMode(char pin, char mode);source.c: 64: {;source.c: 65:     switc
                                 h(pin)
  3181                           	goto	l2133
  3182  0565  2E47               	line	67
  3183                           ;source.c: 66:     {;source.c: 67:         case 0:
  3184                           	
  3185                           l155:	
  3186  0566                     	line	68
  3187                           	
  3188                           l2077:	
  3189  0566                     ;source.c: 68:             TRISCbits.TRISC7 = mode;
  3190                           	rrf	(pinMode@mode),w
  3191  0566  0C70               	bsf	status, 5	;RP0=1, select bank1
  3192  0567  1683               	bcf	status, 6	;RP1=0, select bank1
  3193  0568  1303               	skipc
  3194  0569  1C03               	bcf	(135)^080h,7	;volatile
  3195  056A  1387               	skipnc
  3196  056B  1803               	bsf	(135)^080h,7	;volatile
  3197  056C  1787               	line	69
  3198                           ;source.c: 69:             break;
  3199                           	goto	l183
  3200  056D  2EA2               	line	70
  3201                           ;source.c: 70:         case 1:
  3202                           	
  3203                           l157:	
  3204  056E                     	line	71
  3205                           	
  3206                           l2079:	
  3207  056E                     ;source.c: 71:             TRISCbits.TRISC6 = mode;
  3208                           	rrf	(pinMode@mode),w
  3209  056E  0C70               	bsf	status, 5	;RP0=1, select bank1
  3210  056F  1683               	bcf	status, 6	;RP1=0, select bank1
  3211  0570  1303               	skipc
  3212  0571  1C03               	bcf	(135)^080h,6	;volatile
  3213  0572  1307               	skipnc
  3214  0573  1803               	bsf	(135)^080h,6	;volatile
  3215  0574  1707               	line	72
  3216                           ;source.c: 72:             break;
  3217                           	goto	l183
  3218  0575  2EA2               	line	73
  3219                           ;source.c: 73:         case 2:
  3220                           	
  3221                           l158:	
  3222  0576                     	line	74
  3223                           	
  3224                           l2081:	
  3225  0576                     ;source.c: 74:             TRISDbits.TRISD2 = mode;
  3226                           	rrf	(pinMode@mode),w
  3227  0576  0C70               	bsf	status, 5	;RP0=1, select bank1
  3228  0577  1683               	bcf	status, 6	;RP1=0, select bank1
  3229  0578  1303               	skipc
  3230  0579  1C03               	bcf	(136)^080h,2	;volatile
  3231  057A  1108               	skipnc
  3232  057B  1803               	bsf	(136)^080h,2	;volatile
  3233  057C  1508               	line	75
  3234                           ;source.c: 75:             break;
  3235                           	goto	l183
  3236  057D  2EA2               	line	76
  3237                           ;source.c: 76:         case 3:
  3238                           	
  3239                           l159:	
  3240  057E                     	line	77
  3241                           	
  3242                           l2083:	
  3243  057E                     ;source.c: 77:             TRISDbits.TRISD3 = mode;
  3244                           	rrf	(pinMode@mode),w
  3245  057E  0C70               	bsf	status, 5	;RP0=1, select bank1
  3246  057F  1683               	bcf	status, 6	;RP1=0, select bank1
  3247  0580  1303               	skipc
  3248  0581  1C03               	bcf	(136)^080h,3	;volatile
  3249  0582  1188               	skipnc
  3250  0583  1803               	bsf	(136)^080h,3	;volatile
  3251  0584  1588               	line	78
  3252                           ;source.c: 78:             break;
  3253                           	goto	l183
  3254  0585  2EA2               	line	79
  3255                           ;source.c: 79:         case 4:
  3256                           	
  3257                           l160:	
  3258  0586                     	line	80
  3259                           	
  3260                           l2085:	
  3261  0586                     ;source.c: 80:             TRISCbits.TRISC4 = mode;
  3262                           	rrf	(pinMode@mode),w
  3263  0586  0C70               	bsf	status, 5	;RP0=1, select bank1
  3264  0587  1683               	bcf	status, 6	;RP1=0, select bank1
  3265  0588  1303               	skipc
  3266  0589  1C03               	bcf	(135)^080h,4	;volatile
  3267  058A  1207               	skipnc
  3268  058B  1803               	bsf	(135)^080h,4	;volatile
  3269  058C  1607               	line	81
  3270                           ;source.c: 81:             break;
  3271                           	goto	l183
  3272  058D  2EA2               	line	82
  3273                           ;source.c: 82:         case 5:
  3274                           	
  3275                           l161:	
  3276  058E                     	line	83
  3277                           	
  3278                           l2087:	
  3279  058E                     ;source.c: 83:             TRISCbits.TRISC5 = mode;
  3280                           	rrf	(pinMode@mode),w
  3281  058E  0C70               	bsf	status, 5	;RP0=1, select bank1
  3282  058F  1683               	bcf	status, 6	;RP1=0, select bank1
  3283  0590  1303               	skipc
  3284  0591  1C03               	bcf	(135)^080h,5	;volatile
  3285  0592  1287               	skipnc
  3286  0593  1803               	bsf	(135)^080h,5	;volatile
  3287  0594  1687               	line	84
  3288                           ;source.c: 84:             break;
  3289                           	goto	l183
  3290  0595  2EA2               	line	85
  3291                           ;source.c: 85:         case 6:
  3292                           	
  3293                           l162:	
  3294  0596                     	line	86
  3295                           	
  3296                           l2089:	
  3297  0596                     ;source.c: 86:             TRISDbits.TRISD4 = mode;
  3298                           	rrf	(pinMode@mode),w
  3299  0596  0C70               	bsf	status, 5	;RP0=1, select bank1
  3300  0597  1683               	bcf	status, 6	;RP1=0, select bank1
  3301  0598  1303               	skipc
  3302  0599  1C03               	bcf	(136)^080h,4	;volatile
  3303  059A  1208               	skipnc
  3304  059B  1803               	bsf	(136)^080h,4	;volatile
  3305  059C  1608               	line	87
  3306                           ;source.c: 87:             break;
  3307                           	goto	l183
  3308  059D  2EA2               	line	88
  3309                           ;source.c: 88:         case 7:
  3310                           	
  3311                           l163:	
  3312  059E                     	line	89
  3313                           	
  3314                           l2091:	
  3315  059E                     ;source.c: 89:             TRISDbits.TRISD5 = mode;
  3316                           	rrf	(pinMode@mode),w
  3317  059E  0C70               	bsf	status, 5	;RP0=1, select bank1
  3318  059F  1683               	bcf	status, 6	;RP1=0, select bank1
  3319  05A0  1303               	skipc
  3320  05A1  1C03               	bcf	(136)^080h,5	;volatile
  3321  05A2  1288               	skipnc
  3322  05A3  1803               	bsf	(136)^080h,5	;volatile
  3323  05A4  1688               	line	90
  3324                           ;source.c: 90:             break;
  3325                           	goto	l183
  3326  05A5  2EA2               	line	91
  3327                           ;source.c: 91:         case 8:
  3328                           	
  3329                           l164:	
  3330  05A6                     	line	92
  3331                           	
  3332                           l2093:	
  3333  05A6                     ;source.c: 92:             TRISDbits.TRISD6 = mode;
  3334                           	rrf	(pinMode@mode),w
  3335  05A6  0C70               	bsf	status, 5	;RP0=1, select bank1
  3336  05A7  1683               	bcf	status, 6	;RP1=0, select bank1
  3337  05A8  1303               	skipc
  3338  05A9  1C03               	bcf	(136)^080h,6	;volatile
  3339  05AA  1308               	skipnc
  3340  05AB  1803               	bsf	(136)^080h,6	;volatile
  3341  05AC  1708               	line	93
  3342                           ;source.c: 93:             break;
  3343                           	goto	l183
  3344  05AD  2EA2               	line	94
  3345                           ;source.c: 94:         case 9:
  3346                           	
  3347                           l165:	
  3348  05AE                     	line	95
  3349                           	
  3350                           l2095:	
  3351  05AE                     ;source.c: 95:             TRISDbits.TRISD7 = mode;
  3352                           	rrf	(pinMode@mode),w
  3353  05AE  0C70               	bsf	status, 5	;RP0=1, select bank1
  3354  05AF  1683               	bcf	status, 6	;RP1=0, select bank1
  3355  05B0  1303               	skipc
  3356  05B1  1C03               	bcf	(136)^080h,7	;volatile
  3357  05B2  1388               	skipnc
  3358  05B3  1803               	bsf	(136)^080h,7	;volatile
  3359  05B4  1788               	line	96
  3360                           ;source.c: 96:             break;
  3361                           	goto	l183
  3362  05B5  2EA2               	line	97
  3363                           ;source.c: 97:         case 10:
  3364                           	
  3365                           l166:	
  3366  05B6                     	line	98
  3367                           	
  3368                           l2097:	
  3369  05B6                     ;source.c: 98:             TRISBbits.TRISB0 = mode;
  3370                           	rrf	(pinMode@mode),w
  3371  05B6  0C70               	bsf	status, 5	;RP0=1, select bank1
  3372  05B7  1683               	bcf	status, 6	;RP1=0, select bank1
  3373  05B8  1303               	skipc
  3374  05B9  1C03               	bcf	(134)^080h,0	;volatile
  3375  05BA  1006               	skipnc
  3376  05BB  1803               	bsf	(134)^080h,0	;volatile
  3377  05BC  1406               	line	99
  3378                           ;source.c: 99:             break;
  3379                           	goto	l183
  3380  05BD  2EA2               	line	100
  3381                           ;source.c: 100:         case 11:
  3382                           	
  3383                           l167:	
  3384  05BE                     	line	101
  3385                           	
  3386                           l2099:	
  3387  05BE                     ;source.c: 101:             TRISBbits.TRISB1 = mode;
  3388                           	rrf	(pinMode@mode),w
  3389  05BE  0C70               	bsf	status, 5	;RP0=1, select bank1
  3390  05BF  1683               	bcf	status, 6	;RP1=0, select bank1
  3391  05C0  1303               	skipc
  3392  05C1  1C03               	bcf	(134)^080h,1	;volatile
  3393  05C2  1086               	skipnc
  3394  05C3  1803               	bsf	(134)^080h,1	;volatile
  3395  05C4  1486               	line	102
  3396                           ;source.c: 102:             break;
  3397                           	goto	l183
  3398  05C5  2EA2               	line	103
  3399                           ;source.c: 103:         case 12:
  3400                           	
  3401                           l168:	
  3402  05C6                     	line	104
  3403                           	
  3404                           l2101:	
  3405  05C6                     ;source.c: 104:             TRISBbits.TRISB2 = mode;
  3406                           	rrf	(pinMode@mode),w
  3407  05C6  0C70               	bsf	status, 5	;RP0=1, select bank1
  3408  05C7  1683               	bcf	status, 6	;RP1=0, select bank1
  3409  05C8  1303               	skipc
  3410  05C9  1C03               	bcf	(134)^080h,2	;volatile
  3411  05CA  1106               	skipnc
  3412  05CB  1803               	bsf	(134)^080h,2	;volatile
  3413  05CC  1506               	line	105
  3414                           ;source.c: 105:             break;
  3415                           	goto	l183
  3416  05CD  2EA2               	line	106
  3417                           ;source.c: 106:         case 13:
  3418                           	
  3419                           l169:	
  3420  05CE                     	line	107
  3421                           	
  3422                           l2103:	
  3423  05CE                     ;source.c: 107:             TRISBbits.TRISB4 = mode;
  3424                           	rrf	(pinMode@mode),w
  3425  05CE  0C70               	bsf	status, 5	;RP0=1, select bank1
  3426  05CF  1683               	bcf	status, 6	;RP1=0, select bank1
  3427  05D0  1303               	skipc
  3428  05D1  1C03               	bcf	(134)^080h,4	;volatile
  3429  05D2  1206               	skipnc
  3430  05D3  1803               	bsf	(134)^080h,4	;volatile
  3431  05D4  1606               	line	108
  3432                           ;source.c: 108:             break;
  3433                           	goto	l183
  3434  05D5  2EA2               	line	109
  3435                           ;source.c: 109:         case 14:
  3436                           	
  3437                           l170:	
  3438  05D6                     	line	110
  3439                           	
  3440                           l2105:	
  3441  05D6                     ;source.c: 110:             TRISBbits.TRISB3 = mode;
  3442                           	rrf	(pinMode@mode),w
  3443  05D6  0C70               	bsf	status, 5	;RP0=1, select bank1
  3444  05D7  1683               	bcf	status, 6	;RP1=0, select bank1
  3445  05D8  1303               	skipc
  3446  05D9  1C03               	bcf	(134)^080h,3	;volatile
  3447  05DA  1186               	skipnc
  3448  05DB  1803               	bsf	(134)^080h,3	;volatile
  3449  05DC  1586               	line	111
  3450                           ;source.c: 111:             break;
  3451                           	goto	l183
  3452  05DD  2EA2               	line	112
  3453                           ;source.c: 112:         case 15:
  3454                           	
  3455                           l171:	
  3456  05DE                     	line	113
  3457                           	
  3458                           l2107:	
  3459  05DE                     ;source.c: 113:             TRISBbits.TRISB5 = mode;
  3460                           	rrf	(pinMode@mode),w
  3461  05DE  0C70               	bsf	status, 5	;RP0=1, select bank1
  3462  05DF  1683               	bcf	status, 6	;RP1=0, select bank1
  3463  05E0  1303               	skipc
  3464  05E1  1C03               	bcf	(134)^080h,5	;volatile
  3465  05E2  1286               	skipnc
  3466  05E3  1803               	bsf	(134)^080h,5	;volatile
  3467  05E4  1686               	line	114
  3468                           ;source.c: 114:             break;
  3469                           	goto	l183
  3470  05E5  2EA2               	line	115
  3471                           ;source.c: 115:         case 16:
  3472                           	
  3473                           l172:	
  3474  05E6                     	line	116
  3475                           	
  3476                           l2109:	
  3477  05E6                     ;source.c: 116:             TRISBbits.TRISB6 = mode;
  3478                           	rrf	(pinMode@mode),w
  3479  05E6  0C70               	bsf	status, 5	;RP0=1, select bank1
  3480  05E7  1683               	bcf	status, 6	;RP1=0, select bank1
  3481  05E8  1303               	skipc
  3482  05E9  1C03               	bcf	(134)^080h,6	;volatile
  3483  05EA  1306               	skipnc
  3484  05EB  1803               	bsf	(134)^080h,6	;volatile
  3485  05EC  1706               	line	117
  3486                           ;source.c: 117:             break;
  3487                           	goto	l183
  3488  05ED  2EA2               	line	118
  3489                           ;source.c: 118:         case 17:
  3490                           	
  3491                           l173:	
  3492  05EE                     	line	119
  3493                           	
  3494                           l2111:	
  3495  05EE                     ;source.c: 119:             TRISCbits.TRISC3 = mode;
  3496                           	rrf	(pinMode@mode),w
  3497  05EE  0C70               	bsf	status, 5	;RP0=1, select bank1
  3498  05EF  1683               	bcf	status, 6	;RP1=0, select bank1
  3499  05F0  1303               	skipc
  3500  05F1  1C03               	bcf	(135)^080h,3	;volatile
  3501  05F2  1187               	skipnc
  3502  05F3  1803               	bsf	(135)^080h,3	;volatile
  3503  05F4  1587               	line	120
  3504                           ;source.c: 120:             break;
  3505                           	goto	l183
  3506  05F5  2EA2               	line	121
  3507                           ;source.c: 121:         case 18:
  3508                           	
  3509                           l174:	
  3510  05F6                     	line	122
  3511                           	
  3512                           l2113:	
  3513  05F6                     ;source.c: 122:             TRISBbits.TRISB7 = mode;
  3514                           	rrf	(pinMode@mode),w
  3515  05F6  0C70               	bsf	status, 5	;RP0=1, select bank1
  3516  05F7  1683               	bcf	status, 6	;RP1=0, select bank1
  3517  05F8  1303               	skipc
  3518  05F9  1C03               	bcf	(134)^080h,7	;volatile
  3519  05FA  1386               	skipnc
  3520  05FB  1803               	bsf	(134)^080h,7	;volatile
  3521  05FC  1786               	line	123
  3522                           ;source.c: 123:             break;
  3523                           	goto	l183
  3524  05FD  2EA2               	line	124
  3525                           ;source.c: 124:         case 19:
  3526                           	
  3527                           l175:	
  3528  05FE                     	line	125
  3529                           	
  3530                           l2115:	
  3531  05FE                     ;source.c: 125:             TRISAbits.TRISA4 = mode;
  3532                           	rrf	(pinMode@mode),w
  3533  05FE  0C70               	bsf	status, 5	;RP0=1, select bank1
  3534  05FF  1683               	bcf	status, 6	;RP1=0, select bank1
  3535  0600  1303               	skipc
  3536  0601  1C03               	bcf	(133)^080h,4	;volatile
  3537  0602  1205               	skipnc
  3538  0603  1803               	bsf	(133)^080h,4	;volatile
  3539  0604  1605               	line	126
  3540                           ;source.c: 126:             break;
  3541                           	goto	l183
  3542  0605  2EA2               	line	127
  3543                           ;source.c: 127:         case 20:
  3544                           	
  3545                           l176:	
  3546  0606                     	line	128
  3547                           ;source.c: 128:             ADCON1bits.PCFG3 = 0;
  3548                           	bsf	status, 5	;RP0=1, select bank1
  3549  0606  1683               	bcf	status, 6	;RP1=0, select bank1
  3550  0607  1303               	bcf	(159)^080h,3	;volatile
  3551  0608  119F               	line	129
  3552                           ;source.c: 129:             ADCON1bits.PCFG2 = 1;
  3553                           	bsf	(159)^080h,2	;volatile
  3554  0609  151F               	line	130
  3555                           ;source.c: 130:             ADCON1bits.PCFG1 = 0;
  3556                           	bcf	(159)^080h,1	;volatile
  3557  060A  109F               	line	131
  3558                           ;source.c: 131:             ADCON1bits.PCFG0 = 0;
  3559                           	bcf	(159)^080h,0	;volatile
  3560  060B  101F               	line	132
  3561                           	
  3562                           l2117:	
  3563  060C                     ;source.c: 132:             TRISAbits.TRISA5 = mode;
  3564                           	rrf	(pinMode@mode),w
  3565  060C  0C70               	skipc
  3566  060D  1C03               	bcf	(133)^080h,5	;volatile
  3567  060E  1285               	skipnc
  3568  060F  1803               	bsf	(133)^080h,5	;volatile
  3569  0610  1685               	line	135
  3570                           ;source.c: 135:             break;
  3571                           	goto	l183
  3572  0611  2EA2               	line	136
  3573                           ;source.c: 136:         case 21:
  3574                           	
  3575                           l177:	
  3576  0612                     	line	137
  3577                           	
  3578                           l2119:	
  3579  0612                     ;source.c: 137:             TRISCbits.TRISC0 = mode;
  3580                           	rrf	(pinMode@mode),w
  3581  0612  0C70               	bsf	status, 5	;RP0=1, select bank1
  3582  0613  1683               	bcf	status, 6	;RP1=0, select bank1
  3583  0614  1303               	skipc
  3584  0615  1C03               	bcf	(135)^080h,0	;volatile
  3585  0616  1007               	skipnc
  3586  0617  1803               	bsf	(135)^080h,0	;volatile
  3587  0618  1407               	line	138
  3588                           ;source.c: 138:             break;
  3589                           	goto	l183
  3590  0619  2EA2               	line	139
  3591                           ;source.c: 139:         case 22:
  3592                           	
  3593                           l178:	
  3594  061A                     	line	140
  3595                           	
  3596                           l2121:	
  3597  061A                     ;source.c: 140:             TRISCbits.TRISC1 = mode;
  3598                           	rrf	(pinMode@mode),w
  3599  061A  0C70               	bsf	status, 5	;RP0=1, select bank1
  3600  061B  1683               	bcf	status, 6	;RP1=0, select bank1
  3601  061C  1303               	skipc
  3602  061D  1C03               	bcf	(135)^080h,1	;volatile
  3603  061E  1087               	skipnc
  3604  061F  1803               	bsf	(135)^080h,1	;volatile
  3605  0620  1487               	line	141
  3606                           ;source.c: 141:             break;
  3607                           	goto	l183
  3608  0621  2EA2               	line	142
  3609                           ;source.c: 142:         case 23:
  3610                           	
  3611                           l179:	
  3612  0622                     	line	143
  3613                           	
  3614                           l2123:	
  3615  0622                     ;source.c: 143:             TRISCbits.TRISC2 = mode;
  3616                           	rrf	(pinMode@mode),w
  3617  0622  0C70               	bsf	status, 5	;RP0=1, select bank1
  3618  0623  1683               	bcf	status, 6	;RP1=0, select bank1
  3619  0624  1303               	skipc
  3620  0625  1C03               	bcf	(135)^080h,2	;volatile
  3621  0626  1107               	skipnc
  3622  0627  1803               	bsf	(135)^080h,2	;volatile
  3623  0628  1507               	line	144
  3624                           ;source.c: 144:             break;
  3625                           	goto	l183
  3626  0629  2EA2               	line	145
  3627                           ;source.c: 145:         case 24:
  3628                           	
  3629                           l180:	
  3630  062A                     	line	146
  3631                           	
  3632                           l2125:	
  3633  062A                     ;source.c: 146:             TRISDbits.TRISD1 = mode;
  3634                           	rrf	(pinMode@mode),w
  3635  062A  0C70               	bsf	status, 5	;RP0=1, select bank1
  3636  062B  1683               	bcf	status, 6	;RP1=0, select bank1
  3637  062C  1303               	skipc
  3638  062D  1C03               	bcf	(136)^080h,1	;volatile
  3639  062E  1088               	skipnc
  3640  062F  1803               	bsf	(136)^080h,1	;volatile
  3641  0630  1488               	line	147
  3642                           ;source.c: 147:             break;
  3643                           	goto	l183
  3644  0631  2EA2               	line	148
  3645                           ;source.c: 148:         case 25:
  3646                           	
  3647                           l181:	
  3648  0632                     	line	149
  3649                           	
  3650                           l2127:	
  3651  0632                     ;source.c: 149:             TRISDbits.TRISD0 = mode;
  3652                           	rrf	(pinMode@mode),w
  3653  0632  0C70               	bsf	status, 5	;RP0=1, select bank1
  3654  0633  1683               	bcf	status, 6	;RP1=0, select bank1
  3655  0634  1303               	skipc
  3656  0635  1C03               	bcf	(136)^080h,0	;volatile
  3657  0636  1008               	skipnc
  3658  0637  1803               	bsf	(136)^080h,0	;volatile
  3659  0638  1408               	line	150
  3660                           ;source.c: 150:             break;
  3661                           	goto	l183
  3662  0639  2EA2               	line	151
  3663                           ;source.c: 151:         case 26:
  3664                           	
  3665                           l182:	
  3666  063A                     	line	152
  3667                           ;source.c: 152:             ADCON1bits.PCFG3 = 0;
  3668                           	bsf	status, 5	;RP0=1, select bank1
  3669  063A  1683               	bcf	status, 6	;RP1=0, select bank1
  3670  063B  1303               	bcf	(159)^080h,3	;volatile
  3671  063C  119F               	line	153
  3672                           ;source.c: 153:             ADCON1bits.PCFG2 = 1;
  3673                           	bsf	(159)^080h,2	;volatile
  3674  063D  151F               	line	154
  3675                           ;source.c: 154:             ADCON1bits.PCFG1 = 0;
  3676                           	bcf	(159)^080h,1	;volatile
  3677  063E  109F               	line	155
  3678                           ;source.c: 155:             ADCON1bits.PCFG0 = 0;
  3679                           	bcf	(159)^080h,0	;volatile
  3680  063F  101F               	line	156
  3681                           	
  3682                           l2129:	
  3683  0640                     ;source.c: 156:             TRISAbits.TRISA2 = mode;
  3684                           	rrf	(pinMode@mode),w
  3685  0640  0C70               	skipc
  3686  0641  1C03               	bcf	(133)^080h,2	;volatile
  3687  0642  1105               	skipnc
  3688  0643  1803               	bsf	(133)^080h,2	;volatile
  3689  0644  1505               	line	159
  3690                           ;source.c: 159:             break;
  3691                           	goto	l183
  3692  0645  2EA2               	line	160
  3693                           	
  3694                           l2131:	
  3695  0646                     ;source.c: 160:     }
  3696                           	goto	l183
  3697  0646  2EA2               	
  3698                           l154:	
  3699  0647                     	
  3700                           l2133:	
  3701  0647                     	movf	(pinMode@pin),w
  3702  0647  0873               	movwf	(??_pinMode+0)+0
  3703  0648  00F1               	clrf	(??_pinMode+0)+0+1
  3704  0649  01F2               	; Switch on 2 bytes has been partitioned into a top level switch of size 1, and 1 sub-s
                                 witches
  3705                           ; Switch size 1, requested type "space"
  3706                           ; Number of cases is 1, Range of values is 0 to 0
  3707                           ; switch strategies available:
  3708                           ; Name         Instructions Cycles
  3709                           ; simple_byte            4     3 (average)
  3710                           ; direct_byte           11     8 (fixed)
  3711                           ; jumptable            260     6 (fixed)
  3712                           ;	Chosen strategy is simple_byte
  3713                           
  3714                           	movf 1+(??_pinMode+0)+0,w
  3715  064A  0872               	opt asmopt_push
  3716                           	opt asmopt_off
  3717                           	xorlw	0^0	; case 0
  3718  064B  3A00               	skipnz
  3719  064C  1903               	goto	l2939
  3720  064D  2E4F               	goto	l183
  3721  064E  2EA2               	opt asmopt_pop
  3722                           	
  3723                           l2939:	
  3724  064F                     ; Switch size 1, requested type "space"
  3725                           ; Number of cases is 27, Range of values is 0 to 26
  3726                           ; switch strategies available:
  3727                           ; Name         Instructions Cycles
  3728                           ; simple_byte           82    42 (average)
  3729                           ; direct_byte           89     8 (fixed)
  3730                           ; jumptable            260     6 (fixed)
  3731                           ;	Chosen strategy is simple_byte
  3732                           
  3733                           	movf 0+(??_pinMode+0)+0,w
  3734  064F  0871               	opt asmopt_push
  3735                           	opt asmopt_off
  3736                           	xorlw	0^0	; case 0
  3737  0650  3A00               	skipnz
  3738  0651  1903               	goto	l2077
  3739  0652  2D66               	xorlw	1^0	; case 1
  3740  0653  3A01               	skipnz
  3741  0654  1903               	goto	l2079
  3742  0655  2D6E               	xorlw	2^1	; case 2
  3743  0656  3A03               	skipnz
  3744  0657  1903               	goto	l2081
  3745  0658  2D76               	xorlw	3^2	; case 3
  3746  0659  3A01               	skipnz
  3747  065A  1903               	goto	l2083
  3748  065B  2D7E               	xorlw	4^3	; case 4
  3749  065C  3A07               	skipnz
  3750  065D  1903               	goto	l2085
  3751  065E  2D86               	xorlw	5^4	; case 5
  3752  065F  3A01               	skipnz
  3753  0660  1903               	goto	l2087
  3754  0661  2D8E               	xorlw	6^5	; case 6
  3755  0662  3A03               	skipnz
  3756  0663  1903               	goto	l2089
  3757  0664  2D96               	xorlw	7^6	; case 7
  3758  0665  3A01               	skipnz
  3759  0666  1903               	goto	l2091
  3760  0667  2D9E               	xorlw	8^7	; case 8
  3761  0668  3A0F               	skipnz
  3762  0669  1903               	goto	l2093
  3763  066A  2DA6               	xorlw	9^8	; case 9
  3764  066B  3A01               	skipnz
  3765  066C  1903               	goto	l2095
  3766  066D  2DAE               	xorlw	10^9	; case 10
  3767  066E  3A03               	skipnz
  3768  066F  1903               	goto	l2097
  3769  0670  2DB6               	xorlw	11^10	; case 11
  3770  0671  3A01               	skipnz
  3771  0672  1903               	goto	l2099
  3772  0673  2DBE               	xorlw	12^11	; case 12
  3773  0674  3A07               	skipnz
  3774  0675  1903               	goto	l2101
  3775  0676  2DC6               	xorlw	13^12	; case 13
  3776  0677  3A01               	skipnz
  3777  0678  1903               	goto	l2103
  3778  0679  2DCE               	xorlw	14^13	; case 14
  3779  067A  3A03               	skipnz
  3780  067B  1903               	goto	l2105
  3781  067C  2DD6               	xorlw	15^14	; case 15
  3782  067D  3A01               	skipnz
  3783  067E  1903               	goto	l2107
  3784  067F  2DDE               	xorlw	16^15	; case 16
  3785  0680  3A1F               	skipnz
  3786  0681  1903               	goto	l2109
  3787  0682  2DE6               	xorlw	17^16	; case 17
  3788  0683  3A01               	skipnz
  3789  0684  1903               	goto	l2111
  3790  0685  2DEE               	xorlw	18^17	; case 18
  3791  0686  3A03               	skipnz
  3792  0687  1903               	goto	l2113
  3793  0688  2DF6               	xorlw	19^18	; case 19
  3794  0689  3A01               	skipnz
  3795  068A  1903               	goto	l2115
  3796  068B  2DFE               	xorlw	20^19	; case 20
  3797  068C  3A07               	skipnz
  3798  068D  1903               	goto	l176
  3799  068E  2E06               	xorlw	21^20	; case 21
  3800  068F  3A01               	skipnz
  3801  0690  1903               	goto	l2119
  3802  0691  2E12               	xorlw	22^21	; case 22
  3803  0692  3A03               	skipnz
  3804  0693  1903               	goto	l2121
  3805  0694  2E1A               	xorlw	23^22	; case 23
  3806  0695  3A01               	skipnz
  3807  0696  1903               	goto	l2123
  3808  0697  2E22               	xorlw	24^23	; case 24
  3809  0698  3A0F               	skipnz
  3810  0699  1903               	goto	l2125
  3811  069A  2E2A               	xorlw	25^24	; case 25
  3812  069B  3A01               	skipnz
  3813  069C  1903               	goto	l2127
  3814  069D  2E32               	xorlw	26^25	; case 26
  3815  069E  3A03               	skipnz
  3816  069F  1903               	goto	l182
  3817  06A0  2E3A               	goto	l183
  3818  06A1  2EA2               	opt asmopt_pop
  3819                           
  3820                           	
  3821                           l156:	
  3822  06A2                     	line	161
  3823                           	
  3824                           l183:	
  3825  06A2                     	return
  3826  06A2  0008               	opt stack 0
  3827                           GLOBAL	__end_of_pinMode
  3828                           	__end_of_pinMode:
  3829  06A3                     	signat	_pinMode,8313
  3830                           	global	_digitalWrite
  3831                           
  3832 ;; *************** function _digitalWrite *****************
  3833 ;; Defined at:
  3834 ;;		line 162 in file "source.c"
  3835 ;; Parameters:    Size  Location     Type
  3836 ;;  pin             1    wreg     unsigned char 
  3837 ;;  value           1    0[COMMON] unsigned char 
  3838 ;; Auto vars:     Size  Location     Type
  3839 ;;  pin             1    3[COMMON] unsigned char 
  3840 ;; Return value:  Size  Location     Type
  3841 ;;                  1    wreg      void 
  3842 ;; Registers used:
  3843 ;;		wreg, fsr0l, fsr0h, status,2, status,0
  3844 ;; Tracked objects:
  3845 ;;		On entry : 0/0
  3846 ;;		On exit  : 0/0
  3847 ;;		Unchanged: 0/0
  3848 ;; Data sizes:     COMMON   BANK0   BANK1   BANK3   BANK2
  3849 ;;      Params:         1       0       0       0       0
  3850 ;;      Locals:         1       0       0       0       0
  3851 ;;      Temps:          2       0       0       0       0
  3852 ;;      Totals:         4       0       0       0       0
  3853 ;;Total ram usage:        4 bytes
  3854 ;; Hardware stack levels used:    1
  3855 ;; This function calls:
  3856 ;;		Nothing
  3857 ;; This function is called by:
  3858 ;;		_setup
  3859 ;;		_ProcessCommand
  3860 ;; This function uses a non-reentrant model
  3861 ;;
  3862                           psect	text10,local,class=CODE,delta=2,merge=1,group=0
  3863                           	line	162
  3864                           global __ptext10
  3865                           __ptext10:	;psect for function _digitalWrite
  3866  042D                     psect	text10
  3867                           	file	"source.c"
  3868                           	line	162
  3869                           	global	__size_of_digitalWrite
  3870                           	__size_of_digitalWrite	equ	__end_of_digitalWrite-_digitalWrite
  3871  0137                     	
  3872                           _digitalWrite:	
  3873  042D                     ;incstack = 0
  3874                           	opt	stack 6
  3875                           ; Regs used in _digitalWrite: [wreg-fsr0h+status,2+status,0]
  3876                           ;digitalWrite@pin stored from wreg
  3877                           	movwf	(digitalWrite@pin)
  3878  042D  00F3               	line	164
  3879                           	
  3880                           l2139:	
  3881  042E                     ;source.c: 162: void digitalWrite(char pin, char value);source.c: 163: {;source.c: 164: 
                                     switch(pin)
  3882                           	goto	l2197
  3883  042E  2D08               	line	166
  3884                           ;source.c: 165:     {;source.c: 166:         case 0:
  3885                           	
  3886                           l187:	
  3887  042F                     	line	167
  3888                           	
  3889                           l2141:	
  3890  042F                     ;source.c: 167:             PORTCbits.RC7 = value;
  3891                           	rrf	(digitalWrite@value),w
  3892  042F  0C70               	bcf	status, 5	;RP0=0, select bank0
  3893  0430  1283               	bcf	status, 6	;RP1=0, select bank0
  3894  0431  1303               	skipc
  3895  0432  1C03               	bcf	(7),7	;volatile
  3896  0433  1387               	skipnc
  3897  0434  1803               	bsf	(7),7	;volatile
  3898  0435  1787               	line	168
  3899                           ;source.c: 168:             break;
  3900                           	goto	l215
  3901  0436  2D63               	line	169
  3902                           ;source.c: 169:         case 1:
  3903                           	
  3904                           l189:	
  3905  0437                     	line	170
  3906                           	
  3907                           l2143:	
  3908  0437                     ;source.c: 170:             PORTCbits.RC6 = value;
  3909                           	rrf	(digitalWrite@value),w
  3910  0437  0C70               	bcf	status, 5	;RP0=0, select bank0
  3911  0438  1283               	bcf	status, 6	;RP1=0, select bank0
  3912  0439  1303               	skipc
  3913  043A  1C03               	bcf	(7),6	;volatile
  3914  043B  1307               	skipnc
  3915  043C  1803               	bsf	(7),6	;volatile
  3916  043D  1707               	line	171
  3917                           ;source.c: 171:             break;
  3918                           	goto	l215
  3919  043E  2D63               	line	172
  3920                           ;source.c: 172:         case 2:
  3921                           	
  3922                           l190:	
  3923  043F                     	line	173
  3924                           	
  3925                           l2145:	
  3926  043F                     ;source.c: 173:             PORTDbits.RD2 = value;
  3927                           	rrf	(digitalWrite@value),w
  3928  043F  0C70               	bcf	status, 5	;RP0=0, select bank0
  3929  0440  1283               	bcf	status, 6	;RP1=0, select bank0
  3930  0441  1303               	skipc
  3931  0442  1C03               	bcf	(8),2	;volatile
  3932  0443  1108               	skipnc
  3933  0444  1803               	bsf	(8),2	;volatile
  3934  0445  1508               	line	174
  3935                           ;source.c: 174:             break;
  3936                           	goto	l215
  3937  0446  2D63               	line	175
  3938                           ;source.c: 175:         case 3:
  3939                           	
  3940                           l191:	
  3941  0447                     	line	176
  3942                           	
  3943                           l2147:	
  3944  0447                     ;source.c: 176:             PORTDbits.RD3 = value;
  3945                           	rrf	(digitalWrite@value),w
  3946  0447  0C70               	bcf	status, 5	;RP0=0, select bank0
  3947  0448  1283               	bcf	status, 6	;RP1=0, select bank0
  3948  0449  1303               	skipc
  3949  044A  1C03               	bcf	(8),3	;volatile
  3950  044B  1188               	skipnc
  3951  044C  1803               	bsf	(8),3	;volatile
  3952  044D  1588               	line	177
  3953                           ;source.c: 177:             break;
  3954                           	goto	l215
  3955  044E  2D63               	line	178
  3956                           ;source.c: 178:         case 4:
  3957                           	
  3958                           l192:	
  3959  044F                     	line	179
  3960                           	
  3961                           l2149:	
  3962  044F                     ;source.c: 179:             PORTCbits.RC4 = value;
  3963                           	rrf	(digitalWrite@value),w
  3964  044F  0C70               	bcf	status, 5	;RP0=0, select bank0
  3965  0450  1283               	bcf	status, 6	;RP1=0, select bank0
  3966  0451  1303               	skipc
  3967  0452  1C03               	bcf	(7),4	;volatile
  3968  0453  1207               	skipnc
  3969  0454  1803               	bsf	(7),4	;volatile
  3970  0455  1607               	line	180
  3971                           ;source.c: 180:             break;
  3972                           	goto	l215
  3973  0456  2D63               	line	181
  3974                           ;source.c: 181:         case 5:
  3975                           	
  3976                           l193:	
  3977  0457                     	line	182
  3978                           	
  3979                           l2151:	
  3980  0457                     ;source.c: 182:             PORTCbits.RC5 = value;
  3981                           	rrf	(digitalWrite@value),w
  3982  0457  0C70               	bcf	status, 5	;RP0=0, select bank0
  3983  0458  1283               	bcf	status, 6	;RP1=0, select bank0
  3984  0459  1303               	skipc
  3985  045A  1C03               	bcf	(7),5	;volatile
  3986  045B  1287               	skipnc
  3987  045C  1803               	bsf	(7),5	;volatile
  3988  045D  1687               	line	183
  3989                           ;source.c: 183:             break;
  3990                           	goto	l215
  3991  045E  2D63               	line	184
  3992                           ;source.c: 184:         case 6:
  3993                           	
  3994                           l194:	
  3995  045F                     	line	185
  3996                           	
  3997                           l2153:	
  3998  045F                     ;source.c: 185:             PORTDbits.RD4 = value;
  3999                           	rrf	(digitalWrite@value),w
  4000  045F  0C70               	bcf	status, 5	;RP0=0, select bank0
  4001  0460  1283               	bcf	status, 6	;RP1=0, select bank0
  4002  0461  1303               	skipc
  4003  0462  1C03               	bcf	(8),4	;volatile
  4004  0463  1208               	skipnc
  4005  0464  1803               	bsf	(8),4	;volatile
  4006  0465  1608               	line	186
  4007                           ;source.c: 186:             break;
  4008                           	goto	l215
  4009  0466  2D63               	line	187
  4010                           ;source.c: 187:         case 7:
  4011                           	
  4012                           l195:	
  4013  0467                     	line	188
  4014                           	
  4015                           l2155:	
  4016  0467                     ;source.c: 188:             PORTDbits.RD5 = value;
  4017                           	rrf	(digitalWrite@value),w
  4018  0467  0C70               	bcf	status, 5	;RP0=0, select bank0
  4019  0468  1283               	bcf	status, 6	;RP1=0, select bank0
  4020  0469  1303               	skipc
  4021  046A  1C03               	bcf	(8),5	;volatile
  4022  046B  1288               	skipnc
  4023  046C  1803               	bsf	(8),5	;volatile
  4024  046D  1688               	line	189
  4025                           ;source.c: 189:             break;
  4026                           	goto	l215
  4027  046E  2D63               	line	190
  4028                           ;source.c: 190:         case 8:
  4029                           	
  4030                           l196:	
  4031  046F                     	line	191
  4032                           	
  4033                           l2157:	
  4034  046F                     ;source.c: 191:             PORTDbits.RD6 = value;
  4035                           	rrf	(digitalWrite@value),w
  4036  046F  0C70               	bcf	status, 5	;RP0=0, select bank0
  4037  0470  1283               	bcf	status, 6	;RP1=0, select bank0
  4038  0471  1303               	skipc
  4039  0472  1C03               	bcf	(8),6	;volatile
  4040  0473  1308               	skipnc
  4041  0474  1803               	bsf	(8),6	;volatile
  4042  0475  1708               	line	192
  4043                           ;source.c: 192:             break;
  4044                           	goto	l215
  4045  0476  2D63               	line	193
  4046                           ;source.c: 193:         case 9:
  4047                           	
  4048                           l197:	
  4049  0477                     	line	194
  4050                           	
  4051                           l2159:	
  4052  0477                     ;source.c: 194:             PORTDbits.RD7 = value;
  4053                           	rrf	(digitalWrite@value),w
  4054  0477  0C70               	bcf	status, 5	;RP0=0, select bank0
  4055  0478  1283               	bcf	status, 6	;RP1=0, select bank0
  4056  0479  1303               	skipc
  4057  047A  1C03               	bcf	(8),7	;volatile
  4058  047B  1388               	skipnc
  4059  047C  1803               	bsf	(8),7	;volatile
  4060  047D  1788               	line	195
  4061                           ;source.c: 195:             break;
  4062                           	goto	l215
  4063  047E  2D63               	line	196
  4064                           ;source.c: 196:         case 10:
  4065                           	
  4066                           l198:	
  4067  047F                     	line	197
  4068                           	
  4069                           l2161:	
  4070  047F                     ;source.c: 197:             PORTBbits.RB0 = value;
  4071                           	rrf	(digitalWrite@value),w
  4072  047F  0C70               	bcf	status, 5	;RP0=0, select bank0
  4073  0480  1283               	bcf	status, 6	;RP1=0, select bank0
  4074  0481  1303               	skipc
  4075  0482  1C03               	bcf	(6),0	;volatile
  4076  0483  1006               	skipnc
  4077  0484  1803               	bsf	(6),0	;volatile
  4078  0485  1406               	line	198
  4079                           ;source.c: 198:             break;
  4080                           	goto	l215
  4081  0486  2D63               	line	199
  4082                           ;source.c: 199:         case 11:
  4083                           	
  4084                           l199:	
  4085  0487                     	line	200
  4086                           	
  4087                           l2163:	
  4088  0487                     ;source.c: 200:             PORTBbits.RB1 = value;
  4089                           	rrf	(digitalWrite@value),w
  4090  0487  0C70               	bcf	status, 5	;RP0=0, select bank0
  4091  0488  1283               	bcf	status, 6	;RP1=0, select bank0
  4092  0489  1303               	skipc
  4093  048A  1C03               	bcf	(6),1	;volatile
  4094  048B  1086               	skipnc
  4095  048C  1803               	bsf	(6),1	;volatile
  4096  048D  1486               	line	201
  4097                           ;source.c: 201:             break;
  4098                           	goto	l215
  4099  048E  2D63               	line	202
  4100                           ;source.c: 202:         case 12:
  4101                           	
  4102                           l200:	
  4103  048F                     	line	203
  4104                           	
  4105                           l2165:	
  4106  048F                     ;source.c: 203:             PORTBbits.RB2 = value;
  4107                           	rrf	(digitalWrite@value),w
  4108  048F  0C70               	bcf	status, 5	;RP0=0, select bank0
  4109  0490  1283               	bcf	status, 6	;RP1=0, select bank0
  4110  0491  1303               	skipc
  4111  0492  1C03               	bcf	(6),2	;volatile
  4112  0493  1106               	skipnc
  4113  0494  1803               	bsf	(6),2	;volatile
  4114  0495  1506               	line	204
  4115                           ;source.c: 204:             break;
  4116                           	goto	l215
  4117  0496  2D63               	line	205
  4118                           ;source.c: 205:         case 13:
  4119                           	
  4120                           l201:	
  4121  0497                     	line	206
  4122                           	
  4123                           l2167:	
  4124  0497                     ;source.c: 206:             PORTBbits.RB4 = value;
  4125                           	rrf	(digitalWrite@value),w
  4126  0497  0C70               	bcf	status, 5	;RP0=0, select bank0
  4127  0498  1283               	bcf	status, 6	;RP1=0, select bank0
  4128  0499  1303               	skipc
  4129  049A  1C03               	bcf	(6),4	;volatile
  4130  049B  1206               	skipnc
  4131  049C  1803               	bsf	(6),4	;volatile
  4132  049D  1606               	line	207
  4133                           ;source.c: 207:             break;
  4134                           	goto	l215
  4135  049E  2D63               	line	208
  4136                           ;source.c: 208:         case 14:
  4137                           	
  4138                           l202:	
  4139  049F                     	line	209
  4140                           	
  4141                           l2169:	
  4142  049F                     ;source.c: 209:             PORTBbits.RB3 = value;
  4143                           	rrf	(digitalWrite@value),w
  4144  049F  0C70               	bcf	status, 5	;RP0=0, select bank0
  4145  04A0  1283               	bcf	status, 6	;RP1=0, select bank0
  4146  04A1  1303               	skipc
  4147  04A2  1C03               	bcf	(6),3	;volatile
  4148  04A3  1186               	skipnc
  4149  04A4  1803               	bsf	(6),3	;volatile
  4150  04A5  1586               	line	210
  4151                           ;source.c: 210:             break;
  4152                           	goto	l215
  4153  04A6  2D63               	line	211
  4154                           ;source.c: 211:         case 15:
  4155                           	
  4156                           l203:	
  4157  04A7                     	line	212
  4158                           	
  4159                           l2171:	
  4160  04A7                     ;source.c: 212:             PORTBbits.RB5 = value;
  4161                           	rrf	(digitalWrite@value),w
  4162  04A7  0C70               	bcf	status, 5	;RP0=0, select bank0
  4163  04A8  1283               	bcf	status, 6	;RP1=0, select bank0
  4164  04A9  1303               	skipc
  4165  04AA  1C03               	bcf	(6),5	;volatile
  4166  04AB  1286               	skipnc
  4167  04AC  1803               	bsf	(6),5	;volatile
  4168  04AD  1686               	line	213
  4169                           ;source.c: 213:             break;
  4170                           	goto	l215
  4171  04AE  2D63               	line	214
  4172                           ;source.c: 214:         case 16:
  4173                           	
  4174                           l204:	
  4175  04AF                     	line	215
  4176                           	
  4177                           l2173:	
  4178  04AF                     ;source.c: 215:             PORTBbits.RB6 = value;
  4179                           	rrf	(digitalWrite@value),w
  4180  04AF  0C70               	bcf	status, 5	;RP0=0, select bank0
  4181  04B0  1283               	bcf	status, 6	;RP1=0, select bank0
  4182  04B1  1303               	skipc
  4183  04B2  1C03               	bcf	(6),6	;volatile
  4184  04B3  1306               	skipnc
  4185  04B4  1803               	bsf	(6),6	;volatile
  4186  04B5  1706               	line	216
  4187                           ;source.c: 216:             break;
  4188                           	goto	l215
  4189  04B6  2D63               	line	217
  4190                           ;source.c: 217:         case 17:
  4191                           	
  4192                           l205:	
  4193  04B7                     	line	218
  4194                           	
  4195                           l2175:	
  4196  04B7                     ;source.c: 218:             PORTCbits.RC3 = value;
  4197                           	rrf	(digitalWrite@value),w
  4198  04B7  0C70               	bcf	status, 5	;RP0=0, select bank0
  4199  04B8  1283               	bcf	status, 6	;RP1=0, select bank0
  4200  04B9  1303               	skipc
  4201  04BA  1C03               	bcf	(7),3	;volatile
  4202  04BB  1187               	skipnc
  4203  04BC  1803               	bsf	(7),3	;volatile
  4204  04BD  1587               	line	219
  4205                           ;source.c: 219:             break;
  4206                           	goto	l215
  4207  04BE  2D63               	line	220
  4208                           ;source.c: 220:         case 18:
  4209                           	
  4210                           l206:	
  4211  04BF                     	line	221
  4212                           	
  4213                           l2177:	
  4214  04BF                     ;source.c: 221:             PORTBbits.RB7 = value;
  4215                           	rrf	(digitalWrite@value),w
  4216  04BF  0C70               	bcf	status, 5	;RP0=0, select bank0
  4217  04C0  1283               	bcf	status, 6	;RP1=0, select bank0
  4218  04C1  1303               	skipc
  4219  04C2  1C03               	bcf	(6),7	;volatile
  4220  04C3  1386               	skipnc
  4221  04C4  1803               	bsf	(6),7	;volatile
  4222  04C5  1786               	line	222
  4223                           ;source.c: 222:             break;
  4224                           	goto	l215
  4225  04C6  2D63               	line	223
  4226                           ;source.c: 223:         case 19:
  4227                           	
  4228                           l207:	
  4229  04C7                     	line	224
  4230                           	
  4231                           l2179:	
  4232  04C7                     ;source.c: 224:             PORTAbits.RA4 = value;
  4233                           	rrf	(digitalWrite@value),w
  4234  04C7  0C70               	bcf	status, 5	;RP0=0, select bank0
  4235  04C8  1283               	bcf	status, 6	;RP1=0, select bank0
  4236  04C9  1303               	skipc
  4237  04CA  1C03               	bcf	(5),4	;volatile
  4238  04CB  1205               	skipnc
  4239  04CC  1803               	bsf	(5),4	;volatile
  4240  04CD  1605               	line	225
  4241                           ;source.c: 225:             break;
  4242                           	goto	l215
  4243  04CE  2D63               	line	226
  4244                           ;source.c: 226:         case 20:
  4245                           	
  4246                           l208:	
  4247  04CF                     	line	227
  4248                           	
  4249                           l2181:	
  4250  04CF                     ;source.c: 227:             PORTAbits.RA5 = value;
  4251                           	rrf	(digitalWrite@value),w
  4252  04CF  0C70               	bcf	status, 5	;RP0=0, select bank0
  4253  04D0  1283               	bcf	status, 6	;RP1=0, select bank0
  4254  04D1  1303               	skipc
  4255  04D2  1C03               	bcf	(5),5	;volatile
  4256  04D3  1285               	skipnc
  4257  04D4  1803               	bsf	(5),5	;volatile
  4258  04D5  1685               	line	228
  4259                           ;source.c: 228:             break;
  4260                           	goto	l215
  4261  04D6  2D63               	line	229
  4262                           ;source.c: 229:         case 21:
  4263                           	
  4264                           l209:	
  4265  04D7                     	line	230
  4266                           	
  4267                           l2183:	
  4268  04D7                     ;source.c: 230:             PORTCbits.RC0 = value;
  4269                           	rrf	(digitalWrite@value),w
  4270  04D7  0C70               	bcf	status, 5	;RP0=0, select bank0
  4271  04D8  1283               	bcf	status, 6	;RP1=0, select bank0
  4272  04D9  1303               	skipc
  4273  04DA  1C03               	bcf	(7),0	;volatile
  4274  04DB  1007               	skipnc
  4275  04DC  1803               	bsf	(7),0	;volatile
  4276  04DD  1407               	line	231
  4277                           ;source.c: 231:             break;
  4278                           	goto	l215
  4279  04DE  2D63               	line	232
  4280                           ;source.c: 232:         case 22:
  4281                           	
  4282                           l210:	
  4283  04DF                     	line	233
  4284                           	
  4285                           l2185:	
  4286  04DF                     ;source.c: 233:             PORTCbits.RC1 = value;
  4287                           	rrf	(digitalWrite@value),w
  4288  04DF  0C70               	bcf	status, 5	;RP0=0, select bank0
  4289  04E0  1283               	bcf	status, 6	;RP1=0, select bank0
  4290  04E1  1303               	skipc
  4291  04E2  1C03               	bcf	(7),1	;volatile
  4292  04E3  1087               	skipnc
  4293  04E4  1803               	bsf	(7),1	;volatile
  4294  04E5  1487               	line	234
  4295                           ;source.c: 234:             break;
  4296                           	goto	l215
  4297  04E6  2D63               	line	235
  4298                           ;source.c: 235:         case 23:
  4299                           	
  4300                           l211:	
  4301  04E7                     	line	236
  4302                           	
  4303                           l2187:	
  4304  04E7                     ;source.c: 236:             PORTCbits.RC2 = value;
  4305                           	rrf	(digitalWrite@value),w
  4306  04E7  0C70               	bcf	status, 5	;RP0=0, select bank0
  4307  04E8  1283               	bcf	status, 6	;RP1=0, select bank0
  4308  04E9  1303               	skipc
  4309  04EA  1C03               	bcf	(7),2	;volatile
  4310  04EB  1107               	skipnc
  4311  04EC  1803               	bsf	(7),2	;volatile
  4312  04ED  1507               	line	237
  4313                           ;source.c: 237:             break;
  4314                           	goto	l215
  4315  04EE  2D63               	line	238
  4316                           ;source.c: 238:         case 24:
  4317                           	
  4318                           l212:	
  4319  04EF                     	line	239
  4320                           	
  4321                           l2189:	
  4322  04EF                     ;source.c: 239:             PORTDbits.RD1 = value;
  4323                           	rrf	(digitalWrite@value),w
  4324  04EF  0C70               	bcf	status, 5	;RP0=0, select bank0
  4325  04F0  1283               	bcf	status, 6	;RP1=0, select bank0
  4326  04F1  1303               	skipc
  4327  04F2  1C03               	bcf	(8),1	;volatile
  4328  04F3  1088               	skipnc
  4329  04F4  1803               	bsf	(8),1	;volatile
  4330  04F5  1488               	line	240
  4331                           ;source.c: 240:             break;
  4332                           	goto	l215
  4333  04F6  2D63               	line	241
  4334                           ;source.c: 241:         case 25:
  4335                           	
  4336                           l213:	
  4337  04F7                     	line	242
  4338                           	
  4339                           l2191:	
  4340  04F7                     ;source.c: 242:             PORTDbits.RD0 = value;
  4341                           	rrf	(digitalWrite@value),w
  4342  04F7  0C70               	bcf	status, 5	;RP0=0, select bank0
  4343  04F8  1283               	bcf	status, 6	;RP1=0, select bank0
  4344  04F9  1303               	skipc
  4345  04FA  1C03               	bcf	(8),0	;volatile
  4346  04FB  1008               	skipnc
  4347  04FC  1803               	bsf	(8),0	;volatile
  4348  04FD  1408               	line	243
  4349                           ;source.c: 243:             break;
  4350                           	goto	l215
  4351  04FE  2D63               	line	244
  4352                           ;source.c: 244:         case 26:
  4353                           	
  4354                           l214:	
  4355  04FF                     	line	245
  4356                           	
  4357                           l2193:	
  4358  04FF                     ;source.c: 245:             PORTAbits.RA2 = value;
  4359                           	rrf	(digitalWrite@value),w
  4360  04FF  0C70               	bcf	status, 5	;RP0=0, select bank0
  4361  0500  1283               	bcf	status, 6	;RP1=0, select bank0
  4362  0501  1303               	skipc
  4363  0502  1C03               	bcf	(5),2	;volatile
  4364  0503  1105               	skipnc
  4365  0504  1803               	bsf	(5),2	;volatile
  4366  0505  1505               	line	246
  4367                           ;source.c: 246:             break;
  4368                           	goto	l215
  4369  0506  2D63               	line	247
  4370                           	
  4371                           l2195:	
  4372  0507                     ;source.c: 247:     }
  4373                           	goto	l215
  4374  0507  2D63               	
  4375                           l186:	
  4376  0508                     	
  4377                           l2197:	
  4378  0508                     	movf	(digitalWrite@pin),w
  4379  0508  0873               	movwf	(??_digitalWrite+0)+0
  4380  0509  00F1               	clrf	(??_digitalWrite+0)+0+1
  4381  050A  01F2               	; Switch on 2 bytes has been partitioned into a top level switch of size 1, and 1 sub-s
                                 witches
  4382                           ; Switch size 1, requested type "space"
  4383                           ; Number of cases is 1, Range of values is 0 to 0
  4384                           ; switch strategies available:
  4385                           ; Name         Instructions Cycles
  4386                           ; simple_byte            4     3 (average)
  4387                           ; direct_byte           11     8 (fixed)
  4388                           ; jumptable            260     6 (fixed)
  4389                           ;	Chosen strategy is simple_byte
  4390                           
  4391                           	movf 1+(??_digitalWrite+0)+0,w
  4392  050B  0872               	opt asmopt_push
  4393                           	opt asmopt_off
  4394                           	xorlw	0^0	; case 0
  4395  050C  3A00               	skipnz
  4396  050D  1903               	goto	l2941
  4397  050E  2D10               	goto	l215
  4398  050F  2D63               	opt asmopt_pop
  4399                           	
  4400                           l2941:	
  4401  0510                     ; Switch size 1, requested type "space"
  4402                           ; Number of cases is 27, Range of values is 0 to 26
  4403                           ; switch strategies available:
  4404                           ; Name         Instructions Cycles
  4405                           ; simple_byte           82    42 (average)
  4406                           ; direct_byte           89     8 (fixed)
  4407                           ; jumptable            260     6 (fixed)
  4408                           ;	Chosen strategy is simple_byte
  4409                           
  4410                           	movf 0+(??_digitalWrite+0)+0,w
  4411  0510  0871               	opt asmopt_push
  4412                           	opt asmopt_off
  4413                           	xorlw	0^0	; case 0
  4414  0511  3A00               	skipnz
  4415  0512  1903               	goto	l2141
  4416  0513  2C2F               	xorlw	1^0	; case 1
  4417  0514  3A01               	skipnz
  4418  0515  1903               	goto	l2143
  4419  0516  2C37               	xorlw	2^1	; case 2
  4420  0517  3A03               	skipnz
  4421  0518  1903               	goto	l2145
  4422  0519  2C3F               	xorlw	3^2	; case 3
  4423  051A  3A01               	skipnz
  4424  051B  1903               	goto	l2147
  4425  051C  2C47               	xorlw	4^3	; case 4
  4426  051D  3A07               	skipnz
  4427  051E  1903               	goto	l2149
  4428  051F  2C4F               	xorlw	5^4	; case 5
  4429  0520  3A01               	skipnz
  4430  0521  1903               	goto	l2151
  4431  0522  2C57               	xorlw	6^5	; case 6
  4432  0523  3A03               	skipnz
  4433  0524  1903               	goto	l2153
  4434  0525  2C5F               	xorlw	7^6	; case 7
  4435  0526  3A01               	skipnz
  4436  0527  1903               	goto	l2155
  4437  0528  2C67               	xorlw	8^7	; case 8
  4438  0529  3A0F               	skipnz
  4439  052A  1903               	goto	l2157
  4440  052B  2C6F               	xorlw	9^8	; case 9
  4441  052C  3A01               	skipnz
  4442  052D  1903               	goto	l2159
  4443  052E  2C77               	xorlw	10^9	; case 10
  4444  052F  3A03               	skipnz
  4445  0530  1903               	goto	l2161
  4446  0531  2C7F               	xorlw	11^10	; case 11
  4447  0532  3A01               	skipnz
  4448  0533  1903               	goto	l2163
  4449  0534  2C87               	xorlw	12^11	; case 12
  4450  0535  3A07               	skipnz
  4451  0536  1903               	goto	l2165
  4452  0537  2C8F               	xorlw	13^12	; case 13
  4453  0538  3A01               	skipnz
  4454  0539  1903               	goto	l2167
  4455  053A  2C97               	xorlw	14^13	; case 14
  4456  053B  3A03               	skipnz
  4457  053C  1903               	goto	l2169
  4458  053D  2C9F               	xorlw	15^14	; case 15
  4459  053E  3A01               	skipnz
  4460  053F  1903               	goto	l2171
  4461  0540  2CA7               	xorlw	16^15	; case 16
  4462  0541  3A1F               	skipnz
  4463  0542  1903               	goto	l2173
  4464  0543  2CAF               	xorlw	17^16	; case 17
  4465  0544  3A01               	skipnz
  4466  0545  1903               	goto	l2175
  4467  0546  2CB7               	xorlw	18^17	; case 18
  4468  0547  3A03               	skipnz
  4469  0548  1903               	goto	l2177
  4470  0549  2CBF               	xorlw	19^18	; case 19
  4471  054A  3A01               	skipnz
  4472  054B  1903               	goto	l2179
  4473  054C  2CC7               	xorlw	20^19	; case 20
  4474  054D  3A07               	skipnz
  4475  054E  1903               	goto	l2181
  4476  054F  2CCF               	xorlw	21^20	; case 21
  4477  0550  3A01               	skipnz
  4478  0551  1903               	goto	l2183
  4479  0552  2CD7               	xorlw	22^21	; case 22
  4480  0553  3A03               	skipnz
  4481  0554  1903               	goto	l2185
  4482  0555  2CDF               	xorlw	23^22	; case 23
  4483  0556  3A01               	skipnz
  4484  0557  1903               	goto	l2187
  4485  0558  2CE7               	xorlw	24^23	; case 24
  4486  0559  3A0F               	skipnz
  4487  055A  1903               	goto	l2189
  4488  055B  2CEF               	xorlw	25^24	; case 25
  4489  055C  3A01               	skipnz
  4490  055D  1903               	goto	l2191
  4491  055E  2CF7               	xorlw	26^25	; case 26
  4492  055F  3A03               	skipnz
  4493  0560  1903               	goto	l2193
  4494  0561  2CFF               	goto	l215
  4495  0562  2D63               	opt asmopt_pop
  4496                           
  4497                           	
  4498                           l188:	
  4499  0563                     	line	248
  4500                           	
  4501                           l215:	
  4502  0563                     	return
  4503  0563  0008               	opt stack 0
  4504                           GLOBAL	__end_of_digitalWrite
  4505                           	__end_of_digitalWrite:
  4506  0564                     	signat	_digitalWrite,8313
  4507                           	global	_digitalRead
  4508                           
  4509 ;; *************** function _digitalRead *****************
  4510 ;; Defined at:
  4511 ;;		line 249 in file "source.c"
  4512 ;; Parameters:    Size  Location     Type
  4513 ;;  pin             1    wreg     unsigned char 
  4514 ;; Auto vars:     Size  Location     Type
  4515 ;;  pin             1    2[COMMON] unsigned char 
  4516 ;; Return value:  Size  Location     Type
  4517 ;;                  1    wreg      unsigned char 
  4518 ;; Registers used:
  4519 ;;		wreg, fsr0l, fsr0h, status,2, status,0
  4520 ;; Tracked objects:
  4521 ;;		On entry : 0/0
  4522 ;;		On exit  : 0/0
  4523 ;;		Unchanged: 0/0
  4524 ;; Data sizes:     COMMON   BANK0   BANK1   BANK3   BANK2
  4525 ;;      Params:         0       0       0       0       0
  4526 ;;      Locals:         1       0       0       0       0
  4527 ;;      Temps:          2       0       0       0       0
  4528 ;;      Totals:         3       0       0       0       0
  4529 ;;Total ram usage:        3 bytes
  4530 ;; Hardware stack levels used:    1
  4531 ;; This function calls:
  4532 ;;		Nothing
  4533 ;; This function is called by:
  4534 ;;		_ProcessCommand
  4535 ;; This function uses a non-reentrant model
  4536 ;;
  4537                           psect	text11,local,class=CODE,delta=2,merge=1,group=0
  4538                           	line	249
  4539                           global __ptext11
  4540                           __ptext11:	;psect for function _digitalRead
  4541  06A3                     psect	text11
  4542                           	file	"source.c"
  4543                           	line	249
  4544                           	global	__size_of_digitalRead
  4545                           	__size_of_digitalRead	equ	__end_of_digitalRead-_digitalRead
  4546  0141                     	
  4547                           _digitalRead:	
  4548  06A3                     ;incstack = 0
  4549                           	opt	stack 5
  4550                           ; Regs used in _digitalRead: [wreg-fsr0h+status,2+status,0]
  4551                           ;digitalRead@pin stored from wreg
  4552                           	movwf	(digitalRead@pin)
  4553  06A3  00F2               	line	251
  4554                           	
  4555                           l2203:	
  4556  06A4                     ;source.c: 249: char digitalRead(char pin);source.c: 250: {;source.c: 251:     switch(pi
                                 n)
  4557                           	goto	l2369
  4558  06A4  2F88               	line	253
  4559                           ;source.c: 252:     {;source.c: 253:         case 0:
  4560                           	
  4561                           l219:	
  4562  06A5                     	line	254
  4563                           	
  4564                           l2205:	
  4565  06A5                     ;source.c: 254:              return PORTCbits.RC7;
  4566                           	bcf	status, 5	;RP0=0, select bank0
  4567  06A5  1283               	bcf	status, 6	;RP1=0, select bank0
  4568  06A6  1303               	rlf	(7),w	;volatile
  4569  06A7  0D07               	rlf	(7),w	;volatile
  4570  06A8  0D07               	andlw	1
  4571  06A9  3901               	goto	l220
  4572  06AA  2FE3               	
  4573                           l2207:	
  4574  06AB                     	goto	l220
  4575  06AB  2FE3               	line	255
  4576                           	
  4577                           l2209:	
  4578  06AC                     ;source.c: 255:             break;
  4579                           	goto	l220
  4580  06AC  2FE3               	line	256
  4581                           ;source.c: 256:         case 1:
  4582                           	
  4583                           l222:	
  4584  06AD                     	line	257
  4585                           	
  4586                           l2211:	
  4587  06AD                     ;source.c: 257:             return PORTCbits.RC6;
  4588                           	bcf	status, 5	;RP0=0, select bank0
  4589  06AD  1283               	bcf	status, 6	;RP1=0, select bank0
  4590  06AE  1303               	swapf	(7),w	;volatile
  4591  06AF  0E07               	movwf	(??_digitalRead+0)+0
  4592  06B0  00F0               	rrf	(??_digitalRead+0)+0,f
  4593  06B1  0CF0               	rrf	(??_digitalRead+0)+0,w
  4594  06B2  0C70               	andlw	(1<<1)-1
  4595  06B3  3901               	goto	l220
  4596  06B4  2FE3               	
  4597                           l2213:	
  4598  06B5                     	goto	l220
  4599  06B5  2FE3               	line	258
  4600                           	
  4601                           l2215:	
  4602  06B6                     ;source.c: 258:             break;
  4603                           	goto	l220
  4604  06B6  2FE3               	line	259
  4605                           ;source.c: 259:         case 2:
  4606                           	
  4607                           l223:	
  4608  06B7                     	line	260
  4609                           	
  4610                           l2217:	
  4611  06B7                     ;source.c: 260:             return PORTDbits.RD2;
  4612                           	bcf	status, 5	;RP0=0, select bank0
  4613  06B7  1283               	bcf	status, 6	;RP1=0, select bank0
  4614  06B8  1303               	rrf	(8),w	;volatile
  4615  06B9  0C08               	movwf	(??_digitalRead+0)+0
  4616  06BA  00F0               	rrf	(??_digitalRead+0)+0,w
  4617  06BB  0C70               	andlw	(1<<1)-1
  4618  06BC  3901               	goto	l220
  4619  06BD  2FE3               	
  4620                           l2219:	
  4621  06BE                     	goto	l220
  4622  06BE  2FE3               	line	261
  4623                           	
  4624                           l2221:	
  4625  06BF                     ;source.c: 261:             break;
  4626                           	goto	l220
  4627  06BF  2FE3               	line	262
  4628                           ;source.c: 262:         case 3:
  4629                           	
  4630                           l224:	
  4631  06C0                     	line	263
  4632                           	
  4633                           l2223:	
  4634  06C0                     ;source.c: 263:             return PORTDbits.RD3;
  4635                           	bcf	status, 5	;RP0=0, select bank0
  4636  06C0  1283               	bcf	status, 6	;RP1=0, select bank0
  4637  06C1  1303               	rrf	(8),w	;volatile
  4638  06C2  0C08               	movwf	(??_digitalRead+0)+0
  4639  06C3  00F0               	rrf	(??_digitalRead+0)+0,f
  4640  06C4  0CF0               	rrf	(??_digitalRead+0)+0,w
  4641  06C5  0C70               	andlw	(1<<1)-1
  4642  06C6  3901               	goto	l220
  4643  06C7  2FE3               	
  4644                           l2225:	
  4645  06C8                     	goto	l220
  4646  06C8  2FE3               	line	264
  4647                           	
  4648                           l2227:	
  4649  06C9                     ;source.c: 264:             break;
  4650                           	goto	l220
  4651  06C9  2FE3               	line	265
  4652                           ;source.c: 265:         case 4:
  4653                           	
  4654                           l225:	
  4655  06CA                     	line	266
  4656                           	
  4657                           l2229:	
  4658  06CA                     ;source.c: 266:             return PORTCbits.RC4;
  4659                           	bcf	status, 5	;RP0=0, select bank0
  4660  06CA  1283               	bcf	status, 6	;RP1=0, select bank0
  4661  06CB  1303               	swapf	(7),w	;volatile
  4662  06CC  0E07               	andlw	(1<<1)-1
  4663  06CD  3901               	goto	l220
  4664  06CE  2FE3               	
  4665                           l2231:	
  4666  06CF                     	goto	l220
  4667  06CF  2FE3               	line	267
  4668                           	
  4669                           l2233:	
  4670  06D0                     ;source.c: 267:             break;
  4671                           	goto	l220
  4672  06D0  2FE3               	line	268
  4673                           ;source.c: 268:         case 5:
  4674                           	
  4675                           l226:	
  4676  06D1                     	line	269
  4677                           	
  4678                           l2235:	
  4679  06D1                     ;source.c: 269:             return PORTCbits.RC5;
  4680                           	bcf	status, 5	;RP0=0, select bank0
  4681  06D1  1283               	bcf	status, 6	;RP1=0, select bank0
  4682  06D2  1303               	swapf	(7),w	;volatile
  4683  06D3  0E07               	movwf	(??_digitalRead+0)+0
  4684  06D4  00F0               	rrf	(??_digitalRead+0)+0,w
  4685  06D5  0C70               	andlw	(1<<1)-1
  4686  06D6  3901               	goto	l220
  4687  06D7  2FE3               	
  4688                           l2237:	
  4689  06D8                     	goto	l220
  4690  06D8  2FE3               	line	270
  4691                           	
  4692                           l2239:	
  4693  06D9                     ;source.c: 270:             break;
  4694                           	goto	l220
  4695  06D9  2FE3               	line	271
  4696                           ;source.c: 271:         case 6:
  4697                           	
  4698                           l227:	
  4699  06DA                     	line	272
  4700                           	
  4701                           l2241:	
  4702  06DA                     ;source.c: 272:             return PORTDbits.RD4;
  4703                           	bcf	status, 5	;RP0=0, select bank0
  4704  06DA  1283               	bcf	status, 6	;RP1=0, select bank0
  4705  06DB  1303               	swapf	(8),w	;volatile
  4706  06DC  0E08               	andlw	(1<<1)-1
  4707  06DD  3901               	goto	l220
  4708  06DE  2FE3               	
  4709                           l2243:	
  4710  06DF                     	goto	l220
  4711  06DF  2FE3               	line	273
  4712                           	
  4713                           l2245:	
  4714  06E0                     ;source.c: 273:             break;
  4715                           	goto	l220
  4716  06E0  2FE3               	line	274
  4717                           ;source.c: 274:         case 7:
  4718                           	
  4719                           l228:	
  4720  06E1                     	line	275
  4721                           	
  4722                           l2247:	
  4723  06E1                     ;source.c: 275:             return PORTDbits.RD5;
  4724                           	bcf	status, 5	;RP0=0, select bank0
  4725  06E1  1283               	bcf	status, 6	;RP1=0, select bank0
  4726  06E2  1303               	swapf	(8),w	;volatile
  4727  06E3  0E08               	movwf	(??_digitalRead+0)+0
  4728  06E4  00F0               	rrf	(??_digitalRead+0)+0,w
  4729  06E5  0C70               	andlw	(1<<1)-1
  4730  06E6  3901               	goto	l220
  4731  06E7  2FE3               	
  4732                           l2249:	
  4733  06E8                     	goto	l220
  4734  06E8  2FE3               	line	276
  4735                           	
  4736                           l2251:	
  4737  06E9                     ;source.c: 276:             break;
  4738                           	goto	l220
  4739  06E9  2FE3               	line	277
  4740                           ;source.c: 277:         case 8:
  4741                           	
  4742                           l229:	
  4743  06EA                     	line	278
  4744                           	
  4745                           l2253:	
  4746  06EA                     ;source.c: 278:             return PORTDbits.RD6;
  4747                           	bcf	status, 5	;RP0=0, select bank0
  4748  06EA  1283               	bcf	status, 6	;RP1=0, select bank0
  4749  06EB  1303               	swapf	(8),w	;volatile
  4750  06EC  0E08               	movwf	(??_digitalRead+0)+0
  4751  06ED  00F0               	rrf	(??_digitalRead+0)+0,f
  4752  06EE  0CF0               	rrf	(??_digitalRead+0)+0,w
  4753  06EF  0C70               	andlw	(1<<1)-1
  4754  06F0  3901               	goto	l220
  4755  06F1  2FE3               	
  4756                           l2255:	
  4757  06F2                     	goto	l220
  4758  06F2  2FE3               	line	279
  4759                           	
  4760                           l2257:	
  4761  06F3                     ;source.c: 279:             break;
  4762                           	goto	l220
  4763  06F3  2FE3               	line	280
  4764                           ;source.c: 280:         case 9:
  4765                           	
  4766                           l230:	
  4767  06F4                     	line	281
  4768                           	
  4769                           l2259:	
  4770  06F4                     ;source.c: 281:             return PORTDbits.RD7;
  4771                           	bcf	status, 5	;RP0=0, select bank0
  4772  06F4  1283               	bcf	status, 6	;RP1=0, select bank0
  4773  06F5  1303               	rlf	(8),w	;volatile
  4774  06F6  0D08               	rlf	(8),w	;volatile
  4775  06F7  0D08               	andlw	1
  4776  06F8  3901               	goto	l220
  4777  06F9  2FE3               	
  4778                           l2261:	
  4779  06FA                     	goto	l220
  4780  06FA  2FE3               	line	282
  4781                           	
  4782                           l2263:	
  4783  06FB                     ;source.c: 282:             break;
  4784                           	goto	l220
  4785  06FB  2FE3               	line	283
  4786                           ;source.c: 283:         case 10:
  4787                           	
  4788                           l231:	
  4789  06FC                     	line	284
  4790                           	
  4791                           l2265:	
  4792  06FC                     ;source.c: 284:             return PORTBbits.RB0;
  4793                           	bcf	status, 5	;RP0=0, select bank0
  4794  06FC  1283               	bcf	status, 6	;RP1=0, select bank0
  4795  06FD  1303               	movf	(6),w	;volatile
  4796  06FE  0806               	andlw	(1<<1)-1
  4797  06FF  3901               	goto	l220
  4798  0700  2FE3               	
  4799                           l2267:	
  4800  0701                     	goto	l220
  4801  0701  2FE3               	line	285
  4802                           	
  4803                           l2269:	
  4804  0702                     ;source.c: 285:             break;
  4805                           	goto	l220
  4806  0702  2FE3               	line	286
  4807                           ;source.c: 286:         case 11:
  4808                           	
  4809                           l232:	
  4810  0703                     	line	287
  4811                           	
  4812                           l2271:	
  4813  0703                     ;source.c: 287:             return PORTBbits.RB1;
  4814                           	bcf	status, 5	;RP0=0, select bank0
  4815  0703  1283               	bcf	status, 6	;RP1=0, select bank0
  4816  0704  1303               	rrf	(6),w	;volatile
  4817  0705  0C06               	andlw	(1<<1)-1
  4818  0706  3901               	goto	l220
  4819  0707  2FE3               	
  4820                           l2273:	
  4821  0708                     	goto	l220
  4822  0708  2FE3               	line	288
  4823                           	
  4824                           l2275:	
  4825  0709                     ;source.c: 288:             break;
  4826                           	goto	l220
  4827  0709  2FE3               	line	289
  4828                           ;source.c: 289:         case 12:
  4829                           	
  4830                           l233:	
  4831  070A                     	line	290
  4832                           	
  4833                           l2277:	
  4834  070A                     ;source.c: 290:             return PORTBbits.RB2;
  4835                           	bcf	status, 5	;RP0=0, select bank0
  4836  070A  1283               	bcf	status, 6	;RP1=0, select bank0
  4837  070B  1303               	rrf	(6),w	;volatile
  4838  070C  0C06               	movwf	(??_digitalRead+0)+0
  4839  070D  00F0               	rrf	(??_digitalRead+0)+0,w
  4840  070E  0C70               	andlw	(1<<1)-1
  4841  070F  3901               	goto	l220
  4842  0710  2FE3               	
  4843                           l2279:	
  4844  0711                     	goto	l220
  4845  0711  2FE3               	line	291
  4846                           	
  4847                           l2281:	
  4848  0712                     ;source.c: 291:             break;
  4849                           	goto	l220
  4850  0712  2FE3               	line	292
  4851                           ;source.c: 292:         case 13:
  4852                           	
  4853                           l234:	
  4854  0713                     	line	293
  4855                           	
  4856                           l2283:	
  4857  0713                     ;source.c: 293:             return PORTBbits.RB4;
  4858                           	bcf	status, 5	;RP0=0, select bank0
  4859  0713  1283               	bcf	status, 6	;RP1=0, select bank0
  4860  0714  1303               	swapf	(6),w	;volatile
  4861  0715  0E06               	andlw	(1<<1)-1
  4862  0716  3901               	goto	l220
  4863  0717  2FE3               	
  4864                           l2285:	
  4865  0718                     	goto	l220
  4866  0718  2FE3               	line	294
  4867                           	
  4868                           l2287:	
  4869  0719                     ;source.c: 294:             break;
  4870                           	goto	l220
  4871  0719  2FE3               	line	295
  4872                           ;source.c: 295:         case 14:
  4873                           	
  4874                           l235:	
  4875  071A                     	line	296
  4876                           	
  4877                           l2289:	
  4878  071A                     ;source.c: 296:             return PORTBbits.RB3;
  4879                           	bcf	status, 5	;RP0=0, select bank0
  4880  071A  1283               	bcf	status, 6	;RP1=0, select bank0
  4881  071B  1303               	rrf	(6),w	;volatile
  4882  071C  0C06               	movwf	(??_digitalRead+0)+0
  4883  071D  00F0               	rrf	(??_digitalRead+0)+0,f
  4884  071E  0CF0               	rrf	(??_digitalRead+0)+0,w
  4885  071F  0C70               	andlw	(1<<1)-1
  4886  0720  3901               	goto	l220
  4887  0721  2FE3               	
  4888                           l2291:	
  4889  0722                     	goto	l220
  4890  0722  2FE3               	line	297
  4891                           	
  4892                           l2293:	
  4893  0723                     ;source.c: 297:             break;
  4894                           	goto	l220
  4895  0723  2FE3               	line	298
  4896                           ;source.c: 298:         case 15:
  4897                           	
  4898                           l236:	
  4899  0724                     	line	299
  4900                           	
  4901                           l2295:	
  4902  0724                     ;source.c: 299:             return PORTBbits.RB5;
  4903                           	bcf	status, 5	;RP0=0, select bank0
  4904  0724  1283               	bcf	status, 6	;RP1=0, select bank0
  4905  0725  1303               	swapf	(6),w	;volatile
  4906  0726  0E06               	movwf	(??_digitalRead+0)+0
  4907  0727  00F0               	rrf	(??_digitalRead+0)+0,w
  4908  0728  0C70               	andlw	(1<<1)-1
  4909  0729  3901               	goto	l220
  4910  072A  2FE3               	
  4911                           l2297:	
  4912  072B                     	goto	l220
  4913  072B  2FE3               	line	300
  4914                           	
  4915                           l2299:	
  4916  072C                     ;source.c: 300:             break;
  4917                           	goto	l220
  4918  072C  2FE3               	line	301
  4919                           ;source.c: 301:         case 16:
  4920                           	
  4921                           l237:	
  4922  072D                     	line	302
  4923                           	
  4924                           l2301:	
  4925  072D                     ;source.c: 302:             return PORTBbits.RB6;
  4926                           	bcf	status, 5	;RP0=0, select bank0
  4927  072D  1283               	bcf	status, 6	;RP1=0, select bank0
  4928  072E  1303               	swapf	(6),w	;volatile
  4929  072F  0E06               	movwf	(??_digitalRead+0)+0
  4930  0730  00F0               	rrf	(??_digitalRead+0)+0,f
  4931  0731  0CF0               	rrf	(??_digitalRead+0)+0,w
  4932  0732  0C70               	andlw	(1<<1)-1
  4933  0733  3901               	goto	l220
  4934  0734  2FE3               	
  4935                           l2303:	
  4936  0735                     	goto	l220
  4937  0735  2FE3               	line	303
  4938                           	
  4939                           l2305:	
  4940  0736                     ;source.c: 303:             break;
  4941                           	goto	l220
  4942  0736  2FE3               	line	304
  4943                           ;source.c: 304:         case 17:
  4944                           	
  4945                           l238:	
  4946  0737                     	line	305
  4947                           	
  4948                           l2307:	
  4949  0737                     ;source.c: 305:             return PORTCbits.RC3;
  4950                           	bcf	status, 5	;RP0=0, select bank0
  4951  0737  1283               	bcf	status, 6	;RP1=0, select bank0
  4952  0738  1303               	rrf	(7),w	;volatile
  4953  0739  0C07               	movwf	(??_digitalRead+0)+0
  4954  073A  00F0               	rrf	(??_digitalRead+0)+0,f
  4955  073B  0CF0               	rrf	(??_digitalRead+0)+0,w
  4956  073C  0C70               	andlw	(1<<1)-1
  4957  073D  3901               	goto	l220
  4958  073E  2FE3               	
  4959                           l2309:	
  4960  073F                     	goto	l220
  4961  073F  2FE3               	line	306
  4962                           	
  4963                           l2311:	
  4964  0740                     ;source.c: 306:             break;
  4965                           	goto	l220
  4966  0740  2FE3               	line	307
  4967                           ;source.c: 307:         case 18:
  4968                           	
  4969                           l239:	
  4970  0741                     	line	308
  4971                           	
  4972                           l2313:	
  4973  0741                     ;source.c: 308:             return PORTBbits.RB7;
  4974                           	bcf	status, 5	;RP0=0, select bank0
  4975  0741  1283               	bcf	status, 6	;RP1=0, select bank0
  4976  0742  1303               	rlf	(6),w	;volatile
  4977  0743  0D06               	rlf	(6),w	;volatile
  4978  0744  0D06               	andlw	1
  4979  0745  3901               	goto	l220
  4980  0746  2FE3               	
  4981                           l2315:	
  4982  0747                     	goto	l220
  4983  0747  2FE3               	line	309
  4984                           	
  4985                           l2317:	
  4986  0748                     ;source.c: 309:             break;
  4987                           	goto	l220
  4988  0748  2FE3               	line	310
  4989                           ;source.c: 310:         case 19:
  4990                           	
  4991                           l240:	
  4992  0749                     	line	311
  4993                           	
  4994                           l2319:	
  4995  0749                     ;source.c: 311:             return PORTAbits.RA4;
  4996                           	bcf	status, 5	;RP0=0, select bank0
  4997  0749  1283               	bcf	status, 6	;RP1=0, select bank0
  4998  074A  1303               	swapf	(5),w	;volatile
  4999  074B  0E05               	andlw	(1<<1)-1
  5000  074C  3901               	goto	l220
  5001  074D  2FE3               	
  5002                           l2321:	
  5003  074E                     	goto	l220
  5004  074E  2FE3               	line	312
  5005                           	
  5006                           l2323:	
  5007  074F                     ;source.c: 312:             break;
  5008                           	goto	l220
  5009  074F  2FE3               	line	313
  5010                           ;source.c: 313:         case 20:
  5011                           	
  5012                           l241:	
  5013  0750                     	line	314
  5014                           	
  5015                           l2325:	
  5016  0750                     ;source.c: 314:             return PORTAbits.RA5;
  5017                           	bcf	status, 5	;RP0=0, select bank0
  5018  0750  1283               	bcf	status, 6	;RP1=0, select bank0
  5019  0751  1303               	swapf	(5),w	;volatile
  5020  0752  0E05               	movwf	(??_digitalRead+0)+0
  5021  0753  00F0               	rrf	(??_digitalRead+0)+0,w
  5022  0754  0C70               	andlw	(1<<1)-1
  5023  0755  3901               	goto	l220
  5024  0756  2FE3               	
  5025                           l2327:	
  5026  0757                     	goto	l220
  5027  0757  2FE3               	line	315
  5028                           	
  5029                           l2329:	
  5030  0758                     ;source.c: 315:             break;
  5031                           	goto	l220
  5032  0758  2FE3               	line	316
  5033                           ;source.c: 316:         case 21:
  5034                           	
  5035                           l242:	
  5036  0759                     	line	317
  5037                           	
  5038                           l2331:	
  5039  0759                     ;source.c: 317:             return PORTCbits.RC0;
  5040                           	bcf	status, 5	;RP0=0, select bank0
  5041  0759  1283               	bcf	status, 6	;RP1=0, select bank0
  5042  075A  1303               	movf	(7),w	;volatile
  5043  075B  0807               	andlw	(1<<1)-1
  5044  075C  3901               	goto	l220
  5045  075D  2FE3               	
  5046                           l2333:	
  5047  075E                     	goto	l220
  5048  075E  2FE3               	line	318
  5049                           	
  5050                           l2335:	
  5051  075F                     ;source.c: 318:             break;
  5052                           	goto	l220
  5053  075F  2FE3               	line	319
  5054                           ;source.c: 319:         case 22:
  5055                           	
  5056                           l243:	
  5057  0760                     	line	320
  5058                           	
  5059                           l2337:	
  5060  0760                     ;source.c: 320:             return PORTCbits.RC1;
  5061                           	bcf	status, 5	;RP0=0, select bank0
  5062  0760  1283               	bcf	status, 6	;RP1=0, select bank0
  5063  0761  1303               	rrf	(7),w	;volatile
  5064  0762  0C07               	andlw	(1<<1)-1
  5065  0763  3901               	goto	l220
  5066  0764  2FE3               	
  5067                           l2339:	
  5068  0765                     	goto	l220
  5069  0765  2FE3               	line	321
  5070                           	
  5071                           l2341:	
  5072  0766                     ;source.c: 321:             break;
  5073                           	goto	l220
  5074  0766  2FE3               	line	322
  5075                           ;source.c: 322:         case 23:
  5076                           	
  5077                           l244:	
  5078  0767                     	line	323
  5079                           	
  5080                           l2343:	
  5081  0767                     ;source.c: 323:             return PORTCbits.RC2;
  5082                           	bcf	status, 5	;RP0=0, select bank0
  5083  0767  1283               	bcf	status, 6	;RP1=0, select bank0
  5084  0768  1303               	rrf	(7),w	;volatile
  5085  0769  0C07               	movwf	(??_digitalRead+0)+0
  5086  076A  00F0               	rrf	(??_digitalRead+0)+0,w
  5087  076B  0C70               	andlw	(1<<1)-1
  5088  076C  3901               	goto	l220
  5089  076D  2FE3               	
  5090                           l2345:	
  5091  076E                     	goto	l220
  5092  076E  2FE3               	line	324
  5093                           	
  5094                           l2347:	
  5095  076F                     ;source.c: 324:             break;
  5096                           	goto	l220
  5097  076F  2FE3               	line	325
  5098                           ;source.c: 325:         case 24:
  5099                           	
  5100                           l245:	
  5101  0770                     	line	326
  5102                           	
  5103                           l2349:	
  5104  0770                     ;source.c: 326:             return PORTDbits.RD1;
  5105                           	bcf	status, 5	;RP0=0, select bank0
  5106  0770  1283               	bcf	status, 6	;RP1=0, select bank0
  5107  0771  1303               	rrf	(8),w	;volatile
  5108  0772  0C08               	andlw	(1<<1)-1
  5109  0773  3901               	goto	l220
  5110  0774  2FE3               	
  5111                           l2351:	
  5112  0775                     	goto	l220
  5113  0775  2FE3               	line	327
  5114                           	
  5115                           l2353:	
  5116  0776                     ;source.c: 327:             break;
  5117                           	goto	l220
  5118  0776  2FE3               	line	328
  5119                           ;source.c: 328:         case 25:
  5120                           	
  5121                           l246:	
  5122  0777                     	line	329
  5123                           	
  5124                           l2355:	
  5125  0777                     ;source.c: 329:             return PORTDbits.RD0;
  5126                           	bcf	status, 5	;RP0=0, select bank0
  5127  0777  1283               	bcf	status, 6	;RP1=0, select bank0
  5128  0778  1303               	movf	(8),w	;volatile
  5129  0779  0808               	andlw	(1<<1)-1
  5130  077A  3901               	goto	l220
  5131  077B  2FE3               	
  5132                           l2357:	
  5133  077C                     	goto	l220
  5134  077C  2FE3               	line	330
  5135                           	
  5136                           l2359:	
  5137  077D                     ;source.c: 330:             break;
  5138                           	goto	l220
  5139  077D  2FE3               	line	331
  5140                           ;source.c: 331:         case 26:
  5141                           	
  5142                           l247:	
  5143  077E                     	line	332
  5144                           	
  5145                           l2361:	
  5146  077E                     ;source.c: 332:             return PORTAbits.RA2;
  5147                           	bcf	status, 5	;RP0=0, select bank0
  5148  077E  1283               	bcf	status, 6	;RP1=0, select bank0
  5149  077F  1303               	rrf	(5),w	;volatile
  5150  0780  0C05               	movwf	(??_digitalRead+0)+0
  5151  0781  00F0               	rrf	(??_digitalRead+0)+0,w
  5152  0782  0C70               	andlw	(1<<1)-1
  5153  0783  3901               	goto	l220
  5154  0784  2FE3               	
  5155                           l2363:	
  5156  0785                     	goto	l220
  5157  0785  2FE3               	line	333
  5158                           	
  5159                           l2365:	
  5160  0786                     ;source.c: 333:             break;
  5161                           	goto	l220
  5162  0786  2FE3               	line	334
  5163                           	
  5164                           l2367:	
  5165  0787                     ;source.c: 334:     }
  5166                           	goto	l220
  5167  0787  2FE3               	
  5168                           l218:	
  5169  0788                     	
  5170                           l2369:	
  5171  0788                     	movf	(digitalRead@pin),w
  5172  0788  0872               	movwf	(??_digitalRead+0)+0
  5173  0789  00F0               	clrf	(??_digitalRead+0)+0+1
  5174  078A  01F1               	; Switch on 2 bytes has been partitioned into a top level switch of size 1, and 1 sub-s
                                 witches
  5175                           ; Switch size 1, requested type "space"
  5176                           ; Number of cases is 1, Range of values is 0 to 0
  5177                           ; switch strategies available:
  5178                           ; Name         Instructions Cycles
  5179                           ; simple_byte            4     3 (average)
  5180                           ; direct_byte           11     8 (fixed)
  5181                           ; jumptable            260     6 (fixed)
  5182                           ;	Chosen strategy is simple_byte
  5183                           
  5184                           	movf 1+(??_digitalRead+0)+0,w
  5185  078B  0871               	opt asmopt_push
  5186                           	opt asmopt_off
  5187                           	xorlw	0^0	; case 0
  5188  078C  3A00               	skipnz
  5189  078D  1903               	goto	l2943
  5190  078E  2F90               	goto	l220
  5191  078F  2FE3               	opt asmopt_pop
  5192                           	
  5193                           l2943:	
  5194  0790                     ; Switch size 1, requested type "space"
  5195                           ; Number of cases is 27, Range of values is 0 to 26
  5196                           ; switch strategies available:
  5197                           ; Name         Instructions Cycles
  5198                           ; simple_byte           82    42 (average)
  5199                           ; direct_byte           89     8 (fixed)
  5200                           ; jumptable            260     6 (fixed)
  5201                           ;	Chosen strategy is simple_byte
  5202                           
  5203                           	movf 0+(??_digitalRead+0)+0,w
  5204  0790  0870               	opt asmopt_push
  5205                           	opt asmopt_off
  5206                           	xorlw	0^0	; case 0
  5207  0791  3A00               	skipnz
  5208  0792  1903               	goto	l2205
  5209  0793  2EA5               	xorlw	1^0	; case 1
  5210  0794  3A01               	skipnz
  5211  0795  1903               	goto	l2211
  5212  0796  2EAD               	xorlw	2^1	; case 2
  5213  0797  3A03               	skipnz
  5214  0798  1903               	goto	l2217
  5215  0799  2EB7               	xorlw	3^2	; case 3
  5216  079A  3A01               	skipnz
  5217  079B  1903               	goto	l2223
  5218  079C  2EC0               	xorlw	4^3	; case 4
  5219  079D  3A07               	skipnz
  5220  079E  1903               	goto	l2229
  5221  079F  2ECA               	xorlw	5^4	; case 5
  5222  07A0  3A01               	skipnz
  5223  07A1  1903               	goto	l2235
  5224  07A2  2ED1               	xorlw	6^5	; case 6
  5225  07A3  3A03               	skipnz
  5226  07A4  1903               	goto	l2241
  5227  07A5  2EDA               	xorlw	7^6	; case 7
  5228  07A6  3A01               	skipnz
  5229  07A7  1903               	goto	l2247
  5230  07A8  2EE1               	xorlw	8^7	; case 8
  5231  07A9  3A0F               	skipnz
  5232  07AA  1903               	goto	l2253
  5233  07AB  2EEA               	xorlw	9^8	; case 9
  5234  07AC  3A01               	skipnz
  5235  07AD  1903               	goto	l2259
  5236  07AE  2EF4               	xorlw	10^9	; case 10
  5237  07AF  3A03               	skipnz
  5238  07B0  1903               	goto	l2265
  5239  07B1  2EFC               	xorlw	11^10	; case 11
  5240  07B2  3A01               	skipnz
  5241  07B3  1903               	goto	l2271
  5242  07B4  2F03               	xorlw	12^11	; case 12
  5243  07B5  3A07               	skipnz
  5244  07B6  1903               	goto	l2277
  5245  07B7  2F0A               	xorlw	13^12	; case 13
  5246  07B8  3A01               	skipnz
  5247  07B9  1903               	goto	l2283
  5248  07BA  2F13               	xorlw	14^13	; case 14
  5249  07BB  3A03               	skipnz
  5250  07BC  1903               	goto	l2289
  5251  07BD  2F1A               	xorlw	15^14	; case 15
  5252  07BE  3A01               	skipnz
  5253  07BF  1903               	goto	l2295
  5254  07C0  2F24               	xorlw	16^15	; case 16
  5255  07C1  3A1F               	skipnz
  5256  07C2  1903               	goto	l2301
  5257  07C3  2F2D               	xorlw	17^16	; case 17
  5258  07C4  3A01               	skipnz
  5259  07C5  1903               	goto	l2307
  5260  07C6  2F37               	xorlw	18^17	; case 18
  5261  07C7  3A03               	skipnz
  5262  07C8  1903               	goto	l2313
  5263  07C9  2F41               	xorlw	19^18	; case 19
  5264  07CA  3A01               	skipnz
  5265  07CB  1903               	goto	l2319
  5266  07CC  2F49               	xorlw	20^19	; case 20
  5267  07CD  3A07               	skipnz
  5268  07CE  1903               	goto	l2325
  5269  07CF  2F50               	xorlw	21^20	; case 21
  5270  07D0  3A01               	skipnz
  5271  07D1  1903               	goto	l2331
  5272  07D2  2F59               	xorlw	22^21	; case 22
  5273  07D3  3A03               	skipnz
  5274  07D4  1903               	goto	l2337
  5275  07D5  2F60               	xorlw	23^22	; case 23
  5276  07D6  3A01               	skipnz
  5277  07D7  1903               	goto	l2343
  5278  07D8  2F67               	xorlw	24^23	; case 24
  5279  07D9  3A0F               	skipnz
  5280  07DA  1903               	goto	l2349
  5281  07DB  2F70               	xorlw	25^24	; case 25
  5282  07DC  3A01               	skipnz
  5283  07DD  1903               	goto	l2355
  5284  07DE  2F77               	xorlw	26^25	; case 26
  5285  07DF  3A03               	skipnz
  5286  07E0  1903               	goto	l2361
  5287  07E1  2F7E               	goto	l220
  5288  07E2  2FE3               	opt asmopt_pop
  5289                           
  5290                           	
  5291                           l221:	
  5292  07E3                     	line	335
  5293                           	
  5294                           l220:	
  5295  07E3                     	return
  5296  07E3  0008               	opt stack 0
  5297                           GLOBAL	__end_of_digitalRead
  5298                           	__end_of_digitalRead:
  5299  07E4                     	signat	_digitalRead,4217
  5300                           	global	_analogWrite
  5301                           
  5302 ;; *************** function _analogWrite *****************
  5303 ;; Defined at:
  5304 ;;		line 397 in file "source.c"
  5305 ;; Parameters:    Size  Location     Type
  5306 ;;  pin             1    wreg     unsigned char 
  5307 ;;  value           2    0[COMMON] unsigned int 
  5308 ;; Auto vars:     Size  Location     Type
  5309 ;;  pin             1    4[COMMON] unsigned char 
  5310 ;; Return value:  Size  Location     Type
  5311 ;;                  1    wreg      unsigned char 
  5312 ;; Registers used:
  5313 ;;		wreg, fsr0l, fsr0h, status,2, status,0
  5314 ;; Tracked objects:
  5315 ;;		On entry : 0/0
  5316 ;;		On exit  : 0/0
  5317 ;;		Unchanged: 0/0
  5318 ;; Data sizes:     COMMON   BANK0   BANK1   BANK3   BANK2
  5319 ;;      Params:         2       0       0       0       0
  5320 ;;      Locals:         1       0       0       0       0
  5321 ;;      Temps:          2       0       0       0       0
  5322 ;;      Totals:         5       0       0       0       0
  5323 ;;Total ram usage:        5 bytes
  5324 ;; Hardware stack levels used:    1
  5325 ;; This function calls:
  5326 ;;		Nothing
  5327 ;; This function is called by:
  5328 ;;		_ProcessCommand
  5329 ;; This function uses a non-reentrant model
  5330 ;;
  5331                           psect	text12,local,class=CODE,delta=2,merge=1,group=0
  5332                           	line	397
  5333                           global __ptext12
  5334                           __ptext12:	;psect for function _analogWrite
  5335  0021                     psect	text12
  5336                           	file	"source.c"
  5337                           	line	397
  5338                           	global	__size_of_analogWrite
  5339                           	__size_of_analogWrite	equ	__end_of_analogWrite-_analogWrite
  5340  0048                     	
  5341                           _analogWrite:	
  5342  0021                     ;incstack = 0
  5343                           	opt	stack 5
  5344                           ; Regs used in _analogWrite: [wreg-fsr0h+status,2+status,0]
  5345                           ;analogWrite@pin stored from wreg
  5346                           	movwf	(analogWrite@pin)
  5347  0021  00F4               	line	399
  5348                           	
  5349                           l2415:	
  5350  0022                     ;source.c: 397: uint8_t analogWrite(uint8_t pin, uint16_t value);source.c: 398: {;source
                                 .c: 399:     switch(pin)
  5351                           	goto	l2431
  5352  0022  2858               	line	401
  5353                           ;source.c: 400:     {;source.c: 401:         case 0x16:
  5354                           	
  5355                           l276:	
  5356  0023                     	line	403
  5357                           	
  5358                           l2417:	
  5359  0023                     ;source.c: 403:             CCPR2L = value >> 2;
  5360                           	movf	(analogWrite@value+1),w
  5361  0023  0871               	movwf	(??_analogWrite+0)+0+1
  5362  0024  00F3               	movf	(analogWrite@value),w
  5363  0025  0870               	movwf	(??_analogWrite+0)+0
  5364  0026  00F2               	clrc
  5365  0027  1003               	rrf	(??_analogWrite+0)+1,f
  5366  0028  0CF3               	rrf	(??_analogWrite+0)+0,f
  5367  0029  0CF2               	clrc
  5368  002A  1003               	rrf	(??_analogWrite+0)+1,f
  5369  002B  0CF3               	rrf	(??_analogWrite+0)+0,f
  5370  002C  0CF2               	movf	0+(??_analogWrite+0)+0,w
  5371  002D  0872               	bcf	status, 5	;RP0=0, select bank0
  5372  002E  1283               	bcf	status, 6	;RP1=0, select bank0
  5373  002F  1303               	movwf	(27)	;volatile
  5374  0030  009B               	line	404
  5375                           	
  5376                           l2419:	
  5377  0031                     ;source.c: 404:             CCP2X = value & 2;
  5378                           	bcf	(237/8),(237)&7	;volatile
  5379  0031  129D               	line	405
  5380                           	
  5381                           l2421:	
  5382  0032                     ;source.c: 405:             CCP2Y = value & 1;
  5383                           	btfsc	(analogWrite@value),0
  5384  0032  1870               	goto	u671
  5385  0033  2835               	goto	u670
  5386  0034  2839               	
  5387                           u671:
  5388  0035                     	bcf	status, 5	;RP0=0, select bank0
  5389  0035  1283               	bcf	status, 6	;RP1=0, select bank0
  5390  0036  1303               	bsf	(236/8),(236)&7	;volatile
  5391  0037  161D               	goto	u684
  5392  0038  283C               u670:
  5393  0039                     	bcf	status, 5	;RP0=0, select bank0
  5394  0039  1283               	bcf	status, 6	;RP1=0, select bank0
  5395  003A  1303               	bcf	(236/8),(236)&7	;volatile
  5396  003B  121D               u684:
  5397  003C                     	line	406
  5398                           ;source.c: 406:             break;
  5399                           	goto	l279
  5400  003C  2868               	line	407
  5401                           ;source.c: 407:         case 0x17:
  5402                           	
  5403                           l278:	
  5404  003D                     	line	409
  5405                           	
  5406                           l2423:	
  5407  003D                     ;source.c: 409:             CCPR1L = value >> 2;
  5408                           	movf	(analogWrite@value+1),w
  5409  003D  0871               	movwf	(??_analogWrite+0)+0+1
  5410  003E  00F3               	movf	(analogWrite@value),w
  5411  003F  0870               	movwf	(??_analogWrite+0)+0
  5412  0040  00F2               	clrc
  5413  0041  1003               	rrf	(??_analogWrite+0)+1,f
  5414  0042  0CF3               	rrf	(??_analogWrite+0)+0,f
  5415  0043  0CF2               	clrc
  5416  0044  1003               	rrf	(??_analogWrite+0)+1,f
  5417  0045  0CF3               	rrf	(??_analogWrite+0)+0,f
  5418  0046  0CF2               	movf	0+(??_analogWrite+0)+0,w
  5419  0047  0872               	bcf	status, 5	;RP0=0, select bank0
  5420  0048  1283               	bcf	status, 6	;RP1=0, select bank0
  5421  0049  1303               	movwf	(21)	;volatile
  5422  004A  0095               	line	410
  5423                           	
  5424                           l2425:	
  5425  004B                     ;source.c: 410:             CCP1X = value & 2;
  5426                           	bcf	(189/8),(189)&7	;volatile
  5427  004B  1297               	line	411
  5428                           	
  5429                           l2427:	
  5430  004C                     ;source.c: 411:             CCP1Y = value & 1;
  5431                           	btfsc	(analogWrite@value),0
  5432  004C  1870               	goto	u691
  5433  004D  284F               	goto	u690
  5434  004E  2853               	
  5435                           u691:
  5436  004F                     	bcf	status, 5	;RP0=0, select bank0
  5437  004F  1283               	bcf	status, 6	;RP1=0, select bank0
  5438  0050  1303               	bsf	(188/8),(188)&7	;volatile
  5439  0051  1617               	goto	u704
  5440  0052  2856               u690:
  5441  0053                     	bcf	status, 5	;RP0=0, select bank0
  5442  0053  1283               	bcf	status, 6	;RP1=0, select bank0
  5443  0054  1303               	bcf	(188/8),(188)&7	;volatile
  5444  0055  1217               u704:
  5445  0056                     	line	412
  5446                           ;source.c: 412:             break;
  5447                           	goto	l279
  5448  0056  2868               	line	413
  5449                           	
  5450                           l2429:	
  5451  0057                     ;source.c: 413:     }
  5452                           	goto	l279
  5453  0057  2868               	
  5454                           l275:	
  5455  0058                     	
  5456                           l2431:	
  5457  0058                     	movf	(analogWrite@pin),w
  5458  0058  0874               	movwf	(??_analogWrite+0)+0
  5459  0059  00F2               	clrf	(??_analogWrite+0)+0+1
  5460  005A  01F3               	; Switch on 2 bytes has been partitioned into a top level switch of size 1, and 1 sub-s
                                 witches
  5461                           ; Switch size 1, requested type "space"
  5462                           ; Number of cases is 1, Range of values is 0 to 0
  5463                           ; switch strategies available:
  5464                           ; Name         Instructions Cycles
  5465                           ; simple_byte            4     3 (average)
  5466                           ; direct_byte           11     8 (fixed)
  5467                           ; jumptable            260     6 (fixed)
  5468                           ;	Chosen strategy is simple_byte
  5469                           
  5470                           	movf 1+(??_analogWrite+0)+0,w
  5471  005B  0873               	opt asmopt_push
  5472                           	opt asmopt_off
  5473                           	xorlw	0^0	; case 0
  5474  005C  3A00               	skipnz
  5475  005D  1903               	goto	l2945
  5476  005E  2860               	goto	l279
  5477  005F  2868               	opt asmopt_pop
  5478                           	
  5479                           l2945:	
  5480  0060                     ; Switch size 1, requested type "space"
  5481                           ; Number of cases is 2, Range of values is 22 to 23
  5482                           ; switch strategies available:
  5483                           ; Name         Instructions Cycles
  5484                           ; simple_byte            7     4 (average)
  5485                           ; direct_byte           17    11 (fixed)
  5486                           ; jumptable            263     9 (fixed)
  5487                           ;	Chosen strategy is simple_byte
  5488                           
  5489                           	movf 0+(??_analogWrite+0)+0,w
  5490  0060  0872               	opt asmopt_push
  5491                           	opt asmopt_off
  5492                           	xorlw	22^0	; case 22
  5493  0061  3A16               	skipnz
  5494  0062  1903               	goto	l2417
  5495  0063  2823               	xorlw	23^22	; case 23
  5496  0064  3A01               	skipnz
  5497  0065  1903               	goto	l2423
  5498  0066  283D               	goto	l279
  5499  0067  2868               	opt asmopt_pop
  5500                           
  5501                           	
  5502                           l277:	
  5503  0068                     	line	415
  5504                           ;source.c: 414:     return pin;;	Return value of _analogWrite is never used
  5505                           	
  5506                           l279:	
  5507  0068                     	return
  5508  0068  0008               	opt stack 0
  5509                           GLOBAL	__end_of_analogWrite
  5510                           	__end_of_analogWrite:
  5511  0069                     	signat	_analogWrite,8313
  5512                           	global	_analogRead
  5513                           
  5514 ;; *************** function _analogRead *****************
  5515 ;; Defined at:
  5516 ;;		line 336 in file "source.c"
  5517 ;; Parameters:    Size  Location     Type
  5518 ;;  channel         1    wreg     unsigned char 
  5519 ;; Auto vars:     Size  Location     Type
  5520 ;;  channel         1    4[COMMON] unsigned char 
  5521 ;; Return value:  Size  Location     Type
  5522 ;;                  2    0[COMMON] unsigned int 
  5523 ;; Registers used:
  5524 ;;		wreg, fsr0l, fsr0h, status,2, status,0
  5525 ;; Tracked objects:
  5526 ;;		On entry : 0/0
  5527 ;;		On exit  : 0/0
  5528 ;;		Unchanged: 0/0
  5529 ;; Data sizes:     COMMON   BANK0   BANK1   BANK3   BANK2
  5530 ;;      Params:         2       0       0       0       0
  5531 ;;      Locals:         1       0       0       0       0
  5532 ;;      Temps:          2       0       0       0       0
  5533 ;;      Totals:         5       0       0       0       0
  5534 ;;Total ram usage:        5 bytes
  5535 ;; Hardware stack levels used:    1
  5536 ;; This function calls:
  5537 ;;		Nothing
  5538 ;; This function is called by:
  5539 ;;		_ProcessCommand
  5540 ;; This function uses a non-reentrant model
  5541 ;;
  5542                           psect	text13,local,class=CODE,delta=2,merge=1,group=0
  5543                           	line	336
  5544                           global __ptext13
  5545                           __ptext13:	;psect for function _analogRead
  5546  00C0                     psect	text13
  5547                           	file	"source.c"
  5548                           	line	336
  5549                           	global	__size_of_analogRead
  5550                           	__size_of_analogRead	equ	__end_of_analogRead-_analogRead
  5551  0086                     	
  5552                           _analogRead:	
  5553  00C0                     ;incstack = 0
  5554                           	opt	stack 5
  5555                           ; Regs used in _analogRead: [wreg-fsr0h+status,2+status,0]
  5556                           ;analogRead@channel stored from wreg
  5557                           	movwf	(analogRead@channel)
  5558  00C0  00F4               	line	338
  5559                           	
  5560                           l2375:	
  5561  00C1                     ;source.c: 336: unsigned int analogRead(char channel);source.c: 337: {;source.c: 338:   
                                   switch(channel)
  5562                           	goto	l2409
  5563  00C1  292C               	line	340
  5564                           ;source.c: 339:     {;source.c: 340:         case 0:
  5565                           	
  5566                           l251:	
  5567  00C2                     	line	341
  5568                           ;source.c: 341:             ADCON0bits.CHS2 = 0;
  5569                           	bcf	status, 5	;RP0=0, select bank0
  5570  00C2  1283               	bcf	status, 6	;RP1=0, select bank0
  5571  00C3  1303               	bcf	(31),5	;volatile
  5572  00C4  129F               	line	342
  5573                           ;source.c: 342:             ADCON0bits.CHS1 = 0;
  5574                           	bcf	(31),4	;volatile
  5575  00C5  121F               	line	343
  5576                           ;source.c: 343:             ADCON0bits.CHS0 = 0;
  5577                           	bcf	(31),3	;volatile
  5578  00C6  119F               	line	344
  5579                           ;source.c: 344:             ADCON0bits.GO_DONE = 1;
  5580                           	bsf	(31),2	;volatile
  5581  00C7  151F               	line	345
  5582                           ;source.c: 345:             while(ADCON0bits.GO_DONE != 0)
  5583                           	goto	l252
  5584  00C8  28C9               	
  5585                           l253:	
  5586  00C9                     	line	348
  5587                           ;source.c: 346:             {;source.c: 348:             }
  5588                           	
  5589                           l252:	
  5590  00C9                     	line	345
  5591                           ;source.c: 345:             while(ADCON0bits.GO_DONE != 0)
  5592                           	btfsc	(31),2	;volatile
  5593  00C9  191F               	goto	u621
  5594  00CA  28CC               	goto	u620
  5595  00CB  28CD               u621:
  5596  00CC                     	goto	l252
  5597  00CC  28C9               u620:
  5598  00CD                     	goto	l2377
  5599  00CD  28CE               	
  5600                           l254:	
  5601  00CE                     	line	349
  5602                           	
  5603                           l2377:	
  5604  00CE                     ;source.c: 349:             return (ADRESH << 8)+ ADRESL;
  5605                           	movf	(30),w	;volatile
  5606  00CE  081E               	movwf	(?_analogRead+1)
  5607  00CF  00F1               	bsf	status, 5	;RP0=1, select bank1
  5608  00D0  1683               	bcf	status, 6	;RP1=0, select bank1
  5609  00D1  1303               	movf	(158)^080h,w	;volatile
  5610  00D2  081E               	movwf	(?_analogRead)
  5611  00D3  00F0               	goto	l255
  5612  00D4  2945               	
  5613                           l2379:	
  5614  00D5                     	goto	l255
  5615  00D5  2945               	line	350
  5616                           	
  5617                           l2381:	
  5618  00D6                     ;source.c: 350:             break;
  5619                           	goto	l255
  5620  00D6  2945               	line	351
  5621                           ;source.c: 351:         case 1:
  5622                           	
  5623                           l257:	
  5624  00D7                     	line	352
  5625                           ;source.c: 352:             ADCON0bits.CHS2 = 0;
  5626                           	bcf	status, 5	;RP0=0, select bank0
  5627  00D7  1283               	bcf	status, 6	;RP1=0, select bank0
  5628  00D8  1303               	bcf	(31),5	;volatile
  5629  00D9  129F               	line	353
  5630                           ;source.c: 353:             ADCON0bits.CHS1 = 0;
  5631                           	bcf	(31),4	;volatile
  5632  00DA  121F               	line	354
  5633                           ;source.c: 354:             ADCON0bits.CHS0 = 1;
  5634                           	bsf	(31),3	;volatile
  5635  00DB  159F               	line	355
  5636                           ;source.c: 355:             ADCON0bits.GO_DONE = 1;
  5637                           	bsf	(31),2	;volatile
  5638  00DC  151F               	line	356
  5639                           ;source.c: 356:             while(ADCON0bits.GO_DONE != 0)
  5640                           	goto	l258
  5641  00DD  28DE               	
  5642                           l259:	
  5643  00DE                     	line	359
  5644                           ;source.c: 357:             {;source.c: 359:             }
  5645                           	
  5646                           l258:	
  5647  00DE                     	line	356
  5648                           ;source.c: 356:             while(ADCON0bits.GO_DONE != 0)
  5649                           	btfsc	(31),2	;volatile
  5650  00DE  191F               	goto	u631
  5651  00DF  28E1               	goto	u630
  5652  00E0  28E2               u631:
  5653  00E1                     	goto	l258
  5654  00E1  28DE               u630:
  5655  00E2                     	goto	l2383
  5656  00E2  28E3               	
  5657                           l260:	
  5658  00E3                     	line	360
  5659                           	
  5660                           l2383:	
  5661  00E3                     ;source.c: 360:             return (ADRESH << 8)+ ADRESL;
  5662                           	movf	(30),w	;volatile
  5663  00E3  081E               	movwf	(?_analogRead+1)
  5664  00E4  00F1               	bsf	status, 5	;RP0=1, select bank1
  5665  00E5  1683               	bcf	status, 6	;RP1=0, select bank1
  5666  00E6  1303               	movf	(158)^080h,w	;volatile
  5667  00E7  081E               	movwf	(?_analogRead)
  5668  00E8  00F0               	goto	l255
  5669  00E9  2945               	
  5670                           l2385:	
  5671  00EA                     	goto	l255
  5672  00EA  2945               	line	361
  5673                           	
  5674                           l2387:	
  5675  00EB                     ;source.c: 361:             break;
  5676                           	goto	l255
  5677  00EB  2945               	line	362
  5678                           ;source.c: 362:         case 2:
  5679                           	
  5680                           l261:	
  5681  00EC                     	line	363
  5682                           ;source.c: 363:             ADCON0bits.CHS2 = 0;
  5683                           	bcf	status, 5	;RP0=0, select bank0
  5684  00EC  1283               	bcf	status, 6	;RP1=0, select bank0
  5685  00ED  1303               	bcf	(31),5	;volatile
  5686  00EE  129F               	line	364
  5687                           ;source.c: 364:             ADCON0bits.CHS1 = 1;
  5688                           	bsf	(31),4	;volatile
  5689  00EF  161F               	line	365
  5690                           ;source.c: 365:             ADCON0bits.CHS0 = 0;
  5691                           	bcf	(31),3	;volatile
  5692  00F0  119F               	line	366
  5693                           ;source.c: 366:             ADCON0bits.GO_DONE = 1;
  5694                           	bsf	(31),2	;volatile
  5695  00F1  151F               	line	367
  5696                           ;source.c: 367:             while(ADCON0bits.GO_DONE != 0)
  5697                           	goto	l262
  5698  00F2  28F3               	
  5699                           l263:	
  5700  00F3                     	line	370
  5701                           ;source.c: 368:             {;source.c: 370:             }
  5702                           	
  5703                           l262:	
  5704  00F3                     	line	367
  5705                           ;source.c: 367:             while(ADCON0bits.GO_DONE != 0)
  5706                           	btfsc	(31),2	;volatile
  5707  00F3  191F               	goto	u641
  5708  00F4  28F6               	goto	u640
  5709  00F5  28F7               u641:
  5710  00F6                     	goto	l262
  5711  00F6  28F3               u640:
  5712  00F7                     	goto	l2389
  5713  00F7  28F8               	
  5714                           l264:	
  5715  00F8                     	line	371
  5716                           	
  5717                           l2389:	
  5718  00F8                     ;source.c: 371:             return (ADRESH << 8)+ ADRESL;
  5719                           	movf	(30),w	;volatile
  5720  00F8  081E               	movwf	(?_analogRead+1)
  5721  00F9  00F1               	bsf	status, 5	;RP0=1, select bank1
  5722  00FA  1683               	bcf	status, 6	;RP1=0, select bank1
  5723  00FB  1303               	movf	(158)^080h,w	;volatile
  5724  00FC  081E               	movwf	(?_analogRead)
  5725  00FD  00F0               	goto	l255
  5726  00FE  2945               	
  5727                           l2391:	
  5728  00FF                     	goto	l255
  5729  00FF  2945               	line	372
  5730                           	
  5731                           l2393:	
  5732  0100                     ;source.c: 372:             break;
  5733                           	goto	l255
  5734  0100  2945               	line	373
  5735                           ;source.c: 373:         case 3:
  5736                           	
  5737                           l265:	
  5738  0101                     	line	374
  5739                           ;source.c: 374:             ADCON0bits.CHS2 = 0;
  5740                           	bcf	status, 5	;RP0=0, select bank0
  5741  0101  1283               	bcf	status, 6	;RP1=0, select bank0
  5742  0102  1303               	bcf	(31),5	;volatile
  5743  0103  129F               	line	375
  5744                           ;source.c: 375:             ADCON0bits.CHS1 = 1;
  5745                           	bsf	(31),4	;volatile
  5746  0104  161F               	line	376
  5747                           ;source.c: 376:             ADCON0bits.CHS0 = 1;
  5748                           	bsf	(31),3	;volatile
  5749  0105  159F               	line	377
  5750                           ;source.c: 377:             ADCON0bits.GO_DONE = 1;
  5751                           	bsf	(31),2	;volatile
  5752  0106  151F               	line	378
  5753                           ;source.c: 378:             while(ADCON0bits.GO_DONE != 0)
  5754                           	goto	l266
  5755  0107  2908               	
  5756                           l267:	
  5757  0108                     	line	381
  5758                           ;source.c: 379:             {;source.c: 381:             }
  5759                           	
  5760                           l266:	
  5761  0108                     	line	378
  5762                           ;source.c: 378:             while(ADCON0bits.GO_DONE != 0)
  5763                           	btfsc	(31),2	;volatile
  5764  0108  191F               	goto	u651
  5765  0109  290B               	goto	u650
  5766  010A  290C               u651:
  5767  010B                     	goto	l266
  5768  010B  2908               u650:
  5769  010C                     	goto	l2395
  5770  010C  290D               	
  5771                           l268:	
  5772  010D                     	line	382
  5773                           	
  5774                           l2395:	
  5775  010D                     ;source.c: 382:             return (ADRESH << 8)+ ADRESL;
  5776                           	movf	(30),w	;volatile
  5777  010D  081E               	movwf	(?_analogRead+1)
  5778  010E  00F1               	bsf	status, 5	;RP0=1, select bank1
  5779  010F  1683               	bcf	status, 6	;RP1=0, select bank1
  5780  0110  1303               	movf	(158)^080h,w	;volatile
  5781  0111  081E               	movwf	(?_analogRead)
  5782  0112  00F0               	goto	l255
  5783  0113  2945               	
  5784                           l2397:	
  5785  0114                     	goto	l255
  5786  0114  2945               	line	383
  5787                           	
  5788                           l2399:	
  5789  0115                     ;source.c: 383:             break;
  5790                           	goto	l255
  5791  0115  2945               	line	384
  5792                           ;source.c: 384:         case 4:
  5793                           	
  5794                           l269:	
  5795  0116                     	line	385
  5796                           ;source.c: 385:             ADCON0bits.CHS2 = 1;
  5797                           	bcf	status, 5	;RP0=0, select bank0
  5798  0116  1283               	bcf	status, 6	;RP1=0, select bank0
  5799  0117  1303               	bsf	(31),5	;volatile
  5800  0118  169F               	line	386
  5801                           ;source.c: 386:             ADCON0bits.CHS1 = 0;
  5802                           	bcf	(31),4	;volatile
  5803  0119  121F               	line	387
  5804                           ;source.c: 387:             ADCON0bits.CHS0 = 0;
  5805                           	bcf	(31),3	;volatile
  5806  011A  119F               	line	388
  5807                           ;source.c: 388:             ADCON0bits.GO_DONE = 1;
  5808                           	bsf	(31),2	;volatile
  5809  011B  151F               	line	389
  5810                           ;source.c: 389:             while(ADCON0bits.GO_DONE != 0)
  5811                           	goto	l270
  5812  011C  291D               	
  5813                           l271:	
  5814  011D                     	line	392
  5815                           ;source.c: 390:             {;source.c: 392:             }
  5816                           	
  5817                           l270:	
  5818  011D                     	line	389
  5819                           ;source.c: 389:             while(ADCON0bits.GO_DONE != 0)
  5820                           	btfsc	(31),2	;volatile
  5821  011D  191F               	goto	u661
  5822  011E  2920               	goto	u660
  5823  011F  2921               u661:
  5824  0120                     	goto	l270
  5825  0120  291D               u660:
  5826  0121                     	goto	l2401
  5827  0121  2922               	
  5828                           l272:	
  5829  0122                     	line	393
  5830                           	
  5831                           l2401:	
  5832  0122                     ;source.c: 393:             return (ADRESH << 8)+ ADRESL;
  5833                           	movf	(30),w	;volatile
  5834  0122  081E               	movwf	(?_analogRead+1)
  5835  0123  00F1               	bsf	status, 5	;RP0=1, select bank1
  5836  0124  1683               	bcf	status, 6	;RP1=0, select bank1
  5837  0125  1303               	movf	(158)^080h,w	;volatile
  5838  0126  081E               	movwf	(?_analogRead)
  5839  0127  00F0               	goto	l255
  5840  0128  2945               	
  5841                           l2403:	
  5842  0129                     	goto	l255
  5843  0129  2945               	line	394
  5844                           	
  5845                           l2405:	
  5846  012A                     ;source.c: 394:             break;
  5847                           	goto	l255
  5848  012A  2945               	line	395
  5849                           	
  5850                           l2407:	
  5851  012B                     ;source.c: 395:     }
  5852                           	goto	l255
  5853  012B  2945               	
  5854                           l250:	
  5855  012C                     	
  5856                           l2409:	
  5857  012C                     	movf	(analogRead@channel),w
  5858  012C  0874               	movwf	(??_analogRead+0)+0
  5859  012D  00F2               	clrf	(??_analogRead+0)+0+1
  5860  012E  01F3               	; Switch on 2 bytes has been partitioned into a top level switch of size 1, and 1 sub-s
                                 witches
  5861                           ; Switch size 1, requested type "space"
  5862                           ; Number of cases is 1, Range of values is 0 to 0
  5863                           ; switch strategies available:
  5864                           ; Name         Instructions Cycles
  5865                           ; simple_byte            4     3 (average)
  5866                           ; direct_byte           11     8 (fixed)
  5867                           ; jumptable            260     6 (fixed)
  5868                           ;	Chosen strategy is simple_byte
  5869                           
  5870                           	movf 1+(??_analogRead+0)+0,w
  5871  012F  0873               	opt asmopt_push
  5872                           	opt asmopt_off
  5873                           	xorlw	0^0	; case 0
  5874  0130  3A00               	skipnz
  5875  0131  1903               	goto	l2947
  5876  0132  2934               	goto	l255
  5877  0133  2945               	opt asmopt_pop
  5878                           	
  5879                           l2947:	
  5880  0134                     ; Switch size 1, requested type "space"
  5881                           ; Number of cases is 5, Range of values is 0 to 4
  5882                           ; switch strategies available:
  5883                           ; Name         Instructions Cycles
  5884                           ; simple_byte           16     9 (average)
  5885                           ; direct_byte           23     8 (fixed)
  5886                           ; jumptable            260     6 (fixed)
  5887                           ;	Chosen strategy is simple_byte
  5888                           
  5889                           	movf 0+(??_analogRead+0)+0,w
  5890  0134  0872               	opt asmopt_push
  5891                           	opt asmopt_off
  5892                           	xorlw	0^0	; case 0
  5893  0135  3A00               	skipnz
  5894  0136  1903               	goto	l251
  5895  0137  28C2               	xorlw	1^0	; case 1
  5896  0138  3A01               	skipnz
  5897  0139  1903               	goto	l257
  5898  013A  28D7               	xorlw	2^1	; case 2
  5899  013B  3A03               	skipnz
  5900  013C  1903               	goto	l261
  5901  013D  28EC               	xorlw	3^2	; case 3
  5902  013E  3A01               	skipnz
  5903  013F  1903               	goto	l265
  5904  0140  2901               	xorlw	4^3	; case 4
  5905  0141  3A07               	skipnz
  5906  0142  1903               	goto	l269
  5907  0143  2916               	goto	l255
  5908  0144  2945               	opt asmopt_pop
  5909                           
  5910                           	
  5911                           l256:	
  5912  0145                     	line	396
  5913                           	
  5914                           l255:	
  5915  0145                     	return
  5916  0145  0008               	opt stack 0
  5917                           GLOBAL	__end_of_analogRead
  5918                           	__end_of_analogRead:
  5919  0146                     	signat	_analogRead,4218
  5920                           	global	_PBRead
  5921                           
  5922 ;; *************** function _PBRead *****************
  5923 ;; Defined at:
  5924 ;;		line 416 in file "source.c"
  5925 ;; Parameters:    Size  Location     Type
  5926 ;;  pin             1    wreg     unsigned char 
  5927 ;; Auto vars:     Size  Location     Type
  5928 ;;  pin             1    2[COMMON] unsigned char 
  5929 ;; Return value:  Size  Location     Type
  5930 ;;                  1    wreg      unsigned char 
  5931 ;; Registers used:
  5932 ;;		wreg, fsr0l, fsr0h, status,2, status,0
  5933 ;; Tracked objects:
  5934 ;;		On entry : 0/0
  5935 ;;		On exit  : 0/0
  5936 ;;		Unchanged: 0/0
  5937 ;; Data sizes:     COMMON   BANK0   BANK1   BANK3   BANK2
  5938 ;;      Params:         0       0       0       0       0
  5939 ;;      Locals:         1       0       0       0       0
  5940 ;;      Temps:          2       0       0       0       0
  5941 ;;      Totals:         3       0       0       0       0
  5942 ;;Total ram usage:        3 bytes
  5943 ;; Hardware stack levels used:    1
  5944 ;; This function calls:
  5945 ;;		Nothing
  5946 ;; This function is called by:
  5947 ;;		_ProcessCommand
  5948 ;; This function uses a non-reentrant model
  5949 ;;
  5950                           psect	text14,local,class=CODE,delta=2,merge=1,group=0
  5951                           	line	416
  5952                           global __ptext14
  5953                           __ptext14:	;psect for function _PBRead
  5954  0FD2                     psect	text14
  5955                           	file	"source.c"
  5956                           	line	416
  5957                           	global	__size_of_PBRead
  5958                           	__size_of_PBRead	equ	__end_of_PBRead-_PBRead
  5959  002E                     	
  5960                           _PBRead:	
  5961  0FD2                     ;incstack = 0
  5962                           	opt	stack 5
  5963                           ; Regs used in _PBRead: [wreg-fsr0h+status,2+status,0]
  5964                           ;PBRead@pin stored from wreg
  5965                           	movwf	(PBRead@pin)
  5966  0FD2  00F2               	line	418
  5967                           	
  5968                           l2437:	
  5969  0FD3                     ;source.c: 416: char PBRead(char pin);source.c: 417: {;source.c: 418:     switch(pin)
  5970                           	goto	l2459
  5971  0FD3  2FEC               	line	420
  5972                           ;source.c: 419:     {;source.c: 420:         case 0:
  5973                           	
  5974                           l283:	
  5975  0FD4                     	line	421
  5976                           	
  5977                           l2439:	
  5978  0FD4                     ;source.c: 421:             return PORTEbits.RE0;
  5979                           	bcf	status, 5	;RP0=0, select bank0
  5980  0FD4  1283               	bcf	status, 6	;RP1=0, select bank0
  5981  0FD5  1303               	movf	(9),w	;volatile
  5982  0FD6  0809               	andlw	(1<<1)-1
  5983  0FD7  3901               	goto	l284
  5984  0FD8  2FFF               	
  5985                           l2441:	
  5986  0FD9                     	goto	l284
  5987  0FD9  2FFF               	line	422
  5988                           	
  5989                           l2443:	
  5990  0FDA                     ;source.c: 422:             break;
  5991                           	goto	l284
  5992  0FDA  2FFF               	line	423
  5993                           ;source.c: 423:         case 1:
  5994                           	
  5995                           l286:	
  5996  0FDB                     	line	424
  5997                           	
  5998                           l2445:	
  5999  0FDB                     ;source.c: 424:             return PORTEbits.RE1;
  6000                           	bcf	status, 5	;RP0=0, select bank0
  6001  0FDB  1283               	bcf	status, 6	;RP1=0, select bank0
  6002  0FDC  1303               	rrf	(9),w	;volatile
  6003  0FDD  0C09               	andlw	(1<<1)-1
  6004  0FDE  3901               	goto	l284
  6005  0FDF  2FFF               	
  6006                           l2447:	
  6007  0FE0                     	goto	l284
  6008  0FE0  2FFF               	line	425
  6009                           	
  6010                           l2449:	
  6011  0FE1                     ;source.c: 425:             break;
  6012                           	goto	l284
  6013  0FE1  2FFF               	line	426
  6014                           ;source.c: 426:         case 2:
  6015                           	
  6016                           l287:	
  6017  0FE2                     	line	427
  6018                           	
  6019                           l2451:	
  6020  0FE2                     ;source.c: 427:             return PORTEbits.RE2;
  6021                           	bcf	status, 5	;RP0=0, select bank0
  6022  0FE2  1283               	bcf	status, 6	;RP1=0, select bank0
  6023  0FE3  1303               	rrf	(9),w	;volatile
  6024  0FE4  0C09               	movwf	(??_PBRead+0)+0
  6025  0FE5  00F0               	rrf	(??_PBRead+0)+0,w
  6026  0FE6  0C70               	andlw	(1<<1)-1
  6027  0FE7  3901               	goto	l284
  6028  0FE8  2FFF               	
  6029                           l2453:	
  6030  0FE9                     	goto	l284
  6031  0FE9  2FFF               	line	428
  6032                           	
  6033                           l2455:	
  6034  0FEA                     ;source.c: 428:             break;
  6035                           	goto	l284
  6036  0FEA  2FFF               	line	429
  6037                           	
  6038                           l2457:	
  6039  0FEB                     ;source.c: 429:     }
  6040                           	goto	l284
  6041  0FEB  2FFF               	
  6042                           l282:	
  6043  0FEC                     	
  6044                           l2459:	
  6045  0FEC                     	movf	(PBRead@pin),w
  6046  0FEC  0872               	movwf	(??_PBRead+0)+0
  6047  0FED  00F0               	clrf	(??_PBRead+0)+0+1
  6048  0FEE  01F1               	; Switch on 2 bytes has been partitioned into a top level switch of size 1, and 1 sub-s
                                 witches
  6049                           ; Switch size 1, requested type "space"
  6050                           ; Number of cases is 1, Range of values is 0 to 0
  6051                           ; switch strategies available:
  6052                           ; Name         Instructions Cycles
  6053                           ; simple_byte            4     3 (average)
  6054                           ; direct_byte           11     8 (fixed)
  6055                           ; jumptable            260     6 (fixed)
  6056                           ;	Chosen strategy is simple_byte
  6057                           
  6058                           	movf 1+(??_PBRead+0)+0,w
  6059  0FEF  0871               	opt asmopt_push
  6060                           	opt asmopt_off
  6061                           	xorlw	0^0	; case 0
  6062  0FF0  3A00               	skipnz
  6063  0FF1  1903               	goto	l2949
  6064  0FF2  2FF4               	goto	l284
  6065  0FF3  2FFF               	opt asmopt_pop
  6066                           	
  6067                           l2949:	
  6068  0FF4                     ; Switch size 1, requested type "space"
  6069                           ; Number of cases is 3, Range of values is 0 to 2
  6070                           ; switch strategies available:
  6071                           ; Name         Instructions Cycles
  6072                           ; simple_byte           10     6 (average)
  6073                           ; direct_byte           17     8 (fixed)
  6074                           ; jumptable            260     6 (fixed)
  6075                           ;	Chosen strategy is simple_byte
  6076                           
  6077                           	movf 0+(??_PBRead+0)+0,w
  6078  0FF4  0870               	opt asmopt_push
  6079                           	opt asmopt_off
  6080                           	xorlw	0^0	; case 0
  6081  0FF5  3A00               	skipnz
  6082  0FF6  1903               	goto	l2439
  6083  0FF7  2FD4               	xorlw	1^0	; case 1
  6084  0FF8  3A01               	skipnz
  6085  0FF9  1903               	goto	l2445
  6086  0FFA  2FDB               	xorlw	2^1	; case 2
  6087  0FFB  3A03               	skipnz
  6088  0FFC  1903               	goto	l2451
  6089  0FFD  2FE2               	goto	l284
  6090  0FFE  2FFF               	opt asmopt_pop
  6091                           
  6092                           	
  6093                           l285:	
  6094  0FFF                     	line	430
  6095                           	
  6096                           l284:	
  6097  0FFF                     	return
  6098  0FFF  0008               	opt stack 0
  6099                           GLOBAL	__end_of_PBRead
  6100                           	__end_of_PBRead:
  6101  1000                     	signat	_PBRead,4217
  6102                           	global	_Initialization
  6103                           
  6104 ;; *************** function _Initialization *****************
  6105 ;; Defined at:
  6106 ;;		line 18 in file "source.c"
  6107 ;; Parameters:    Size  Location     Type
  6108 ;;		None
  6109 ;; Auto vars:     Size  Location     Type
  6110 ;;		None
  6111 ;; Return value:  Size  Location     Type
  6112 ;;                  1    wreg      void 
  6113 ;; Registers used:
  6114 ;;		wreg, status,2, status,0, pclath, cstack
  6115 ;; Tracked objects:
  6116 ;;		On entry : 0/0
  6117 ;;		On exit  : 0/0
  6118 ;;		Unchanged: 0/0
  6119 ;; Data sizes:     COMMON   BANK0   BANK1   BANK3   BANK2
  6120 ;;      Params:         0       0       0       0       0
  6121 ;;      Locals:         0       0       0       0       0
  6122 ;;      Temps:          0       0       0       0       0
  6123 ;;      Totals:         0       0       0       0       0
  6124 ;;Total ram usage:        0 bytes
  6125 ;; Hardware stack levels used:    1
  6126 ;; Hardware stack levels required when called:    1
  6127 ;; This function calls:
  6128 ;;		_CCP1Configuration
  6129 ;;		_CCP2Configuration
  6130 ;; This function is called by:
  6131 ;;		_main
  6132 ;; This function uses a non-reentrant model
  6133 ;;
  6134                           psect	text15,local,class=CODE,delta=2,merge=1,group=0
  6135                           	line	18
  6136                           global __ptext15
  6137                           __ptext15:	;psect for function _Initialization
  6138  0FAC                     psect	text15
  6139                           	file	"source.c"
  6140                           	line	18
  6141                           	global	__size_of_Initialization
  6142                           	__size_of_Initialization	equ	__end_of_Initialization-_Initialization
  6143  0026                     	
  6144                           _Initialization:	
  6145  0FAC                     ;incstack = 0
  6146                           	opt	stack 6
  6147                           ; Regs used in _Initialization: [wreg+status,2+status,0+pclath+cstack]
  6148                           	line	21
  6149                           	
  6150                           l1643:	
  6151  0FAC                     ;source.c: 21:     ADCON0 = 0x81;
  6152                           	movlw	low(081h)
  6153  0FAC  3081               	bcf	status, 5	;RP0=0, select bank0
  6154  0FAD  1283               	bcf	status, 6	;RP1=0, select bank0
  6155  0FAE  1303               	movwf	(31)	;volatile
  6156  0FAF  009F               	line	22
  6157                           ;source.c: 22:     ADCON1 = 0xC2;
  6158                           	movlw	low(0C2h)
  6159  0FB0  30C2               	bsf	status, 5	;RP0=1, select bank1
  6160  0FB1  1683               	bcf	status, 6	;RP1=0, select bank1
  6161  0FB2  1303               	movwf	(159)^080h	;volatile
  6162  0FB3  009F               	line	24
  6163                           # 24 "source.c"
  6164                           CLRF PORTA ;# 
  6165  0FB4  0185               	line	25
  6166                           # 25 "source.c"
  6167                           MOVLW 0x3F ;# 
  6168  0FB5  303F               	line	26
  6169                           # 26 "source.c"
  6170                           MOVWF TRISA ;# 
  6171  0FB6  0085               	line	28
  6172                           # 28 "source.c"
  6173                           CLRF PORTB ;# 
  6174  0FB7  0186               	line	29
  6175                           # 29 "source.c"
  6176                           MOVLW 0x00 ;# 
  6177  0FB8  3000               	line	30
  6178                           # 30 "source.c"
  6179                           MOVWF TRISB ;# 
  6180  0FB9  0086               	line	32
  6181                           # 32 "source.c"
  6182                           CLRF PORTC ;# 
  6183  0FBA  0187               	line	33
  6184                           # 33 "source.c"
  6185                           MOVLW 0x00 ;# 
  6186  0FBB  3000               	line	34
  6187                           # 34 "source.c"
  6188                           MOVWF TRISC ;# 
  6189  0FBC  0087               psect	text15
  6190                           	line	35
  6191                           	
  6192                           l1645:	
  6193  0FBD                     ;source.c: 35:     CCP1Configuration();
  6194                           	fcall	_CCP1Configuration
  6195  0FBD  120A  158A  2775  120A  158A  	line	36
  6196                           	
  6197                           l1647:	
  6198  0FC2                     ;source.c: 36:     CCP2Configuration();
  6199                           	fcall	_CCP2Configuration
  6200  0FC2  120A  118A  2005  120A  158A  	line	38
  6201                           # 38 "source.c"
  6202                           CLRF PORTD ;# 
  6203  0FC7  0188               	line	39
  6204                           # 39 "source.c"
  6205                           MOVLW 0x00 ;# 
  6206  0FC8  3000               	line	40
  6207                           # 40 "source.c"
  6208                           MOVF TRISD ;# 
  6209  0FC9  0888               psect	text15
  6210                           	line	41
  6211                           	
  6212                           l1649:	
  6213  0FCA                     ;source.c: 41:     PORTE = 0x00;
  6214                           	bcf	status, 5	;RP0=0, select bank0
  6215  0FCA  1283               	bcf	status, 6	;RP1=0, select bank0
  6216  0FCB  1303               	clrf	(9)	;volatile
  6217  0FCC  0189               	line	42
  6218                           	
  6219                           l1651:	
  6220  0FCD                     ;source.c: 42:     TRISE = 0x07;
  6221                           	movlw	low(07h)
  6222  0FCD  3007               	bsf	status, 5	;RP0=1, select bank1
  6223  0FCE  1683               	bcf	status, 6	;RP1=0, select bank1
  6224  0FCF  1303               	movwf	(137)^080h	;volatile
  6225  0FD0  0089               	line	43
  6226                           	
  6227                           l139:	
  6228  0FD1                     	return
  6229  0FD1  0008               	opt stack 0
  6230                           GLOBAL	__end_of_Initialization
  6231                           	__end_of_Initialization:
  6232  0FD2                     	signat	_Initialization,89
  6233                           	global	_CCP2Configuration
  6234                           
  6235 ;; *************** function _CCP2Configuration *****************
  6236 ;; Defined at:
  6237 ;;		line 55 in file "source.c"
  6238 ;; Parameters:    Size  Location     Type
  6239 ;;		None
  6240 ;; Auto vars:     Size  Location     Type
  6241 ;;		None
  6242 ;; Return value:  Size  Location     Type
  6243 ;;                  1    wreg      void 
  6244 ;; Registers used:
  6245 ;;		wreg
  6246 ;; Tracked objects:
  6247 ;;		On entry : 0/0
  6248 ;;		On exit  : 0/0
  6249 ;;		Unchanged: 0/0
  6250 ;; Data sizes:     COMMON   BANK0   BANK1   BANK3   BANK2
  6251 ;;      Params:         0       0       0       0       0
  6252 ;;      Locals:         0       0       0       0       0
  6253 ;;      Temps:          0       0       0       0       0
  6254 ;;      Totals:         0       0       0       0       0
  6255 ;;Total ram usage:        0 bytes
  6256 ;; Hardware stack levels used:    1
  6257 ;; This function calls:
  6258 ;;		Nothing
  6259 ;; This function is called by:
  6260 ;;		_Initialization
  6261 ;; This function uses a non-reentrant model
  6262 ;;
  6263                           psect	text16,local,class=CODE,delta=2,merge=1,group=0
  6264                           	line	55
  6265                           global __ptext16
  6266                           __ptext16:	;psect for function _CCP2Configuration
  6267  0005                     psect	text16
  6268                           	file	"source.c"
  6269                           	line	55
  6270                           	global	__size_of_CCP2Configuration
  6271                           	__size_of_CCP2Configuration	equ	__end_of_CCP2Configuration-_CCP2Configuration
  6272  0005                     	
  6273                           _CCP2Configuration:	
  6274  0005                     ;incstack = 0
  6275                           	opt	stack 6
  6276                           ; Regs used in _CCP2Configuration: [wreg]
  6277                           	line	57
  6278                           	
  6279                           l1503:	
  6280  0005                     ;source.c: 57:     CCP2CON = 0x4F;
  6281                           	movlw	low(04Fh)
  6282  0005  304F               	bcf	status, 5	;RP0=0, select bank0
  6283  0006  1283               	bcf	status, 6	;RP1=0, select bank0
  6284  0007  1303               	movwf	(29)	;volatile
  6285  0008  009D               	line	58
  6286                           	
  6287                           l148:	
  6288  0009                     	return
  6289  0009  0008               	opt stack 0
  6290                           GLOBAL	__end_of_CCP2Configuration
  6291                           	__end_of_CCP2Configuration:
  6292  000A                     	signat	_CCP2Configuration,89
  6293                           	global	_CCP1Configuration
  6294                           
  6295 ;; *************** function _CCP1Configuration *****************
  6296 ;; Defined at:
  6297 ;;		line 44 in file "source.c"
  6298 ;; Parameters:    Size  Location     Type
  6299 ;;		None
  6300 ;; Auto vars:     Size  Location     Type
  6301 ;;		None
  6302 ;; Return value:  Size  Location     Type
  6303 ;;                  1    wreg      void 
  6304 ;; Registers used:
  6305 ;;		wreg
  6306 ;; Tracked objects:
  6307 ;;		On entry : 0/0
  6308 ;;		On exit  : 0/0
  6309 ;;		Unchanged: 0/0
  6310 ;; Data sizes:     COMMON   BANK0   BANK1   BANK3   BANK2
  6311 ;;      Params:         0       0       0       0       0
  6312 ;;      Locals:         0       0       0       0       0
  6313 ;;      Temps:          0       0       0       0       0
  6314 ;;      Totals:         0       0       0       0       0
  6315 ;;Total ram usage:        0 bytes
  6316 ;; Hardware stack levels used:    1
  6317 ;; This function calls:
  6318 ;;		Nothing
  6319 ;; This function is called by:
  6320 ;;		_Initialization
  6321 ;; This function uses a non-reentrant model
  6322 ;;
  6323                           psect	text17,local,class=CODE,delta=2,merge=1,group=0
  6324                           	line	44
  6325                           global __ptext17
  6326                           __ptext17:	;psect for function _CCP1Configuration
  6327  0F75                     psect	text17
  6328                           	file	"source.c"
  6329                           	line	44
  6330                           	global	__size_of_CCP1Configuration
  6331                           	__size_of_CCP1Configuration	equ	__end_of_CCP1Configuration-_CCP1Configuration
  6332  000B                     	
  6333                           _CCP1Configuration:	
  6334  0F75                     ;incstack = 0
  6335                           	opt	stack 6
  6336                           ; Regs used in _CCP1Configuration: [wreg]
  6337                           	line	46
  6338                           	
  6339                           l1501:	
  6340  0F75                     ;source.c: 46:     PR2 = 0xFF;
  6341                           	movlw	low(0FFh)
  6342  0F75  30FF               	bsf	status, 5	;RP0=1, select bank1
  6343  0F76  1683               	bcf	status, 6	;RP1=0, select bank1
  6344  0F77  1303               	movwf	(146)^080h	;volatile
  6345  0F78  0092               	line	47
  6346                           ;source.c: 47:     T2CON = 0x05;
  6347                           	movlw	low(05h)
  6348  0F79  3005               	bcf	status, 5	;RP0=0, select bank0
  6349  0F7A  1283               	bcf	status, 6	;RP1=0, select bank0
  6350  0F7B  1303               	movwf	(18)	;volatile
  6351  0F7C  0092               	line	48
  6352                           ;source.c: 48:     CCP1CON = 0x4F;
  6353                           	movlw	low(04Fh)
  6354  0F7D  304F               	movwf	(23)	;volatile
  6355  0F7E  0097               	line	49
  6356                           	
  6357                           l142:	
  6358  0F7F                     	return
  6359  0F7F  0008               	opt stack 0
  6360                           GLOBAL	__end_of_CCP1Configuration
  6361                           	__end_of_CCP1Configuration:
  6362  0F80                     	signat	_CCP1Configuration,89
  6363                           global	___latbits
  6364                           ___latbits	equ	2
  6365  0002                     	global	btemp
  6366                           	btemp set 07Eh
  6367  007E                     
  6368                           	DABS	1,126,2	;btemp
  6369                           	global	wtemp0
  6370                           	wtemp0 set btemp+0
  6371  007E                     	end


Data Sizes:
    Strings     0
    Constant    0
    Data        2
    BSS         12
    Persistent  0
    Stack       0

Auto Spaces:
    Space          Size  Autos    Used
    COMMON           14     14      14
    BANK0            80     12      26
    BANK1            80      0       0
    BANK3            96      0       0
    BANK2            96      0       0

Pointer List with Targets:

    None.

Critical Paths under _main in COMMON

    _main->_setup
    _setup->_SerialBegin
    _SerialBegin->___aldiv
    _loop->_ProcessCommand
    _ProcessCommand->_analogRead
    _ProcessCommand->_analogWrite

Critical Paths under _main in BANK0

    _setup->_SerialBegin
    _SerialBegin->___aldiv

Critical Paths under _main in BANK1

    None.

Critical Paths under _main in BANK3

    None.

Critical Paths under _main in BANK2

    None.

Call Graph Tables:

 ---------------------------------------------------------------------------------
 (Depth) Function   	        Calls       Base Space   Used Autos Params    Refs
 ---------------------------------------------------------------------------------
 (0) _main                                                 0     0      0    5047
                     _Initialization
                               _loop
                              _setup
 ---------------------------------------------------------------------------------
 (1) _setup                                                1     1      0    2426
                                             13 COMMON     1     1      0
                        _SerialBegin
                         _SerialRead
                        _SerialWrite
                       _digitalWrite
                            _pinMode
 ---------------------------------------------------------------------------------
 (2) _SerialBegin                                         10     6      4     792
                                              9 COMMON     4     4      0
                                              6 BANK0      6     2      4
                            ___aldiv
 ---------------------------------------------------------------------------------
 (3) ___aldiv                                             15     7      8     604
                                              0 COMMON     9     1      8
                                              0 BANK0      6     6      0
 ---------------------------------------------------------------------------------
 (1) _loop                                                 7     7      0    2621
                                              0 BANK0      7     7      0
                     _ProcessCommand
                    _SerialAvailable
                         _SerialRead
                        _SerialWrite
 ---------------------------------------------------------------------------------
 (2) _SerialWrite                                          1     1      0      22
                                              0 COMMON     1     1      0
 ---------------------------------------------------------------------------------
 (2) _SerialRead                                           0     0      0       0
 ---------------------------------------------------------------------------------
 (2) _SerialAvailable                                      1     1      0       8
                                              0 COMMON     1     1      0
 ---------------------------------------------------------------------------------
 (2) _ProcessCommand                                       8     5      3    2477
                                              5 COMMON     8     5      3
                             _PBRead
                         _analogRead
                        _analogWrite
                        _digitalRead
                       _digitalWrite
                            _pinMode
 ---------------------------------------------------------------------------------
 (2) _pinMode                                              4     3      1     768
                                              0 COMMON     4     3      1
 ---------------------------------------------------------------------------------
 (2) _digitalWrite                                         4     3      1     844
                                              0 COMMON     4     3      1
 ---------------------------------------------------------------------------------
 (3) _digitalRead                                          3     3      0      22
                                              0 COMMON     3     3      0
 ---------------------------------------------------------------------------------
 (3) _analogWrite                                          5     3      2     192
                                              0 COMMON     5     3      2
 ---------------------------------------------------------------------------------
 (3) _analogRead                                           5     3      2      22
                                              0 COMMON     5     3      2
 ---------------------------------------------------------------------------------
 (3) _PBRead                                               3     3      0      22
                                              0 COMMON     3     3      0
 ---------------------------------------------------------------------------------
 (1) _Initialization                                       0     0      0       0
                  _CCP1Configuration
                  _CCP2Configuration
 ---------------------------------------------------------------------------------
 (2) _CCP2Configuration                                    0     0      0       0
 ---------------------------------------------------------------------------------
 (2) _CCP1Configuration                                    0     0      0       0
 ---------------------------------------------------------------------------------
 Estimated maximum stack depth 3
 ---------------------------------------------------------------------------------

 Call Graph Graphs:

 _main (ROOT)
   _Initialization
     _CCP1Configuration
     _CCP2Configuration
   _loop
     _ProcessCommand
       _PBRead
       _analogRead
       _analogWrite
       _digitalRead
       _digitalWrite
       _pinMode
     _SerialAvailable
     _SerialRead
     _SerialWrite
   _setup
     _SerialBegin
       ___aldiv
     _SerialRead
     _SerialWrite
     _digitalWrite
     _pinMode

 Address spaces:
Name               Size   Autos  Total    Cost      Usage
BANK3               60      0       0       9        0.0%
BITBANK3            60      0       0       8        0.0%
SFR3                 0      0       0       4        0.0%
BITSFR3              0      0       0       4        0.0%
BANK2               60      0       0      11        0.0%
BITBANK2            60      0       0      10        0.0%
SFR2                 0      0       0       5        0.0%
BITSFR2              0      0       0       5        0.0%
BANK1               50      0       0       7        0.0%
BITBANK1            50      0       0       6        0.0%
SFR1                 0      0       0       2        0.0%
BITSFR1              0      0       0       2        0.0%
BANK0               50      C      1A       5       32.5%
BITBANK0            50      0       0       4        0.0%
SFR0                 0      0       0       1        0.0%
BITSFR0              0      0       0       1        0.0%
COMMON               E      E       E       1      100.0%
BITCOMMON            E      0       0       0        0.0%
CODE                 0      0       0       0        0.0%
DATA                 0      0      28      12        0.0%
ABS                  0      0      28       3        0.0%
NULL                 0      0       0       0        0.0%
STACK                0      0       0       2        0.0%
EEDATA             100      0       0       0        0.0%


Microchip Technology PIC Macro Assembler V2.00 build -1524193055 
Symbol Table                                                                                   Fri Nov 22 17:42:29 2019

               __CFG_CP$OFF 0000                 __CFG_LVP$ON 0000                         l200 048F  
                       l201 0497                         l210 04DF                         l202 049F  
                       l211 04E7                         l203 04A7                         l220 07E3  
                       l212 04EF                         l204 04AF                         l221 07E3  
                       l213 04F7                         l205 04B7                         l133 0FA2  
                       l142 0F7F                         l230 06F4                         l222 06AD  
                       l214 04FF                         l206 04BF                         l134 0FA8  
                       l231 06FC                         l223 06B7                         l207 04C7  
                       l215 0563                         l135 0FA9                         l240 0749  
                       l232 0703                         l224 06C0                         l208 04CF  
                       l160 0586                         l136 0FA9                         l241 0750  
                       l233 070A                         l225 06CA                         l209 04D7  
                       l161 058E                         l250 012C                         l218 0788  
                       l242 0759                         l234 0713                         l226 06D1  
                       l154 0647                         l170 05D6                         l162 0596  
                       l314 0F8D                         l139 0FD1                         l251 00C2  
                       l243 0760                         l235 071A                         l227 06DA  
                       l219 06A5                         l171 05DE                         l163 059E  
                       l155 0566                         l315 0F8D                         l148 0009  
                       l260 00E3                         l252 00C9                         l244 0767  
                       l236 0724                         l228 06E1                         l156 06A2  
                       l180 062A                         l172 05E6                         l164 05A6  
                       l340 0020                         l316 0F94                         l261 00EC  
                       l253 00C9                         l245 0770                         l237 072D  
                       l229 06EA                         l181 0632                         l173 05EE  
                       l165 05AE                         l157 056E                         l317 0F96  
                       l270 011D                         l262 00F3                         l254 00CE  
                       l246 0777                         l238 0737                         l190 043F  
                       l182 063A                         l174 05F6                         l166 05B6  
                       l158 0576                         l271 011D                         l263 00F3  
                       l255 0145                         l247 077E                         l239 0741  
                       l191 0447                         l175 05FE                         l167 05BE  
                       l159 057E                         l183 06A2                         l343 0F81  
                       l256 0145                         l272 0122                         l264 00F8  
                       l192 044F                         l176 0606                         l168 05C6  
                       l344 0F81                         l440 00BF                         l265 0101  
                       l257 00D7                         l193 0457                         l177 0612  
                       l169 05CE                         l345 0F88                         l282 0FEC  
                       l266 0108                         l258 00DE                         l186 0508  
                       l194 045F                         l178 061A                         l346 0F8A  
                       l450 0389                         l283 0FD4                         l267 0108  
                       l259 00DE                         l275 0058                         l195 0467  
                       l187 042F                         l179 0622                         l339 001F  
                       l443 042C                         l451 0374                         l435 00AA  
                       l284 0FFF                         l268 010D                         l276 0023  
                       l188 0563                         l196 046F                         l444 0416  
                       l460 03EE                         l452 0397                         l436 0082  
                       l285 0FFF                         l269 0116                         l277 0068  
                       l197 0477                         l189 0437                         l461 0407  
                       l453 03AA                         l445 034C                         l293 01D2  
                       l437 00A7                         l286 0FDB                         l278 003D  
                       l198 047F                         l470 0345                         l446 042B  
                       l462 0409                         l454 03AC                         l630 0213  
                       l294 01EA                         l438 00A9                         l287 0FE2  
                       l279 0068                         l199 0487                         l471 0345  
                       l463 0410                         l455 03B3                         l447 0370  
                       l631 0276                         l295 01EA                         l439 00B2  
                       l472 02B1                         l456 03BA                         l448 03AD  
                       l464 042C                         l632 0234                         l473 02BC  
                       l457 040A                         l449 0371                         l633 0226  
                       l474 02D0                         l458 03BB                         l634 0239  
                       l467 0329                         l475 02DB                         l459 03CC  
                       l635 023A                         l476 02EA                         l468 0295  
                       l636 0265                         l477 02F7                         l469 02A0  
                       l637 0275                         l629 01FF                         l478 0319  
                       l638 0287                         l639 0290                         _GIE 005F  
                       _LED 0038                         _PR2 0092                         _PEN 048A  
              __CFG_CPD$OFF 0000                         u620 00CD                         u621 00CC  
                       u630 00E2                         u710 01F2                         u631 00E1  
                       u711 01F1                         u640 00F7                         u704 0056  
                       u800 027B                         u720 0203                         u641 00F6  
                       u801 027A                         u721 0202                         u650 010C  
                       u730 0223                         u810 0159                         u651 010B  
                       u731 0222                         u660 0121                         u900 02B7  
                       u820 0184                         _SEN 0488                         u661 0120  
                       u901 02B6                         u821 0183                         u670 0039  
                       u910 02D6                         u750 0238                         u830 0197  
                       u671 0035                         u911 02D5                         u751 0237  
                       u815 0154                         u840 0F93                         u920 00A4  
                       u841 0F92                         u745 0228                         u921 00A3  
                       u690 0053                         u850 0012                         u770 0255  
                       u930 00B1                         u691 004F                         u851 0011  
                       u771 0254                         u835 0192                         u931 00B0  
                       u684 003C                         u860 0016                         u940 0396  
                       u861 0015                         u941 0395                         u765 023C  
                       u870 001C                         u950 03A7                         u790 0274  
                       u871 001B                         u951 03A6                         u791 0273  
                       u775 0251                         u880 0F87                         u960 03B2  
                       u881 0F86                         u961 03B1                         u945 0392  
                       u785 0266                         u890 029B                         u970 03CA  
                       u891 029A                         u971 03C9                         u980 03ED  
                       u981 03EC                         u990 0404                         u991 0403  
                       u975 03C6                         u985 03E9                         _Val 002A  
                       fsr0 0004                         indf 0000                __CFG_FOSC$HS 0000  
                _DataEnviar 0026                        l2101 05C6                        l2111 05EE  
                      l2103 05CE                        l2121 061A                        l2113 05F6  
                      l2105 05D6                        PORTA 0005                        PORTB 0006  
                      l2211 06AD                        l2203 06A4                        l2131 0646  
                      l2123 0622                        l2115 05FE                        l2107 05DE  
                      PORTC 0007                        PORTD 0008                        l1501 0F75  
                      l2301 072D                        l2221 06BF                        l2213 06B5  
                      l2205 06A5                        l2141 042F                        l2125 062A  
                      l2117 060C                        l2109 05E6                        l2133 0647  
                      l1503 0005                        l2311 0740                        l2303 0735  
                      l2231 06CF                        l2223 06C0                        l2215 06B6  
                      l2207 06AB                        l2151 0457                        l2143 0437  
                      l2127 0632                        l2119 0612                        l2401 0122  
                      l2321 074E                        l2313 0741                        l2305 0736  
                      l2241 06DA                        l2233 06D0                        l2225 06C8  
                      l2217 06B7                        l2209 06AC                        l2161 047F  
                      l2153 045F                        l2145 043F                        l2129 0640  
                      l2081 0576                        l2073 001D                        l2403 0129  
                      l2331 0759                        l2323 074F                        l2315 0747  
                      l2307 0737                        l2251 06E9                        l2243 06DF  
                      l2235 06D1                        l2227 06C9                        l2219 06BE  
                      l2171 04A7                        l2163 0487                        l2155 0467  
                      l2147 0447                        l2139 042E                        l2091 059E  
                      l2083 057E                        l2075 0565                        l2405 012A  
                      l2421 0032                        l2341 0766                        l2333 075E  
                      l2325 0750                        l2317 0748                        l2309 073F  
                      l2261 06FA                        l2253 06EA                        l2245 06E0  
                      l2237 06D8                        l2229 06CA                        l2181 04CF  
                      l2173 04AF                        l2165 048F                        l2157 046F  
                      l2149 044F                        l2093 05A6                        l2085 0586  
                      l2077 0566                        l2501 0287                        l2407 012B  
                      l2423 003D                        l2431 0058                        l2415 0022  
                      l2351 0775                        l2343 0767                        l2335 075F  
                      l2327 0757                        l2319 0749                        l2271 0703  
                      l2263 06FB                        l2255 06F2                        l2247 06E1  
                      l2239 06D9                        l2191 04F7                        l2183 04D7  
                      l2175 04B7                        l2167 0497                        l2159 0477  
                      l2095 05AE                        l2087 058E                        l2079 056E  
                      l2503 0290                        l2511 0184                        l2441 0FD9  
                      l2409 012C                        l2425 004B                        l2417 0023  
                      l2361 077E                        l2353 0776                        l2345 076E  
                      l2337 0760                        l2329 0758                        l2281 0712  
                      l2273 0708                        l2265 06FC                        l2257 06F3  
                      l2249 06E8                        l2193 04FF                        l2185 04DF  
                      l2177 04BF                        l2169 049F                        l2097 05B6  
                      l2089 0596                        l2601 02CF                        l2521 01C1  
                      l2513 0187                        l2505 0146                        l1651 0FCD  
                      l1643 0FAC                        l2451 0FE2                        l2443 0FDA  
                      l2427 004C                        l2419 0031                        l2363 0785  
                      l2355 0777                        l2347 076F                        l2339 0765  
                      l2291 0722                        l2283 0713                        l2275 0709  
                      l2267 0701                        l2259 06F4                        l2195 0507  
                      l2187 04E7                        l2179 04C7                        l2099 05BE  
                      l2611 02E9                        l2603 02D0                        l2531 01CE  
                      l2523 01C4                        l2515 01B9                        l2507 0149  
                      l1645 0FBD                        l2453 0FE9                        l2445 0FDB  
                      l2437 0FD3                        l2381 00D6                        l2429 0057  
                      l2365 0786                        l2357 077C                        l2349 0770  
                      l2293 0723                        l2285 0718                        l2277 070A  
                      l2269 0702                        l2189 04EF                        l2197 0508  
                      l2621 0305                        l2613 02EA                        l2605 02D6  
                      l2701 03BD                        l2541 01D7                        l2533 01D0  
                      l2525 01C5                        l2517 01BD                        l2509 017B  
                      l1647 0FC2                        l2455 0FEA                        l2447 0FE0  
                      l2439 0FD4                        l2391 00FF                        l2383 00E3  
                      l2375 00C1                        l2367 0787                        l2359 077D  
                      l2295 0724                        l2287 0719                        l2279 0711  
                      l2631 0326                        l2623 030F                        l2615 02F5  
                      l2607 02DB                        l2703 03CB                        l2711 03EE  
                      l2471 0203                        l2551 01E4                        l2543 01DA  
                      l2535 01D1                        l2527 01C8                        l2519 01BE  
                      l1649 0FCA                        l2457 0FEB                        l2449 0FE1  
                      l2393 0100                        l2385 00EA                        l2377 00CE  
                      l2297 072B                        l2289 071A                        l2369 0788  
                      l2633 0327                        l2625 0317                        l2617 02F6  
                      l2609 02E8                        l2561 000A                        l2713 03F4  
                      l2705 03CC                        l2721 040A                        l2481 0226  
                      l2473 020E                        l2465 01EB                        l2553 01E7  
                      l2545 01DD                        l2529 01CB                        l2537 01D2  
                      l2459 0FEC                        l2395 010D                        l2387 00EB  
                      l2379 00D5                        l2299 072C                        l2635 0328  
                      l2627 0318                        l2619 02F7                        l2563 0012  
                      l2571 0F80                        l2723 0410                        l2715 03FE  
                      l2707 03D8                        l2491 0263                        l2483 0234  
                      l2475 0213                        l2467 01EE                        l2555 01E9  
                      l2547 01DE                        l2539 01D6                        l2651 0096  
                      l2643 0069                        l2397 0114                        l2389 00F8  
                      l2629 0319                        l2581 029B                        l2637 0329  
                      l2565 0016                        l2573 0F88                        l2557 0F8C  
                      l2725 0412                        l2717 0404                        l2709 03E0  
                      l2493 0265                        l2485 023A                        l2477 021B  
                      l2469 01F2                        l2549 01E1                        l2661 00B2  
                      l2653 009C                        l2645 0078                        l2399 0115  
                      l2591 02B1                        l2583 02A0                        l2567 001D  
                      l2575 0F8A                        l2559 0F94                        l2727 0415  
                      l2719 0407                        l2671 0366                        l2495 026E  
                      l2487 0243                        l2479 0223                        l2663 00B4  
                      l2655 00A4                        l2647 0082                        l2735 0F97  
                      l2593 02B7                        l2585 02AA                        l2577 0292  
                      l2569 0020                        l2681 0382                        l2673 036A  
                      l2729 0416                        l2489 0255                        l2497 0276  
                      l2665 00BB                        l2657 00A7                        l2649 008C  
                      l2737 0F9C                        l2595 02BC                        l2587 02AF  
                      l2579 0295                        l2691 03AA                        l2683 0389  
                      l2675 036E                        l2667 0346                        l2499 027B  
                      l2659 00AA                        l2739 0FA2                        l2941 0510  
                      l2597 02C6                        l2589 02B0                        l2685 0397  
                      l2677 0371                        l2693 03AD                        l2669 034C  
                      l2943 0790                        l2599 02CE                        l2935 0420  
                      l2695 03B3                        l2687 03A1                        l2679 0374  
                      l2945 0060                        l2937 0331                        l2697 03B5  
                      l2689 03A7                        l2947 0134                        l2939 064F  
                      l2699 03BB                        l2949 0FF4                        TRISA 0085  
                      TRISB 0086                        TRISC 0087                        TRISD 0088  
                      _BRGH 04C2                        u1000 040F                        _CREN 00C4  
                      u1001 040E                        _FERR 00C2                        _PEIE 005E  
                      _RCEN 048B                        _RCIF 0065                        _OERR 00C1  
                      _SPEN 00C7                        _RSEN 0489                        _TRMT 04C1  
                      _TXEN 04C5                        _TXIF 0064                        _SYNC 04C4  
                      _Dato 0024                __CFG_WRT$OFF 0000                        _dada 0028  
                      _main 0F97                        _loop 0346                        btemp 007E  
                      start 0000           _CCP2Configuration 0005   ProcessCommand@instruction 007A  
        ?_CCP2Configuration 0070             __end_of___aldiv 0291                       ?_main 0070  
                     _ACKEN 048C                       _ACKDT 048D                       _CCP1X 00BD  
                     _CCP1Y 00BC                       _CCP2X 00ED                       _CCP2Y 00EC  
                     ?_loop 0070               __CFG_WDTE$OFF 0000                       _T2CON 0012  
                     _RCREG 001A                       _SPBRG 0099                       _PORTE 0009  
                     _SSPIE 0463                       _TRISE 0089                       _SSPIF 0063  
                     _TXREG 0019                       _Valor 0029         ??_CCP2Configuration 0070  
           __end_of_pinMode 06A3                       _setup 0069              __CFG_BOREN$OFF 0000  
                     loop@i 002F                       loop@j 0031                       status 0003  
                     wtemp0 007E        __size_of_analogWrite 0048  __size_of_CCP1Configuration 000B  
      __end_of_digitalWrite 0564             __initialization 07E4   __end_of_CCP2Configuration 000A  
              __end_of_main 0FAC                __end_of_loop 042D     __size_of_Initialization 0026  
                    ??_main 007E                      ??_loop 002C        __size_of_digitalRead 0141  
                    _ADCON0 001F                      _ADCON1 009F                      _ADRESH 001E  
                    _ADRESL 009E                      _CCPR1L 0015                      _CCPR2L 001B  
                    ?_setup 0070               ??_SerialBegin 0079                      _PBRead 0FD2  
           _SerialAvailable 000A                      _SSPADD 0093         SerialBegin@BaudRate 0032  
                    _TRISC3 043B                      _TRISC4 043C                      _TRISC6 043E  
                    _TRISC7 043F                      _SSPCON 0014                      _SSPBUF 0013  
             ??_SerialWrite 0070                  _SerialRead 0F80              __CFG_PWRTE$OFF 0000  
                    _Estado 002B                   ??___aldiv 0078           analogRead@channel 0074  
                 ??_pinMode 0071          ProcessCommand@data 007B          ProcessCommand@port 0075  
   __end_of__initialization 07FC                 pinMode@mode 0070         __end_of_SerialBegin 01EB  
__size_of_CCP2Configuration 0005              __pcstackCOMMON 0070                __pidataBANK0 0003  
       __end_of_SerialWrite 0F97               __end_of_setup 00C0                 _Informacion 0020  
   __size_of_ProcessCommand 00B5     __end_of_SerialAvailable 0021                     ??_setup 007D  
                __pbssBANK0 0020                     ?_PBRead 0070       __size_of_digitalWrite 0137  
      SerialWrite@dataWrite 0070                  _analogRead 00C0                 ?_SerialRead 0070  
                __pmaintext 0F97                   PBRead@pin 0072              _Initialization 0FAC  
                   _CCP1CON 0017                     _CCP2CON 001D                _digitalWrite 042D  
              _BufferLenght 0039                     _SSPCON2 0091                     _SSPSTAT 0094  
               _SerialBegin 0146             __size_of_PBRead 002E                 _SerialWrite 0F8B  
    __end_of_Initialization 0FD2                     ___aldiv 01EB                     __ptext1 0069  
                   __ptext2 0146                     __ptext3 01EB                     __ptext4 0346  
                   __ptext5 0F8B                     __ptext6 0F80                     __ptext7 000A  
                   __ptext8 0291                     __ptext9 0564                     _pinMode 0564  
          ___aldiv@dividend 0074         __size_of_SerialRead 000B            ?_SerialAvailable 0070  
      end_of_initialization 07FC               ??_analogWrite 0072              digitalRead@pin 0072  
               ?_analogRead 0070             ?_Initialization 0070            ___aldiv@quotient 002E  
             ??_digitalRead 0070                   _PORTAbits 0005                   _PORTBbits 0006  
                 _PORTCbits 0007                   _PORTDbits 0008                   _PORTEbits 0009  
            _ProcessCommand 0291                   _TRISAbits 0085                   _TRISBbits 0086  
                 _TRISCbits 0087                   _TRISDbits 0088              __end_of_PBRead 1000  
       __end_of_analogWrite 0069      __end_of_ProcessCommand 0346         __size_of_analogRead 0086  
       start_initialization 07E4         __end_of_digitalRead 07E4                    ??_PBRead 0070  
              ??_SerialRead 0070                 __pdataBANK0 0038             ?_ProcessCommand 0075  
                 ___latbits 0002               __pcstackBANK0 002C                  pinMode@pin 0073  
        __end_of_SerialRead 0F8B                ?_SerialBegin 0032                 _analogWrite 0021  
              ?_SerialWrite 0070                    ?___aldiv 0070                SerialBegin@x 0036  
               _digitalRead 06A3                    ?_pinMode 0070              __size_of_setup 0057  
           ___aldiv@divisor 0070            ??_Initialization 0070             ___aldiv@counter 002C  
              ??_analogRead 0072                  _ADCON0bits 001F                  _ADCON1bits 009F  
        __end_of_analogRead 0146       ProcessCommand@LSBData 0077       ProcessCommand@MSBData 0076  
  __size_of_SerialAvailable 0017            __size_of___aldiv 00A6            __size_of_pinMode 013F  
                  __ptext10 042D                    __ptext11 06A3                    __ptext12 0021  
                  __ptext13 00C0                    __ptext14 0FD2                    __ptext15 0FAC  
                  __ptext16 0005                    __ptext17 0F75               __size_of_main 0015  
             __size_of_loop 00E7        __size_of_SerialBegin 00A5            ??_ProcessCommand 0078  
      __size_of_SerialWrite 000C            analogWrite@value 0070               ?_digitalWrite 0070  
         digitalWrite@value 0070                ?_analogWrite 0070           ??_SerialAvailable 0070  
       _SerialAvailable$456 0070           _CCP1Configuration 0F75                ?_digitalRead 0070  
        ?_CCP1Configuration 0070              ??_digitalWrite 0071         ??_CCP1Configuration 0070  
              ___aldiv@sign 002D              analogWrite@pin 0074             digitalWrite@pin 0073  
 __end_of_CCP1Configuration 0F80  
